 QC_Eyes

 Timestamp is 5dccc4f9 (Wed Nov 13 22:07:37 2019)

 Preferred load address is 00400000

 Start         Length     Name                   Class
 0001:00000000 00000ad1H .text$di                CODE
 0001:00000ae0 00140522H .text$mn                CODE
 0001:00141010 0000eb9cH .text$x                 CODE
 0001:0014fbb0 00000470H .text$yd                CODE
 0002:00000000 000009a0H .idata$5                DATA
 0002:000009a0 00000004H .CRT$XCA                DATA
 0002:000009a4 00000008H .CRT$XCC                DATA
 0002:000009ac 00000014H .CRT$XCL                DATA
 0002:000009c0 00000278H .CRT$XCU                DATA
 0002:00000c38 00000004H .CRT$XCZ                DATA
 0002:00000c3c 00000004H .CRT$XIA                DATA
 0002:00000c40 00000018H .CRT$XIC                DATA
 0002:00000c58 00000004H .CRT$XIY                DATA
 0002:00000c5c 00000004H .CRT$XIZ                DATA
 0002:00000c60 00000004H .CRT$XPA                DATA
 0002:00000c64 00000008H .CRT$XPX                DATA
 0002:00000c6c 00000004H .CRT$XPXA               DATA
 0002:00000c70 00000004H .CRT$XPZ                DATA
 0002:00000c74 00000004H .CRT$XTA                DATA
 0002:00000c78 00000004H .CRT$XTZ                DATA
 0002:00000c80 0002f868H .rdata                  DATA
 0002:000304e8 00000078H .rdata$debug            DATA
 0002:00030560 00008d94H .rdata$r                DATA
 0002:00039300 00000e3cH .rdata$sxdata           DATA
 0002:0003a13c 00000004H .rtc$IAA                DATA
 0002:0003a140 00000004H .rtc$IZZ                DATA
 0002:0003a144 00000004H .rtc$TAA                DATA
 0002:0003a148 00000004H .rtc$TZZ                DATA
 0002:0003a150 0000fcccH .xdata$x                DATA
 0002:00049e1c 00000000H ATL$__a                 DATA
 0002:00049e1c 00000000H ATL$__z                 DATA
 0002:00049e1c 00000000H .edata                  DATA
 0002:00049e1c 00000140H .idata$2                DATA
 0002:00049f5c 00000014H .idata$3                DATA
 0002:00049f70 000009a0H .idata$4                DATA
 0002:0004a910 0000294eH .idata$6                DATA
 0003:00000000 00002348H .data                   DATA
 0003:00002348 000040e0H .data$r                 DATA
 0003:00006440 000075c0H .bss                    DATA
 0004:00000000 00000cd0H .rsrc$01                DATA
 0004:00000cd0 001049c8H .rsrc$02                DATA

  Address         Publics by Value              Rva+Base       Lib:Object

 0000:00000000       ___guard_fids_table        00000000     <absolute>
 0000:00000000       __except_list              00000000     <absolute>
 0000:00000000       ___guard_flags             00000000     <absolute>
 0000:00000000       ___guard_fids_count        00000000     <absolute>
 0000:0000038f       ___safe_se_handler_count   0000038f     <absolute>
 0000:00000000       ___ImageBase               00400000     <linker-defined>
 0001:00000ae0       ??1CQC_EyesDlg@@UAE@XZ     00401ae0 f i QC_Eyes.obj
 0001:00000b40       ??3CObject@@SGXPAX@Z       00401b40 f i QC_Eyes.obj
 0001:00000b60       ??_GCQC_EyesApp@@UAEPAXI@Z 00401b60 f i QC_Eyes.obj
 0001:00000b60       ??_ECQC_EyesApp@@UAEPAXI@Z 00401b60 f i QC_Eyes.obj
 0001:00000b90       ?GetApplicationRecoveryPingInterval@CWinApp@@UAEKXZ 00401b90 f i QC_Eyes.obj
 0001:00000ba0       ?GetMessageMap@CQC_EyesApp@@MBEPBUAFX_MSGMAP@@XZ 00401ba0 f   QC_Eyes.obj
 0001:00000bb0       ?InitInstance@CQC_EyesApp@@UAEHXZ 00401bb0 f   QC_Eyes.obj
 0001:00000c50       ?ReopenPreviousFilesAtRestart@CWinApp@@UBEHXZ 00401c50 f i QC_Eyes.obj
 0001:00000c60       ?RestoreAutosavedFilesAtRestart@CWinApp@@UBEHXZ 00401c60 f i QC_Eyes.obj
 0001:00000c70       ?SupportsApplicationRecovery@CWinApp@@UBEHXZ 00401c70 f i QC_Eyes.obj
 0001:00000c80       ?SupportsAutosaveAtInterval@CWinApp@@UBEHXZ 00401c80 f i QC_Eyes.obj
 0001:00000c90       ?SupportsAutosaveAtRestart@CWinApp@@UBEHXZ 00401c90 f i QC_Eyes.obj
 0001:00000ca0       ?SupportsRestartManager@CWinApp@@UBEHXZ 00401ca0 f i QC_Eyes.obj
 0001:00000cb0       ??0CQC_EyesDlg@@QAE@PAVCWnd@@@Z 00401cb0 f   QC_EyesDlg.obj
 0001:00000d60       ??_GCButton@@UAEPAXI@Z     00401d60 f i QC_EyesDlg.obj
 0001:00000d60       ??_ECButton@@UAEPAXI@Z     00401d60 f i QC_EyesDlg.obj
 0001:00000d90       ??_ECQC_EyesDlg@@UAEPAXI@Z 00401d90 f i QC_EyesDlg.obj
 0001:00000d90       ??_GCQC_EyesDlg@@UAEPAXI@Z 00401d90 f i QC_EyesDlg.obj
 0001:00000e00       ??_ECStatic@@UAEPAXI@Z     00401e00 f i QC_EyesDlg.obj
 0001:00000e00       ??_GCStatic@@UAEPAXI@Z     00401e00 f i QC_EyesDlg.obj
 0001:00000e30       ?AddText@CQC_EyesDlg@@IAAXPBDZZ 00401e30 f   QC_EyesDlg.obj
 0001:00000f10       ?BeginModalState@CWnd@@UAEXXZ 00401f10 f i QC_EyesDlg.obj
 0001:00000f20       ?CheckNumericInputs@CQC_EyesDlg@@IAE_NXZ 00401f20 f   QC_EyesDlg.obj
 0001:00001110       ?Create@CDialog@@UAEHIPAVCWnd@@@Z 00402110 f i QC_EyesDlg.obj
 0001:00001130       ?DoDataExchange@CQC_EyesDlg@@MAEXPAVCDataExchange@@@Z 00402130 f   QC_EyesDlg.obj
 0001:00001170       ?EndModalState@CWnd@@UAEXXZ 00402170 f i QC_EyesDlg.obj
 0001:00001180       ?FormatAndSendToEditControl@@YAXPAXPBD@Z 00402180 f   QC_EyesDlg.obj
 0001:00001230       ?GenerateQCText@CQC_EyesDlg@@IAEXXZ 00402230 f   QC_EyesDlg.obj
 0001:000015f0       ?GetCachedBitmap@CQC_EyesDlg@@IAEPAUHBITMAP__@@I@Z 004025f0 f   QC_EyesDlg.obj
 0001:00001660       ?GetDialogParams@CQC_EyesDlg@@IAEXAAVCDialogParams@@@Z 00402660 f   QC_EyesDlg.obj
 0001:00001bb0       ?GetMessageMap@CQC_EyesDlg@@MBEPBUAFX_MSGMAP@@XZ 00402bb0 f   QC_EyesDlg.obj
 0001:00001bc0       ?LoadIconA@CWinApp@@QBEPAUHICON__@@I@Z 00402bc0 f i QC_EyesDlg.obj
 0001:00001be0       ?OnAdvancedControls@CQC_EyesDlg@@IAEXXZ 00402be0 f   QC_EyesDlg.obj
 0001:00001c60       ?OnCopyTextToClipboard@CQC_EyesDlg@@IAEXXZ 00402c60 f   QC_EyesDlg.obj
 0001:00001d00       ?OnCreateQcText@CQC_EyesDlg@@IAEXXZ 00402d00 f   QC_EyesDlg.obj
 0001:00001d80       ?OnDefaultControls@CQC_EyesDlg@@IAEXXZ 00402d80 f   QC_EyesDlg.obj
 0001:00001df0       ?OnEyeColorDark@CQC_EyesDlg@@IAEXXZ 00402df0 f   QC_EyesDlg.obj
 0001:00001e50       ?OnEyeColorLight@CQC_EyesDlg@@IAEXXZ 00402e50 f   QC_EyesDlg.obj
 0001:00001eb0       ?OnInitDialog@CQC_EyesDlg@@MAEHXZ 00402eb0 f   QC_EyesDlg.obj
 0001:00002000       ?OnIrisColorBlue@CQC_EyesDlg@@IAEXXZ 00403000 f   QC_EyesDlg.obj
 0001:00002070       ?OnIrisColorBrown@CQC_EyesDlg@@IAEXXZ 00403070 f   QC_EyesDlg.obj
 0001:000020e0       ?OnIrisColorGreen@CQC_EyesDlg@@IAEXXZ 004030e0 f   QC_EyesDlg.obj
 0001:00002150       ?OnLeftLidControl@CQC_EyesDlg@@IAEXXZ 00403150 f   QC_EyesDlg.obj
 0001:00002200       ?OnPaint@CQC_EyesDlg@@IAEXXZ 00403200 f   QC_EyesDlg.obj
 0001:000022a0       ?OnQueryDragIcon@CQC_EyesDlg@@IAEPAUHICON__@@XZ 004032a0 f   QC_EyesDlg.obj
 0001:000022b0       ?OnSetfocusLeftEyeX@CQC_EyesDlg@@IAEXXZ 004032b0 f   QC_EyesDlg.obj
 0001:000022d0       ?OnSetfocusLeftEyeY@CQC_EyesDlg@@IAEXXZ 004032d0 f   QC_EyesDlg.obj
 0001:00002310       ?OnSetfocusLeftEyeZ@CQC_EyesDlg@@IAEXXZ 00403310 f   QC_EyesDlg.obj
 0001:00002350       ?OnSetfocusLowerLidLowered@CQC_EyesDlg@@IAEXXZ 00403350 f   QC_EyesDlg.obj
 0001:000023a0       ?OnSetfocusLowerLidNeutral@CQC_EyesDlg@@IAEXXZ 004033a0 f   QC_EyesDlg.obj
 0001:000023f0       ?OnSetfocusLowerLidRaised@CQC_EyesDlg@@IAEXXZ 004033f0 f   QC_EyesDlg.obj
 0001:00002440       ?OnSetfocusRightEyeX@CQC_EyesDlg@@IAEXXZ 00403440 f   QC_EyesDlg.obj
 0001:00002460       ?OnSetfocusRightEyeY@CQC_EyesDlg@@IAEXXZ 00403460 f   QC_EyesDlg.obj
 0001:000024a0       ?OnSetfocusRightEyeZ@CQC_EyesDlg@@IAEXXZ 004034a0 f   QC_EyesDlg.obj
 0001:000024e0       ?OnSetfocusUpperLidLowered@CQC_EyesDlg@@IAEXXZ 004034e0 f   QC_EyesDlg.obj
 0001:00002530       ?OnSetfocusUpperLidNeutral@CQC_EyesDlg@@IAEXXZ 00403530 f   QC_EyesDlg.obj
 0001:00002580       ?OnSetfocusUpperLidRaised@CQC_EyesDlg@@IAEXXZ 00403580 f   QC_EyesDlg.obj
 0001:000025d0       ?SetupBitmapLabel@CQC_EyesDlg@@IAAXIPBDZZ 004035d0 f   QC_EyesDlg.obj
 0001:00002640       ??$AtlAdd@H@ATL@@YAJPAHHH@Z 00403640 f i StdAfx.obj
 0001:00002670       ??$AtlAdd@K@ATL@@YAJPAKKK@Z 00403670 f i StdAfx.obj
 0001:000026a0       ??$AtlMultiply@K@ATL@@YAJPAKKK@Z 004036a0 f i StdAfx.obj
 0001:000026a0       ??$AtlMultiply@I@ATL@@YAJPAIII@Z 004036a0 f i StdAfx.obj
 0001:000026d0       ?Init@CComCriticalSection@ATL@@QAEJXZ 004036d0 f i StdAfx.obj
 0001:000026f5       ?AfxNewHandler@@YAHI@Z     004036f5 f   nafxcw:afxmem.obj
 0001:000026fa       ??2@YAPAXI@Z               004036fa f   nafxcw:afxmem.obj
 0001:00002727       ??3@YAXPAX@Z               00403727 f   nafxcw:afxmem.obj
 0001:00002727       ??_V@YAXPAX@Z              00403727 f   nafxcw:afxmem.obj
 0001:0000272c       ??_U@YAPAXI@Z              0040372c f   nafxcw:afxmem.obj
 0001:00002735       ?AfxSetNewHandler@@YGP6AHI@ZP6AHI@Z@Z 00403735 f   nafxcw:afxmem.obj
 0001:0000274a       ??0CCmdTarget@@QAE@XZ      0040374a f   nafxcw:cmdtarg.obj
 0001:00002770       ??0CCmdUI@@QAE@XZ          00403770 f   nafxcw:cmdtarg.obj
 0001:00002796       ??1CCmdTarget@@UAE@XZ      00403796 f   nafxcw:cmdtarg.obj
 0001:000027ab       ?BeginWaitCursor@CCmdTarget@@QAEXXZ 004037ab f   nafxcw:cmdtarg.obj
 0001:000027be       ?DoUpdate@CCmdUI@@QAEHPAVCCmdTarget@@H@Z 004037be f   nafxcw:cmdtarg.obj
 0001:00002832       ?Enable@CCmdUI@@UAEXH@Z    00403832 f   nafxcw:cmdtarg.obj
 0001:000028c3       ?EndWaitCursor@CCmdTarget@@QAEXXZ 004038c3 f   nafxcw:cmdtarg.obj
 0001:000028d6       ?GetCommandMap@CCmdTarget@@MBEPBUAFX_OLECMDMAP@@XZ 004038d6 f   nafxcw:cmdtarg.obj
 0001:000028dc       ?GetConnectionMap@CCmdTarget@@MBEPBUAFX_CONNECTIONMAP@@XZ 004038dc f   nafxcw:cmdtarg.obj
 0001:000028e2       ?GetDispatchMap@CCmdTarget@@MBEPBUAFX_DISPMAP@@XZ 004038e2 f   nafxcw:cmdtarg.obj
 0001:000028e8       ?GetEventSinkMap@CCmdTarget@@MBEPBUAFX_EVENTSINKMAP@@XZ 004038e8 f   nafxcw:cmdtarg.obj
 0001:000028ee       ?GetInterfaceMap@CCmdTarget@@MBEPBUAFX_INTERFACEMAP@@XZ 004038ee f   nafxcw:cmdtarg.obj
 0001:000028f4       ?GetThisMessageMap@CCmdTarget@@KGPBUAFX_MSGMAP@@XZ 004038f4 f   nafxcw:cmdtarg.obj
 0001:000028f4       ?GetMessageMap@CCmdTarget@@MBEPBUAFX_MSGMAP@@XZ 004038f4 f   nafxcw:cmdtarg.obj
 0001:000028fa       ?GetRuntimeClass@CCmdTarget@@UBEPAUCRuntimeClass@@XZ 004038fa f   nafxcw:cmdtarg.obj
 0001:00002900       ?GetTypeLib@CCmdTarget@@UAEJKPAPAUITypeLib@@@Z 00403900 f   nafxcw:cmdtarg.obj
 0001:00002908       ?OnCmdMsg@CCmdTarget@@UAEHIHPAXPAUAFX_CMDHANDLERINFO@@@Z 00403908 f   nafxcw:cmdtarg.obj
 0001:00002a30       ?OnFinalRelease@CCmdTarget@@UAEXXZ 00403a30 f   nafxcw:cmdtarg.obj
 0001:00002a5e       ?SetCheck@CCmdUI@@UAEXH@Z  00403a5e f   nafxcw:cmdtarg.obj
 0001:00002ad6       ?SetRadio@CCmdUI@@UAEXH@Z  00403ad6 f   nafxcw:cmdtarg.obj
 0001:00002b37       ?SetText@CCmdUI@@UAEXPBD@Z 00403b37 f   nafxcw:cmdtarg.obj
 0001:00002b9a       ?_AfxDispatchCmdMsg@@YGHPAVCCmdTarget@@IHP81@AEXXZPAXIPAUAFX_CMDHANDLERINFO@@@Z 00403b9a f   nafxcw:cmdtarg.obj
 0001:00002cc6       ?_AfxLoadDotBitmap@@YGXXZ  00403cc6 f   nafxcw:cmdtarg.obj
 0001:00002dfd       _IsEqualGUID               00403dfd f i nafxcw:cmdtarg.obj
 0001:00002e17       ??0?$CSimpleStringT@_W$0A@@ATL@@QAE@PAUIAtlStringMgr@1@@Z 00403e17 f i nafxcw:appcore.obj
 0001:00002e17       ??0?$CSimpleStringT@D$0A@@ATL@@QAE@PAUIAtlStringMgr@1@@Z 00403e17 f i nafxcw:dlgcore.obj
 0001:00002e40       ??0CDialog@@QAE@IPAVCWnd@@@Z 00403e40 f   nafxcw:dlgcore.obj
 0001:00002e74       ??0CDialog@@QAE@XZ         00403e74 f   nafxcw:dlgcore.obj
 0001:00002e8d       ??1CDialog@@UAE@XZ         00403e8d f   nafxcw:dlgcore.obj
 0001:00002ec4       ??_9CDialog@@$BBHM@AE      00403ec4 f i nafxcw:dlgcore.obj
 0001:00002ecc       ??_GCDialog@@UAEPAXI@Z     00403ecc f i nafxcw:dlgcore.obj
 0001:00002ecc       ??_ECDialog@@UAEPAXI@Z     00403ecc f i nafxcw:dlgcore.obj
 0001:00002eeb       ?AfxDlgProc@@YGHPAUHWND__@@IIJ@Z 00403eeb f   nafxcw:dlgcore.obj
 0001:00002f27       ?AfxGetMainWnd@@YGPAVCWnd@@XZ 00403f27 f i nafxcw:dlgcore.obj
 0001:00002f3a       ?AfxHelpEnabled@@YGHXZ     00403f3a f   nafxcw:dlgcore.obj
 0001:00002f90       ?AtlThrowImpl@ATL@@YGXJ@Z  00403f90 f i nafxcw:dlgcore.obj
 0001:00002faa       ?CheckAutoCenter@CDialog@@UAEHXZ 00403faa f   nafxcw:dlgcore.obj
 0001:0000304e       ?Create@CDialog@@UAEHPBDPAVCWnd@@@Z 0040404e f   nafxcw:dlgcore.obj
 0001:000030aa       ?CreateDlg@CWnd@@IAEHPBDPAV1@@Z 004040aa f   nafxcw:dlgcore.obj
 0001:00003102       ?CreateDlgIndirect@CWnd@@IAEHPBUDLGTEMPLATE@@PAV1@PAUHINSTANCE__@@@Z 00404102 f   nafxcw:dlgcore.obj
 0001:000032d8       ?CreateIndirect@CDialog@@IAEHPAXPAVCWnd@@PAUHINSTANCE__@@@Z 004042d8 f   nafxcw:dlgcore.obj
 0001:000032fc       ?CreateIndirect@CDialog@@IAEHPBUDLGTEMPLATE@@PAVCWnd@@PAXPAUHINSTANCE__@@@Z 004042fc f   nafxcw:dlgcore.obj
 0001:0000332a       ?CreateIndirect@CDialog@@UAEHPAXPAVCWnd@@@Z 0040432a f   nafxcw:dlgcore.obj
 0001:0000333e       ?CreateIndirect@CDialog@@UAEHPBUDLGTEMPLATE@@PAVCWnd@@PAX@Z 0040433e f   nafxcw:dlgcore.obj
 0001:00003355       ?CreateRunDlgIndirect@CWnd@@IAEHPBUDLGTEMPLATE@@PAV1@PAUHINSTANCE__@@@Z 00404355 f   nafxcw:dlgcore.obj
 0001:000033b4       ?DoModal@CDialog@@UAEHXZ   004043b4 f   nafxcw:dlgcore.obj
 0001:00003574       ?EndDialog@CDialog@@QAEXH@Z 00404574 f   nafxcw:dlgcore.obj
 0001:000035a6       ?GetNextDlgTabItem@CWnd@@QBEPAV1@PAV1@H@Z 004045a6 f i nafxcw:dlgcore.obj
 0001:000035ca       ?GetRuntimeClass@CDialog@@UBEPAUCRuntimeClass@@XZ 004045ca f   nafxcw:dlgcore.obj
 0001:000035d0       ?GetThisMessageMap@CDialog@@KGPBUAFX_MSGMAP@@XZ 004045d0 f   nafxcw:dlgcore.obj
 0001:000035d0       ?GetMessageMap@CDialog@@MBEPBUAFX_MSGMAP@@XZ 004045d0 f   nafxcw:dlgcore.obj
 0001:000035d6       ?HandleInitDialog@CDialog@@IAEJIJ@Z 004045d6 f   nafxcw:dlgcore.obj
 0001:0000366c       ?Initialize@CDialog@@QAEXXZ 0040466c f   nafxcw:dlgcore.obj
 0001:0000369c       ?OnCancel@CDialog@@MAEXXZ  0040469c f   nafxcw:dlgcore.obj
 0001:000036a4       ?OnCmdMsg@CDialog@@UAEHIHPAXPAUAFX_CMDHANDLERINFO@@@Z 004046a4 f   nafxcw:dlgcore.obj
 0001:000036a4       ?OnCmdMsg@CPropertySheet@@UAEHIHPAXPAUAFX_CMDHANDLERINFO@@@Z 004046a4 f   nafxcw:dlgprop.obj
 0001:0000372c       ?OnCommandHelp@CDialog@@IAEJIJ@Z 0040472c f   nafxcw:dlgcore.obj
 0001:00003769       ?OnEndSession@CDialog@@IAEXH@Z 00404769 f   nafxcw:dlgcore.obj
 0001:000037af       ?OnHelpHitTest@CDialog@@IAEJIJ@Z 004047af f   nafxcw:dlgcore.obj
 0001:000037c2       ?OnInitDialog@CDialog@@UAEHXZ 004047c2 f   nafxcw:dlgcore.obj
 0001:00003826       ?OnOK@CDialog@@MAEXXZ      00404826 f   nafxcw:dlgcore.obj
 0001:0000383f       ?OnPaint@CDialog@@IAEXXZ   0040483f f   nafxcw:dlgcore.obj
 0001:00003882       ?OnQueryEndSession@CDialog@@IAEHXZ 00404882 f   nafxcw:dlgcore.obj
 0001:000038b4       ?OnSetFont@CDialog@@IAEXPAVCFont@@H@Z 004048b4 f   nafxcw:dlgcore.obj
 0001:000038d1       ?PostModal@CDialog@@IAEXXZ 004048d1 f   nafxcw:dlgcore.obj
 0001:0000391a       ?PreModal@CDialog@@IAEPAUHWND__@@XZ 0040491a f   nafxcw:dlgcore.obj
 0001:00003959       ?PreTranslateMessage@CDialog@@UAEHPAUtagMSG@@@Z 00404959 f   nafxcw:dlgcore.obj
 0001:000039ff       ?Release@CStringData@ATL@@QAEXXZ 004049ff f i nafxcw:dlgcore.obj
 0001:00003a1b       ?SetOccDialogInfo@CDialog@@MAEHPAU_AFX_OCC_DIALOG_INFO@@@Z 00404a1b f   nafxcw:dlgcore.obj
 0001:00003a2e       _IsolationAwareActivateActCtx@8 00404a2e f i nafxcw:dlgcore.obj
 0001:00003a5e       _IsolationAwareCreateActCtxW@4 00404a5e f i nafxcw:dlgcore.obj
 0001:00003a91       _IsolationAwareCreateDialogIndirectParamA@20 00404a91 f i nafxcw:dlgcore.obj
 0001:00003b28       _IsolationAwareDeactivateActCtx@8 00404b28 f i nafxcw:dlgcore.obj
 0001:00003b58       _IsolationAwareFindActCtxSectionStringW@20 00404b58 f i nafxcw:dlgcore.obj
 0001:00003b88       _IsolationAwarePrivatenPgViNgRzlnPgpgk@4 00404b88 f i nafxcw:dlgcore.obj
 0001:00003bf8       _IsolationAwarePrivatezltRgCebPnQQeRff@12 00404bf8 f i nafxcw:dlgcore.obj
 0001:00003c2a       _IsolationAwarePrivatezltRgzbQhYRuNaQYRJ@4 00404c2a f i nafxcw:dlgcore.obj
 0001:00003c34       _IsolationAwarePrivatezltRgzbQhYRuNaQYRn@4 00404c34 f i nafxcw:dlgcore.obj
 0001:00003c3e       _WinbaseIsolationAwarePrivatetRgzlnPgpgk@0 00404c3e f i nafxcw:dlgcore.obj
 0001:00003e1d       ??1CButton@@UAE@XZ         00404e1d f   nafxcw:winctrl1.obj
 0001:00003e4e       ??1CComboBox@@UAE@XZ       00404e4e f   nafxcw:winctrl1.obj
 0001:00003e7f       ??1CEdit@@UAE@XZ           00404e7f f   nafxcw:winctrl1.obj
 0001:00003eb0       ??1CListBox@@UAE@XZ        00404eb0 f   nafxcw:winctrl1.obj
 0001:00003ee1       ??1CScrollBar@@UAE@XZ      00404ee1 f   nafxcw:winctrl1.obj
 0001:00003f12       ??1CStatic@@UAE@XZ         00404f12 f   nafxcw:winctrl1.obj
 0001:00003f43       ??_GCComboBox@@UAEPAXI@Z   00404f43 f i nafxcw:winctrl1.obj
 0001:00003f43       ??_ECComboBox@@UAEPAXI@Z   00404f43 f i nafxcw:winctrl1.obj
 0001:00003f62       ??_GCEdit@@UAEPAXI@Z       00404f62 f i nafxcw:winctrl1.obj
 0001:00003f62       ??_ECEdit@@UAEPAXI@Z       00404f62 f i nafxcw:winctrl1.obj
 0001:00003f81       ??_GCScrollBar@@UAEPAXI@Z  00404f81 f i nafxcw:winctrl1.obj
 0001:00003f81       ??_ECScrollBar@@UAEPAXI@Z  00404f81 f i nafxcw:winctrl1.obj
 0001:00003fa0       ?Create@CButton@@UAEHPBDKABUtagRECT@@PAVCWnd@@I@Z 00404fa0 f   nafxcw:winctrl1.obj
 0001:00003fc2       ?Create@CComboBox@@UAEHKABUtagRECT@@PAVCWnd@@I@Z 00404fc2 f   nafxcw:winctrl1.obj
 0001:00003fe3       ?Create@CEdit@@QAEHKABUtagRECT@@PAVCWnd@@I@Z 00404fe3 f   nafxcw:winctrl1.obj
 0001:00004004       ?Create@CListBox@@UAEHKABUtagRECT@@PAVCWnd@@I@Z 00405004 f   nafxcw:winctrl1.obj
 0001:00004025       ?Create@CScrollBar@@UAEHKABUtagRECT@@PAVCWnd@@I@Z 00405025 f   nafxcw:winctrl1.obj
 0001:00004046       ?Create@CStatic@@UAEHPBDKABUtagRECT@@PAVCWnd@@I@Z 00405046 f   nafxcw:winctrl1.obj
 0001:00004068       ?Fork@?$CSimpleStringT@D$0A@@ATL@@AAEXH@Z 00405068 f i nafxcw:winctrl1.obj
 0001:000040ce       ?GetBufferSetLength@?$CSimpleStringT@D$0A@@ATL@@QAEPADH@Z 004050ce f i nafxcw:winctrl1.obj
 0001:000040f1       ?GetLBText@CComboBox@@QBEXHAAV?$CStringT@DV?$StrTraitMFC@DV?$ChTraitsCRT@D@ATL@@@@@ATL@@@Z 004050f1 f   nafxcw:winctrl1.obj
 0001:00004134       ?GetRuntimeClass@CButton@@UBEPAUCRuntimeClass@@XZ 00405134 f   nafxcw:winctrl1.obj
 0001:0000413a       ?GetRuntimeClass@CComboBox@@UBEPAUCRuntimeClass@@XZ 0040513a f   nafxcw:winctrl1.obj
 0001:00004140       ?GetRuntimeClass@CEdit@@UBEPAUCRuntimeClass@@XZ 00405140 f   nafxcw:winctrl1.obj
 0001:00004146       ?GetRuntimeClass@CListBox@@UBEPAUCRuntimeClass@@XZ 00405146 f   nafxcw:winctrl1.obj
 0001:0000414c       ?GetRuntimeClass@CScrollBar@@UBEPAUCRuntimeClass@@XZ 0040514c f   nafxcw:winctrl1.obj
 0001:00004152       ?GetRuntimeClass@CStatic@@UBEPAUCRuntimeClass@@XZ 00405152 f   nafxcw:winctrl1.obj
 0001:00004158       ?GetText@CListBox@@QBEXHAAV?$CStringT@DV?$StrTraitMFC@DV?$ChTraitsCRT@D@ATL@@@@@ATL@@@Z 00405158 f   nafxcw:winctrl1.obj
 0001:0000419b       ?OnChildNotify@CComboBox@@MAEHIIJPAJ@Z 0040519b f   nafxcw:winctrl1.obj
 0001:000041f5       ?OnChildNotify@CListBox@@MAEHIIJPAJ@Z 004051f5 f   nafxcw:winctrl1.obj
 0001:0000429c       ?OnChildNotify@CButton@@MAEHIIJPAJ@Z 0040529c f   nafxcw:winctrl1.obj
 0001:0000429c       ?OnChildNotify@CStatic@@MAEHIIJPAJ@Z 0040529c f   nafxcw:winctrl1.obj
 0001:000042bd       ?PrepareWrite2@?$CSimpleStringT@D$0A@@ATL@@AAEXH@Z 004052bd f i nafxcw:winctrl1.obj
 0001:00004315       ?PrepareWrite@?$CSimpleStringT@D$0A@@ATL@@AAEPADH@Z 00405315 f i nafxcw:winctrl1.obj
 0001:0000434d       ?Reallocate@?$CSimpleStringT@D$0A@@ATL@@AAEXH@Z 0040534d f i nafxcw:winctrl1.obj
 0001:00004385       ?ReleaseBuffer@?$CSimpleStringT@D$0A@@ATL@@QAEXH@Z 00405385 f i nafxcw:winctrl1.obj
 0001:000043b1       ?SetLength@?$CSimpleStringT@D$0A@@ATL@@AAEXH@Z 004053b1 f i nafxcw:winctrl1.obj
 0001:000043da       ?ThrowMemoryException@?$CSimpleStringT@_W$0A@@ATL@@KAXXZ 004053da f i nafxcw:appcore.obj
 0001:000043da       ?ThrowMemoryException@?$CSimpleStringT@D$0A@@ATL@@KAXXZ 004053da f i nafxcw:winctrl1.obj
 0001:000043e5       ??0CWinThread@@QAE@XZ      004053e5 f   nafxcw:thrdcore.obj
 0001:0000441b       ??1CWinThread@@UAE@XZ      0040541b f   nafxcw:thrdcore.obj
 0001:00004464       ??8CSize@@QBEHUtagSIZE@@@Z 00405464 f i nafxcw:afxtagmanager.obj
 0001:00004464       ??8CPoint@@QBEHUtagPOINT@@@Z 00405464 f i nafxcw:thrdcore.obj
 0001:00004481       ??_ECWinThread@@UAEPAXI@Z  00405481 f i nafxcw:thrdcore.obj
 0001:00004481       ??_GCWinThread@@UAEPAXI@Z  00405481 f i nafxcw:thrdcore.obj
 0001:000044a0       ?AfxGetCurrentMessage@@YGPAUtagMSG@@XZ 004054a0 f   nafxcw:thrdcore.obj
 0001:000044a9       ?AfxGetThread@@YGPAVCWinThread@@XZ 004054a9 f   nafxcw:thrdcore.obj
 0001:000044b2       ?AfxInitThread@@YGXXZ      004054b2 f   nafxcw:thrdcore.obj
 0001:000044e0       ?AfxInternalIsIdleMessage@@YAHPAUtagMSG@@@Z 004054e0 f   nafxcw:thrdcore.obj
 0001:0000454e       ?AfxInternalPreTranslateMessage@@YAHPAUtagMSG@@@Z 0040554e f   nafxcw:thrdcore.obj
 0001:000045c0       ?AfxInternalProcessWndProcException@@YGJPAVCException@@PBUtagMSG@@@Z 004055c0 f   nafxcw:thrdcore.obj
 0001:000045e7       ?AfxInternalPumpMessage@@YGHXZ 004055e7 f   nafxcw:thrdcore.obj
 0001:0000462b       ?AfxIsIdleMessage@@YAHPAUtagMSG@@@Z 0040562b f   nafxcw:thrdcore.obj
 0001:0000464a       ?AfxPreTranslateMessage@@YAHPAUtagMSG@@@Z 0040564a f   nafxcw:thrdcore.obj
 0001:00004669       ?AfxProcessWndProcException@@YGJPAVCException@@PBUtagMSG@@@Z 00405669 f   nafxcw:thrdcore.obj
 0001:00004684       ?AfxPumpMessage@@YGHXZ     00405684 f   nafxcw:thrdcore.obj
 0001:0000469a       ?CommonConstruct@CWinThread@@QAEXXZ 0040569a f   nafxcw:thrdcore.obj
 0001:000046d1       ?CreateObject@?$CThreadLocal@VAFX_MODULE_THREAD_STATE@@@@SGPAVCNoTrackObject@@XZ 004056d1 f i nafxcw:thrdcore.obj
 0001:000046fd       ?CreateObject@?$CThreadLocal@V_AFX_THREAD_STATE@@@@SGPAVCNoTrackObject@@XZ 004056fd f i nafxcw:thrdcore.obj
 0001:0000472c       ?Delete@CWinThread@@UAEXXZ 0040572c f   nafxcw:thrdcore.obj
 0001:0000473a       ?DispatchThreadMessageEx@CWinThread@@IAEHPAUtagMSG@@@Z 0040573a f   nafxcw:thrdcore.obj
 0001:000047bd       ?ExitInstance@CWinThread@@UAEHXZ 004057bd f   nafxcw:thrdcore.obj
 0001:000047c6       ?GetMainWnd@CWinThread@@UAEPAVCWnd@@XZ 004057c6 f   nafxcw:thrdcore.obj
 0001:000047e1       ?GetRuntimeClass@CWinThread@@UBEPAUCRuntimeClass@@XZ 004057e1 f   nafxcw:thrdcore.obj
 0001:000047e7       ?IsEnterKey@@YAHPAUtagMSG@@@Z 004057e7 f i nafxcw:thrdcore.obj
 0001:00004805       ?IsIdleMessage@CWinThread@@UAEHPAUtagMSG@@@Z 00405805 f   nafxcw:thrdcore.obj
 0001:00004815       ?OnIdle@CWinThread@@UAEHJ@Z 00405815 f   nafxcw:thrdcore.obj
 0001:0000493b       ?PreTranslateMessage@CWinThread@@UAEHPAUtagMSG@@@Z 0040593b f   nafxcw:thrdcore.obj
 0001:0000494b       ?ProcessMessageFilter@CWinThread@@UAEHHPAUtagMSG@@@Z 0040594b f   nafxcw:thrdcore.obj
 0001:00004a76       ?ProcessWndProcException@CWinThread@@UAEJPAVCException@@PBUtagMSG@@@Z 00405a76 f   nafxcw:thrdcore.obj
 0001:00004a7f       ?PumpMessage@CWinThread@@UAEHXZ 00405a7f f   nafxcw:thrdcore.obj
 0001:00004a84       ?Run@CWinThread@@UAEHXZ    00405a84 f   nafxcw:thrdcore.obj
 0001:00004b1e       ?_AfxMsgFilterHook@@YGJHIJ@Z 00405b1e f   nafxcw:thrdcore.obj
 0001:00004b7a       ??0?$CSimpleStringT@D$0A@@ATL@@QAE@PBDHPAUIAtlStringMgr@1@@Z 00405b7a f i nafxcw:appcore.obj
 0001:00004bdb       ??0?$CStringT@DV?$StrTraitMFC@DV?$ChTraitsCRT@D@ATL@@@@@ATL@@QAE@PBD@Z 00405bdb f i nafxcw:appcore.obj
 0001:00004c1f       ??0?$CStringT@_WV?$StrTraitMFC@_WV?$ChTraitsCRT@_W@ATL@@@@@ATL@@QAE@PBD@Z 00405c1f f i nafxcw:appcore.obj
 0001:00004c63       ??0CComBSTR@ATL@@QAE@PBD@Z 00405c63 f i nafxcw:appcore.obj
 0001:00004c98       ??0CWinApp@@QAE@PBD@Z      00405c98 f   nafxcw:appcore.obj
 0001:00004dea       ??1CComBSTR@ATL@@QAE@XZ    00405dea f i nafxcw:appcore.obj
 0001:00004df3       ??1CWinApp@@UAE@XZ         00405df3 f   nafxcw:appcore.obj
 0001:00004ff8       ??4?$CSimpleStringT@D$0A@@ATL@@QAEAAV01@ABV01@@Z 00405ff8 f i nafxcw:appcore.obj
 0001:00005048       ??4?$CStringT@_WV?$StrTraitMFC@_WV?$ChTraitsCRT@_W@ATL@@@@@ATL@@QAEAAV01@PBD@Z 00406048 f i nafxcw:appcore.obj
 0001:00005098       ??_ECWinApp@@UAEPAXI@Z     00406098 f i nafxcw:appcore.obj
 0001:00005098       ??_GCWinApp@@UAEPAXI@Z     00406098 f i nafxcw:appcore.obj
 0001:000050b7       ?A2WBSTR@@YAPA_WPBDH@Z     004060b7 f i nafxcw:appcore.obj
 0001:00005125       ?AfxApplicationRecoveryWrapper@@YGKPAX@Z 00406125 f   nafxcw:appcore.obj
 0001:0000514b       ?AfxCrtErrorCheck@@YAHH@Z  0040614b f i nafxcw:appcore.obj
 0001:00005175       ?AfxInvariantStrICmp@@YAHPBD0@Z 00406175 f i nafxcw:appcore.obj
 0001:00005191       ?AfxLoadLangResourceDLL@@YGPAUHINSTANCE__@@PBD0@Z 00406191 f   nafxcw:appcore.obj
 0001:0000527d       ?AfxPostQuitMessage@@YGXH@Z 0040627d f   nafxcw:appcore.obj
 0001:0000529d       ?AfxSetResourceHandle@@YGXPAUHINSTANCE__@@@Z 0040629d f i nafxcw:appcore.obj
 0001:000052af       ?Append@?$CSimpleStringT@D$0A@@ATL@@QAEXPBD@Z 004062af f i nafxcw:appcore.obj
 0001:000052d8       ?Append@?$CSimpleStringT@D$0A@@ATL@@QAEXPBDH@Z 004062d8 f i nafxcw:appcore.obj
 0001:00005363       ?ApplicationRecoveryCallback@CWinApp@@UAEKPAX@Z 00406363 f   nafxcw:appcore.obj
 0001:000053ae       ?AtlCrtErrorCheck@ATL@@YAHH@Z 004063ae f i nafxcw:appcore.obj
 0001:000053e9       ?AtlGetStringResourceImage@ATL@@YAPBUATLSTRINGRESOURCEIMAGE@1@PAUHINSTANCE__@@I@Z 004063e9 f i nafxcw:appcore.obj
 0001:00005419       ?CheckImplicitLoad@?$CStringT@DV?$StrTraitMFC@DV?$ChTraitsCRT@D@ATL@@@@@ATL@@AAE_NPBX@Z 00406419 f i nafxcw:appcore.obj
 0001:0000543d       ?CheckImplicitLoad@?$CStringT@_WV?$StrTraitMFC@_WV?$ChTraitsCRT@_W@ATL@@@@@ATL@@AAE_NPBX@Z 0040643d f i nafxcw:appcore.obj
 0001:00005461       ?CloneData@?$CSimpleStringT@D$0A@@ATL@@CAPAUCStringData@2@PAU32@@Z 00406461 f i nafxcw:appcore.obj
 0001:000054c0       ?ConvertToBaseType@?$ChTraitsCRT@D@ATL@@SAXPADHPB_WH@Z 004064c0 f i nafxcw:appcore.obj
 0001:000054de       ?ConvertToBaseType@?$ChTraitsCRT@_W@ATL@@SAXPA_WHPB_WH@Z 004064de f i nafxcw:appcore.obj
 0001:00005511       ?CopyChars@?$CSimpleStringT@_W$0A@@ATL@@SAXPA_WIPB_WH@Z 00406511 f i nafxcw:appcore.obj
 0001:00005530       ?DevModeChange@CWinApp@@QAEXPAD@Z 00406530 f   nafxcw:appcore.obj
 0001:000055d2       ?Empty@?$CSimpleStringT@D$0A@@ATL@@QAEXXZ 004065d2 f i nafxcw:appcore.obj
 0001:00005607       ?Empty@?$CSimpleStringT@_W$0A@@ATL@@QAEXXZ 00406607 f i nafxcw:appcore.obj
 0001:0000563c       ?ExitInstance@CWinApp@@UAEHXZ 0040663c f   nafxcw:appcore.obj
 0001:000056a8       ?Find@?$CStringT@DV?$StrTraitMFC@DV?$ChTraitsCRT@D@ATL@@@@@ATL@@QBEHPBDH@Z 004066a8 f i nafxcw:appcore.obj
 0001:000056df       ?Fork@?$CSimpleStringT@_W$0A@@ATL@@AAEXH@Z 004066df f i nafxcw:appcore.obj
 0001:00005745       ?Format@?$CStringT@DV?$StrTraitMFC@DV?$ChTraitsCRT@D@ATL@@@@@ATL@@QAAXPBDZZ 00406745 f i nafxcw:appcore.obj
 0001:00005759       ?FormatV@?$CStringT@DV?$StrTraitMFC@DV?$ChTraitsCRT@D@ATL@@@@@ATL@@QAEXPBDPAD@Z 00406759 f i nafxcw:appcore.obj
 0001:000057b4       ?GetBaseTypeLength@?$ChTraitsCRT@D@ATL@@SAHPB_WH@Z 004067b4 f i nafxcw:appcore.obj
 0001:000057ce       ?GetBaseTypeLength@?$ChTraitsCRT@_W@ATL@@SAHPBD@Z 004067ce f i nafxcw:appcore.obj
 0001:000057e6       ?GetDataRecoveryHandler@CWinApp@@UAEPAVCDataRecoveryHandler@@XZ 004067e6 f   nafxcw:appcore.obj
 0001:00005890       ?GetManager@?$CStringT@DV?$StrTraitMFC@DV?$ChTraitsCRT@D@ATL@@@@@ATL@@QBEPAUIAtlStringMgr@2@XZ 00406890 f i nafxcw:appcore.obj
 0001:000058b3       ?GetRuntimeClass@CWinApp@@UBEPAUCRuntimeClass@@XZ 004068b3 f   nafxcw:appcore.obj
 0001:000058b9       ?GetMessageMap@CWinApp@@MBEPBUAFX_MSGMAP@@XZ 004068b9 f   nafxcw:appcore.obj
 0001:000058b9       ?GetThisMessageMap@CWinApp@@KGPBUAFX_MSGMAP@@XZ 004068b9 f   nafxcw:appcore.obj
 0001:000058bf       ?HtmlHelpA@CWinApp@@UAEXKI@Z 004068bf f   nafxcw:appcore.obj
 0001:00005902       ?InitApplication@CWinApp@@UAEHXZ 00406902 f   nafxcw:appcore.obj
 0001:00005942       ?InitInstance@CWinApp@@UAEHXZ 00406942 f   nafxcw:appcore.obj
 0001:000059cd       ?LoadAppLangResourceDLL@CWinApp@@UAEPAUHINSTANCE__@@XZ 004069cd f   nafxcw:appcore.obj
 0001:00005a3f       ?LoadStringA@?$CStringT@DV?$StrTraitMFC@DV?$ChTraitsCRT@D@ATL@@@@@ATL@@QAEHI@Z 00406a3f f i nafxcw:appcore.obj
 0001:00005a61       ?LoadStringA@?$CStringT@DV?$StrTraitMFC@DV?$ChTraitsCRT@D@ATL@@@@@ATL@@QAEHPAUHINSTANCE__@@I@Z 00406a61 f i nafxcw:appcore.obj
 0001:00005abc       ?LoadStringA@?$CStringT@_WV?$StrTraitMFC@_WV?$ChTraitsCRT@_W@ATL@@@@@ATL@@QAEHI@Z 00406abc f i nafxcw:appcore.obj
 0001:00005ade       ?LoadStringA@?$CStringT@_WV?$StrTraitMFC@_WV?$ChTraitsCRT@_W@ATL@@@@@ATL@@QAEHPAUHINSTANCE__@@I@Z 00406ade f i nafxcw:appcore.obj
 0001:00005b28       ?LoadSysPolicies@CWinApp@@UAEHXZ 00406b28 f   nafxcw:appcore.obj
 0001:00005b2d       ?OnIdle@CWinApp@@UAEHJ@Z   00406b2d f   nafxcw:appcore.obj
 0001:00005ba6       ?PrepareWrite2@?$CSimpleStringT@_W$0A@@ATL@@AAEXH@Z 00406ba6 f i nafxcw:appcore.obj
 0001:00005bfe       ?PrepareWrite@?$CSimpleStringT@_W$0A@@ATL@@AAEPA_WH@Z 00406bfe f i nafxcw:appcore.obj
 0001:00005c36       ?ProcessWndProcException@CWinApp@@UAEJPAVCException@@PBUtagMSG@@@Z 00406c36 f   nafxcw:appcore.obj
 0001:00005cc1       ?Reallocate@?$CSimpleStringT@_W$0A@@ATL@@AAEXH@Z 00406cc1 f i nafxcw:appcore.obj
 0001:00005cf9       ?RegisterWithRestartManager@CWinApp@@UAEJHABV?$CStringT@DV?$StrTraitMFC@DV?$ChTraitsCRT@D@ATL@@@@@ATL@@@Z 00406cf9 f   nafxcw:appcore.obj
 0001:00005efb       ?RegisterWithRestartManager@CWinApp@@UAEJPB_WKP6GKPAX@Z1KK@Z 00406efb f   nafxcw:appcore.obj
 0001:00005f32       ?RestartInstance@CWinApp@@UAEHXZ 00406f32 f   nafxcw:appcore.obj
 0001:00005f64       ?Right@?$CStringT@DV?$StrTraitMFC@DV?$ChTraitsCRT@D@ATL@@@@@ATL@@QBE?AV12@H@Z 00406f64 f i nafxcw:appcore.obj
 0001:00005fb5       ?Run@CWinApp@@UAEHXZ       00406fb5 f   nafxcw:appcore.obj
 0001:00005fd6       ?SaveStdProfileSettings@CWinApp@@IAEXXZ 00406fd6 f   nafxcw:appcore.obj
 0001:00006009       ?SetLength@?$CSimpleStringT@_W$0A@@ATL@@AAEXH@Z 00407009 f i nafxcw:appcore.obj
 0001:00006034       ?SetString@?$CSimpleStringT@D$0A@@ATL@@QAEXPBD@Z 00407034 f i nafxcw:appcore.obj
 0001:0000605d       ?SetString@?$CSimpleStringT@D$0A@@ATL@@QAEXPBDH@Z 0040705d f i nafxcw:appcore.obj
 0001:000060d4       ?WinHelpA@CWinApp@@UAEXKI@Z 004070d4 f   nafxcw:appcore.obj
 0001:00006114       ?WinHelpInternal@CWinApp@@UAEXKI@Z 00407114 f   nafxcw:appcore.obj
 0001:00006224       ?_AfxLoadLangDLLFromList@@YGPAUHINSTANCE__@@PB_W0PA_W@Z 00407224 f   nafxcw:appcore.obj
 0001:0000630f       ?_AtlGetStringResourceImage@ATL@@YAPBUATLSTRINGRESOURCEIMAGE@1@PAUHINSTANCE__@@PAUHRSRC__@@I@Z 0040730f f i nafxcw:appcore.obj
 0001:0000636d       ?_LoadSysPolicies@CWinApp@@IAEHXZ 0040736d f   nafxcw:appcore.obj
 0001:00006438       ?wmemcpy_s@Checked@ATL@@YAXPA_WIPB_WI@Z 00407438 f i nafxcw:appcore.obj
 0001:00006457       ??1CRegKey@ATL@@QAE@XZ     00407457 f i nafxcw:appui3.obj
 0001:0000645c       ?Close@CRegKey@ATL@@QAEJXZ 0040745c f i nafxcw:appui3.obj
 0001:00006476       ?GetAppRegistryKey@CWinApp@@QAEPAUHKEY__@@PAVCAtlTransactionManager@ATL@@@Z 00407476 f   nafxcw:appui3.obj
 0001:00006537       ?GetITaskbarList3@CWinApp@@QAEPAUITaskbarList3@@XZ 00407537 f   nafxcw:appui3.obj
 0001:00006595       ?GetProfileBinary@CWinApp@@UAEHPBD0PAPAEPAI@Z 00407595 f   nafxcw:appui3.obj
 0001:000066c2       ?GetProfileIntA@CWinApp@@UAEIPBD0H@Z 004076c2 f   nafxcw:appui3.obj
 0001:0000672e       ?GetProfileStringA@CWinApp@@UAE?AV?$CStringT@DV?$StrTraitMFC@DV?$ChTraitsCRT@D@ATL@@@@@ATL@@PBD00@Z 0040772e f   nafxcw:appui3.obj
 0001:000068b1       ?GetSectionKey@CWinApp@@QAEPAUHKEY__@@PBDPAVCAtlTransactionManager@ATL@@@Z 004078b1 f   nafxcw:appui3.obj
 0001:00006907       ?IsTaskbarInteractionEnabled@CWinApp@@UAEHXZ 00407907 f   nafxcw:appui3.obj
 0001:0000691b       ?RegCreateKeyExA@CAtlTransactionManager@ATL@@QAEJPAUHKEY__@@PBDKPADKKQAU_SECURITY_ATTRIBUTES@@PAPAU3@PAK@Z 0040791b f i nafxcw:appui3.obj
 0001:0000697e       ?RegOpenKeyExA@CAtlTransactionManager@ATL@@QAEJPAUHKEY__@@PBDKKPAPAU3@@Z 0040797e f i nafxcw:appui3.obj
 0001:000069d5       ?ReleaseTaskBarRefs@CWinApp@@QAEXXZ 004079d5 f   nafxcw:appui3.obj
 0001:00006a0a       ?WriteProfileBinary@CWinApp@@UAEHPBD0PAEI@Z 00407a0a f   nafxcw:appui3.obj
 0001:00006aab       ?WriteProfileInt@CWinApp@@UAEHPBD0H@Z 00407aab f   nafxcw:appui3.obj
 0001:00006b36       ?WriteProfileStringA@CWinApp@@UAEHPBD00@Z 00407b36 f   nafxcw:appui3.obj
 0001:00006bcd       ??HATL@@YA?AV?$CStringT@DV?$StrTraitMFC@DV?$ChTraitsCRT@D@ATL@@@@@0@ABV10@PBD@Z 00407bcd f i nafxcw:appui2.obj
 0001:00006c2c       ??HATL@@YA?AV?$CStringT@DV?$StrTraitMFC@DV?$ChTraitsCRT@D@ATL@@@@@0@PBDABV10@@Z 00407c2c f i nafxcw:appui2.obj
 0001:00006c90       ?AfxDelRegTreeHelper@@YGJPAUHKEY__@@ABV?$CStringT@DV?$StrTraitMFC@DV?$ChTraitsCRT@D@ATL@@@@@ATL@@PAVCAtlTransactionManager@3@@Z 00407c90 f   nafxcw:appui2.obj
 0001:00006e58       ?Concatenate@?$CSimpleStringT@D$0A@@ATL@@KAXAAV12@PBDH1H@Z 00407e58 f i nafxcw:appui2.obj
 0001:00006e9f       ?GetBuffer@?$CSimpleStringT@D$0A@@ATL@@QAEPADXZ 00407e9f f i nafxcw:appui2.obj
 0001:00006eb6       ?GetFirstDocTemplatePosition@CWinApp@@QBEPAU__POSITION@@XZ 00407eb6 f   nafxcw:appui2.obj
 0001:00006ec5       ?GetNextDocTemplate@CWinApp@@QBEPAVCDocTemplate@@AAPAU__POSITION@@@Z 00407ec5 f   nafxcw:appui2.obj
 0001:00006edb       ?RegDeleteKeyA@CAtlTransactionManager@ATL@@QAEJPAUHKEY__@@PBD@Z 00407edb f i nafxcw:appui2.obj
 0001:00006f2d       ?Unregister@CWinApp@@UAEHXZ 00407f2d f   nafxcw:appui2.obj
 0001:000070a5       ??ACRecentFileList@@QAEAAV?$CStringT@DV?$StrTraitMFC@DV?$ChTraitsCRT@D@ATL@@@@@ATL@@H@Z 004080a5 f i nafxcw:appui.obj
 0001:000070c4       ?AddToRecentFileList@CWinApp@@UAEXPBD@Z 004080c4 f   nafxcw:appui.obj
 0001:000070ee       ?CloseAllDocuments@CWinApp@@QAEXH@Z 004080ee f   nafxcw:appui.obj
 0001:00007102       ?DoWaitCursor@CWinApp@@UAEXH@Z 00408102 f   nafxcw:appui.obj
 0001:00007180       ?HideApplication@CWinApp@@QAEXXZ 00408180 f   nafxcw:appui.obj
 0001:000071b2       ?OnAppExit@CWinApp@@IAEXXZ 004081b2 f   nafxcw:appui.obj
 0001:000071c5       ?OnDDECommand@CWinApp@@UAEHPAD@Z 004081c5 f   nafxcw:appui.obj
 0001:000071db       ?OnOpenRecentFile@CWinApp@@IAEHI@Z 004081db f   nafxcw:appui.obj
 0001:00007255       ?OnUpdateRecentFileMenu@CWinApp@@IAEXPAVCCmdUI@@@Z 00408255 f   nafxcw:appui.obj
 0001:00007284       ?OpenDocumentFile@CWinApp@@UAEPAVCDocument@@PBD@Z 00408284 f   nafxcw:appui.obj
 0001:0000729a       ?OpenDocumentFile@CWinApp@@UAEPAVCDocument@@PBDH@Z 0040829a f   nafxcw:appui.obj
 0001:000072b0       ?SaveAllModified@CWinApp@@UAEHXZ 004082b0 f   nafxcw:appui.obj
 0001:000072c0       ?AfxMessageBox@@YGHIII@Z   004082c0 f   nafxcw:appui1.obj
 0001:00007322       ?AfxMessageBox@@YGHPBDII@Z 00408322 f   nafxcw:appui1.obj
 0001:00007351       ?DoEnableModeless@CWinApp@@SAXH@Z 00408351 f   nafxcw:appui1.obj
 0001:00007383       ?DoMessageBox@CWinApp@@UAEHPBDII@Z 00408383 f   nafxcw:appui1.obj
 0001:0000739c       ?EnableModeless@CWinApp@@QAEXH@Z 0040839c f   nafxcw:appui1.obj
 0001:000073ac       ?GetRoutingFrame_@CCmdTarget@@KGPAVCFrameWnd@@XZ 004083ac f   nafxcw:appui1.obj
 0001:000073b8       ?GetSafeOwner_@CWnd@@SGPAUHWND__@@PAU2@PAPAU2@@Z 004083b8 f   nafxcw:appui1.obj
 0001:00007454       ?ShowAppMessageBox@CWinApp@@SAHPAV1@PBDII@Z 00408454 f   nafxcw:appui1.obj
 0001:000075bd       ?OnHelp@CWinApp@@IAEXXZ    004085bd f   nafxcw:apphelpx.obj
 0001:00007604       ??0?$CList@PAVIControlSiteFactory@@PAV1@@@QAE@H@Z 00408604 f i nafxcw:occmgr.obj
 0001:0000762a       ??0CControlSiteFactoryMgr@@QAE@XZ 0040862a f   nafxcw:occmgr.obj
 0001:0000769b       ??1?$CList@PAVIControlSiteFactory@@PAV1@@@UAE@XZ 0040869b f i nafxcw:occmgr.obj
 0001:000076a6       ??1CControlSiteFactoryMgr@@UAE@XZ 004086a6 f   nafxcw:occmgr.obj
 0001:000076ef       ??_G?$CList@PAVIControlSiteFactory@@PAV1@@@UAEPAXI@Z 004086ef f i nafxcw:occmgr.obj
 0001:000076ef       ??_E?$CList@PAVIControlSiteFactory@@PAV1@@@UAEPAXI@Z 004086ef f i nafxcw:occmgr.obj
 0001:00007714       ??_GCControlSiteFactoryMgr@@UAEPAXI@Z 00408714 f i nafxcw:occmgr.obj
 0001:00007714       ??_ECControlSiteFactoryMgr@@UAEPAXI@Z 00408714 f i nafxcw:occmgr.obj
 0001:00007732       ??_ECOccManager@@UAEPAXI@Z 00408732 f i nafxcw:occmgr.obj
 0001:00007732       ??_GCThreadData@@UAEPAXI@Z 00408732 f i nafxcw:afxtls.obj
 0001:00007732       ??_GCOccManager@@UAEPAXI@Z 00408732 f i nafxcw:occmgr.obj
 0001:00007732       ??_E_AFX_COLOR_STATE@@UAEPAXI@Z 00408732 f i nafxcw:dlgclr.obj
 0001:00007732       ??_G_AFX_COLOR_STATE@@UAEPAXI@Z 00408732 f i nafxcw:dlgclr.obj
 0001:00007732       ??_ECThreadData@@UAEPAXI@Z 00408732 f i nafxcw:afxtls.obj
 0001:0000774b       ??_EIControlSiteFactory@@UAEPAXI@Z 0040874b f i nafxcw:occmgr.obj
 0001:0000774b       ??_GCOleControlSiteFactory@@UAEPAXI@Z 0040874b f i nafxcw:occmgr.obj
 0001:0000774b       ??_GIControlSiteFactory@@UAEPAXI@Z 0040874b f i nafxcw:occmgr.obj
 0001:0000774b       ??_ECOleControlSiteFactory@@UAEPAXI@Z 0040874b f i nafxcw:occmgr.obj
 0001:0000776b       ?AfxEnableControlContainer@@YAXPAVCOccManager@@@Z 0040876b f   nafxcw:occmgr.obj
 0001:0000779c       ?BindControls@COccManager@@IAEXPAVCWnd@@@Z 0040879c f   nafxcw:occmgr.obj
 0001:0000789e       ?CreateContainer@COccManager@@UAEPAVCOleControlContainer@@PAVCWnd@@@Z 0040889e f   nafxcw:occmgr.obj
 0001:000078d3       ?CreateDlgControl@COccManager@@IAEHPAVCWnd@@PAUHWND__@@HPAUDLGITEMTEMPLATE@@GPAEKPAPAU3@@Z 004088d3 f   nafxcw:occmgr.obj
 0001:00007c08       ?CreateDlgControls@COccManager@@UAEHPAVCWnd@@PAXPAU_AFX_OCC_DIALOG_INFO@@@Z 00408c08 f   nafxcw:occmgr.obj
 0001:00007d9e       ?CreateDlgControls@COccManager@@UAEHPAVCWnd@@PBDPAU_AFX_OCC_DIALOG_INFO@@@Z 00408d9e f   nafxcw:occmgr.obj
 0001:00007e2a       ?CreateObject@?$CProcessLocal@VCControlSiteFactoryMgr@@@@SGPAVCNoTrackObject@@XZ 00408e2a f i nafxcw:occmgr.obj
 0001:00007e56       ?CreateObject@?$CProcessLocal@VCOccManager@@@@SGPAVCNoTrackObject@@XZ 00408e56 f i nafxcw:occmgr.obj
 0001:00007e6b       ?CreateSite@CControlSiteFactoryMgr@@QAEPAVCOleControlSite@@PAVCOleControlContainer@@ABVCControlCreationInfo@@@Z 00408e6b f   nafxcw:occmgr.obj
 0001:00007e9b       ?CreateSite@COccManager@@UAEPAVCOleControlSite@@PAVCOleControlContainer@@ABVCControlCreationInfo@@@Z 00408e9b f   nafxcw:occmgr.obj
 0001:00007ef0       ?CreateSite@COleControlSiteFactory@@UAEPAVCOleControlSite@@PAVCOleControlContainer@@ABVCControlCreationInfo@@@Z 00408ef0 f i nafxcw:occmgr.obj
 0001:00007f25       ?EnsureRead@CArchive@@QAEXPAXI@Z 00408f25 f i nafxcw:occmgr.obj
 0001:00007f46       ?Find@?$CList@II@@QBEPAU__POSITION@@IPAU2@@Z 00408f46 f i nafxcw:afxtoolbarimages.obj
 0001:00007f46       ?Find@?$CList@PAVIControlSiteFactory@@PAV1@@@QBEPAU__POSITION@@PAVIControlSiteFactory@@PAU2@@Z 00408f46 f i nafxcw:occmgr.obj
 0001:00007f46       ?Find@?$CList@PAUHWND__@@PAU1@@@QBEPAU__POSITION@@PAUHWND__@@PAU2@@Z 00408f46 f i nafxcw:afxtooltipmanager.obj
 0001:00007f78       ?GetHeadPosition@CPtrList@@QBEPAU__POSITION@@XZ 00408f78 f i nafxcw:occmgr.obj
 0001:00007f78       ?Clone@CFixedStringMgr@ATL@@UAEPAUIAtlStringMgr@2@XZ 00408f78 f i nafxcw:olevar.obj
 0001:00007f7c       ?GetNext@?$_CTypedPtrList@VCPtrList@@PAUCOleControlSiteOrWnd@@@@QAEAAPAUCOleControlSiteOrWnd@@AAPAU__POSITION@@@Z 00408f7c f i nafxcw:occmgr.obj
 0001:00007fa3       ?OnEvent@COccManager@@UAEHPAVCCmdTarget@@IPAUAFX_EVENT@@PAUAFX_CMDHANDLERINFO@@@Z 00408fa3 f   nafxcw:occmgr.obj
 0001:00007fbb       ?PostCreateDialog@COccManager@@UAEXPAU_AFX_OCC_DIALOG_INFO@@@Z 00408fbb f   nafxcw:occmgr.obj
 0001:00007ffd       ?PreCreateDialog@COccManager@@UAEPBUDLGTEMPLATE@@PAU_AFX_OCC_DIALOG_INFO@@PBU2@@Z 00408ffd f   nafxcw:occmgr.obj
 0001:00008129       ?RegisterSiteFactory@CControlSiteFactoryMgr@@QAEHPAVIControlSiteFactory@@@Z 00409129 f   nafxcw:occmgr.obj
 0001:0000815d       ?RemoveAll@?$CList@II@@QAEXXZ 0040915d f i nafxcw:afxtoolbarimages.obj
 0001:0000815d       ?RemoveAll@?$CList@UtagPOINT@@U1@@@QAEXXZ 0040915d f i nafxcw:afxvisualmanager.obj
 0001:0000815d       ?RemoveAll@?$CList@PAVCMFCPropertyGridProperty@@PAV1@@@QAEXXZ 0040915d f i nafxcw:afxpropertygridctrl.obj
 0001:0000815d       ?RemoveAll@?$CList@PAVCMDIChildWndEx@@PAV1@@@QAEXXZ 0040915d f i nafxcw:afxmdiclientareawnd.obj
 0001:0000815d       ?RemoveAll@?$CList@PAUHWND__@@AAPAU1@@@QAEXXZ 0040915d f i nafxcw:afxdockingmanager.obj
 0001:0000815d       ?RemoveAll@?$CList@PAVIControlSiteFactory@@PAV1@@@QAEXXZ 0040915d f i nafxcw:occmgr.obj
 0001:0000815d       ?RemoveAll@?$CList@PAVCPropertyPage@@PAV1@@@QAEXXZ 0040915d f i nafxcw:afxtoolbarscustomizedialog.obj
 0001:0000815d       ?RemoveAll@?$CList@PAUHINSTANCE__@@PAU1@@@QAEXXZ 0040915d f i nafxcw:afxtoolbarimages.obj
 0001:0000815d       ?RemoveAll@?$CList@PAVCMFCButton@@PAV1@@@QAEXXZ 0040915d f i nafxcw:afxvslistbox.obj
 0001:0000815d       ?RemoveAll@?$CList@IAAI@@QAEXXZ 0040915d f i nafxcw:afxdockingmanager.obj
 0001:0000815d       ?RemoveAll@?$CList@PAU_ITEMIDLIST@@PAU1@@@QAEXXZ 0040915d f i nafxcw:afxshelltreectrl.obj
 0001:0000815d       ?RemoveAll@?$CList@PAVCFrameWnd@@PAV1@@@QAEXXZ 0040915d f i nafxcw:afxframeimpl.obj
 0001:0000815d       ?RemoveAll@?$CList@PAUHWND__@@PAU1@@@QAEXXZ 0040915d f i nafxcw:winfrm.obj
 0001:0000815d       ?RemoveAll@?$CList@KK@@QAEXXZ 0040915d f i nafxcw:afxcolorbutton.obj
 0001:00008184       ?SplitDialogTemplate@COccManager@@UAEPAUDLGTEMPLATE@@PBU2@PAPAUDLGITEMTEMPLATE@@@Z 00409184 f   nafxcw:occmgr.obj
 0001:000082ef       ?_AfxFindFirstDlgItem@@YGPAUDLGITEMTEMPLATE@@PBUDLGTEMPLATE@@@Z 004092ef f   nafxcw:occmgr.obj
 0001:00008379       ?_AfxFindNextDlgItem@@YGPAUDLGITEMTEMPLATE@@PAU1@H@Z 00409379 f   nafxcw:occmgr.obj
 0001:000083e2       ?memcpy_s@Checked@ATL@@YAXPAXIPBXI@Z 004093e2 f i nafxcw:occmgr.obj
 0001:00008401       ??0AFX_MAINTAIN_STATE2@@QAE@PAVAFX_MODULE_STATE@@@Z 00409401 f   nafxcw:afxstate.obj
 0001:00008406       ??0AFX_MODULE_STATE@@QAE@H@Z 00409406 f   nafxcw:afxstate.obj
 0001:000084ae       ??0AFX_MODULE_THREAD_STATE@@QAE@XZ 004094ae f   nafxcw:afxstate.obj
 0001:000084d8       ??0_AFX_THREAD_STATE@@QAE@XZ 004094d8 f   nafxcw:afxstate.obj
 0001:000084ef       ??1?$CThreadLocal@VAFX_MODULE_THREAD_STATE@@@@QAE@XZ 004094ef f i nafxcw:afxstate.obj
 0001:000084f4       ??1AFX_MODULE_STATE@@UAE@XZ 004094f4 f   nafxcw:afxstate.obj
 0001:00008557       ??1AFX_MODULE_THREAD_STATE@@UAE@XZ 00409557 f   nafxcw:afxstate.obj
 0001:00008603       ??1_AFX_THREAD_STATE@@UAE@XZ 00409603 f   nafxcw:afxstate.obj
 0001:0000863b       ??_EAFX_MODULE_THREAD_STATE@@UAEPAXI@Z 0040963b f i nafxcw:afxstate.obj
 0001:0000863b       ??_GAFX_MODULE_THREAD_STATE@@UAEPAXI@Z 0040963b f i nafxcw:afxstate.obj
 0001:00008659       ??_GAFX_MODULE_STATE@@UAEPAXI@Z 00409659 f i nafxcw:afxstate.obj
 0001:00008659       ??_E_AFX_BASE_MODULE_STATE@@UAEPAXI@Z 00409659 f i nafxcw:afxstate.obj
 0001:00008659       ??_G_AFX_BASE_MODULE_STATE@@UAEPAXI@Z 00409659 f i nafxcw:afxstate.obj
 0001:00008659       ??_EAFX_MODULE_STATE@@UAEPAXI@Z 00409659 f i nafxcw:afxstate.obj
 0001:00008677       ??_E_AFX_THREAD_STATE@@UAEPAXI@Z 00409677 f i nafxcw:afxstate.obj
 0001:00008677       ??_G_AFX_THREAD_STATE@@UAEPAXI@Z 00409677 f i nafxcw:afxstate.obj
 0001:00008695       ?AfxGetModuleState@@YGPAVAFX_MODULE_STATE@@XZ 00409695 f   nafxcw:afxstate.obj
 0001:000086c8       ?AfxGetModuleThreadState@@YGPAVAFX_MODULE_THREAD_STATE@@XZ 004096c8 f   nafxcw:afxstate.obj
 0001:000086e3       ?AfxGetPerUserRegistration@@YGHXZ 004096e3 f   nafxcw:afxstate.obj
 0001:000086e9       ?AfxGetThreadState@@YGPAV_AFX_THREAD_STATE@@XZ 004096e9 f   nafxcw:afxstate.obj
 0001:00008701       ?CreateObject@?$CProcessLocal@V_AFX_BASE_MODULE_STATE@@@@SGPAVCNoTrackObject@@XZ 00409701 f i nafxcw:afxstate.obj
 0001:0000873f       ?Unlock@CTypeLibCache@@QAEXXZ 0040973f f   nafxcw:afxstate.obj
 0001:00008772       ?CreateObject@CDC@@SGPAVCObject@@XZ 00409772 f   nafxcw:wingdi.obj
 0001:00008793       ?CreateObject@CGdiObject@@SGPAVCObject@@XZ 00409793 f   nafxcw:wingdi.obj
 0001:000087ad       ??0CBrush@@QAE@K@Z         004097ad f   nafxcw:wingdi.obj
 0001:000087f0       ??0CClientDC@@QAE@PAVCWnd@@@Z 004097f0 f   nafxcw:wingdi.obj
 0001:00008844       ??0CDC@@QAE@XZ             00409844 f   nafxcw:wingdi.obj
 0001:00008858       ??0CPaintDC@@QAE@PAVCWnd@@@Z 00409858 f   nafxcw:wingdi.obj
 0001:000088ac       ??0CPen@@QAE@HHK@Z         004098ac f   nafxcw:wingdi.obj
 0001:000088f5       ??0CWindowDC@@QAE@PAVCWnd@@@Z 004098f5 f   nafxcw:wingdi.obj
 0001:00008949       ??1CPngImage@@UAE@XZ       00409949 f i nafxcw:afxtoolbarimages.obj
 0001:00008949       ??1CBitmap@@UAE@XZ         00409949 f i nafxcw:wingdi.obj
 0001:00008954       ??1CBrush@@UAE@XZ          00409954 f i nafxcw:wingdi.obj
 0001:0000895f       ??1CClientDC@@UAE@XZ       0040995f f   nafxcw:wingdi.obj
 0001:0000899a       ??1CDC@@UAE@XZ             0040999a f   nafxcw:wingdi.obj
 0001:000089b3       ??1CGdiObject@@UAE@XZ      004099b3 f i nafxcw:wingdi.obj
 0001:00008a7e       ??1CPaintDC@@UAE@XZ        00409a7e f   nafxcw:wingdi.obj
 0001:00008abe       ??1CPen@@UAE@XZ            00409abe f i nafxcw:wingdi.obj
 0001:00008ac9       ??1CWindowDC@@UAE@XZ       00409ac9 f   nafxcw:wingdi.obj
 0001:00008b04       ??3CObject@@SGXPAX0@Z      00409b04 f i nafxcw:wingdi.obj
 0001:00008b14       ??_ECBitmap@@UAEPAXI@Z     00409b14 f i nafxcw:wingdi.obj
 0001:00008b14       ??_GCBitmap@@UAEPAXI@Z     00409b14 f i nafxcw:wingdi.obj
 0001:00008b14       ??_ECPngImage@@UAEPAXI@Z   00409b14 f i nafxcw:afxtoolbarimages.obj
 0001:00008b14       ??_GCPngImage@@UAEPAXI@Z   00409b14 f i nafxcw:afxtoolbarimages.obj
 0001:00008b39       ??_GCBrush@@UAEPAXI@Z      00409b39 f i nafxcw:wingdi.obj
 0001:00008b39       ??_ECBrush@@UAEPAXI@Z      00409b39 f i nafxcw:wingdi.obj
 0001:00008b5e       ??_ECClientDC@@UAEPAXI@Z   00409b5e f i nafxcw:wingdi.obj
 0001:00008b5e       ??_GCClientDC@@UAEPAXI@Z   00409b5e f i nafxcw:wingdi.obj
 0001:00008b7d       ??_GCDC@@UAEPAXI@Z         00409b7d f i nafxcw:wingdi.obj
 0001:00008b7d       ??_ECDC@@UAEPAXI@Z         00409b7d f i nafxcw:wingdi.obj
 0001:00008b9c       ??_ECGdiObject@@UAEPAXI@Z  00409b9c f i nafxcw:wingdi.obj
 0001:00008b9c       ??_GCGdiObject@@UAEPAXI@Z  00409b9c f i nafxcw:wingdi.obj
 0001:00008bbb       ??_GCPaintDC@@UAEPAXI@Z    00409bbb f i nafxcw:wingdi.obj
 0001:00008bbb       ??_ECPaintDC@@UAEPAXI@Z    00409bbb f i nafxcw:wingdi.obj
 0001:00008bda       ??_GCPen@@UAEPAXI@Z        00409bda f i nafxcw:wingdi.obj
 0001:00008bda       ??_ECPen@@UAEPAXI@Z        00409bda f i nafxcw:wingdi.obj
 0001:00008bff       ??_ECWindowDC@@UAEPAXI@Z   00409bff f i nafxcw:wingdi.obj
 0001:00008bff       ??_GCWindowDC@@UAEPAXI@Z   00409bff f i nafxcw:wingdi.obj
 0001:00008c1e       ?AfxGetDitheredBitmap@@YGXABVCBitmap@@PAV1@KK@Z 00409c1e f   nafxcw:wingdi.obj
 0001:00008f1b       ?AfxGetGrayBitmap@@YGXABVCBitmap@@PAV1@K@Z 00409f1b f   nafxcw:wingdi.obj
 0001:000091b1       ?AfxThrowResourceException@@YGXXZ 0040a1b1 f   nafxcw:wingdi.obj
 0001:000091cb       ?AfxThrowUserException@@YGXXZ 0040a1cb f   nafxcw:wingdi.obj
 0001:000091e5       ?Attach@CDC@@QAEHPAUHDC__@@@Z 0040a1e5 f   nafxcw:wingdi.obj
 0001:0000921b       ?Attach@CGdiObject@@QAEHPAX@Z 0040a21b f   nafxcw:wingdi.obj
 0001:00009247       ?BitBlt@CDC@@QAEHHHHHPAV1@HHK@Z 0040a247 f i nafxcw:wingdi.obj
 0001:00009277       ?ClientToScreen@CWnd@@QBEXPAUtagRECT@@@Z 0040a277 f   nafxcw:wingdi.obj
 0001:000092b6       ?Construct@?$ConstructDestruct@VCDC@@@@SGXPAVCObject@@@Z 0040a2b6 f i nafxcw:wingdi.obj
 0001:000092d5       ?Construct@?$ConstructDestruct@VCGdiObject@@@@SGXPAVCObject@@@Z 0040a2d5 f i nafxcw:wingdi.obj
 0001:000092ed       ?CreateCompatibleDC@CDC@@QAEHPAV1@@Z 0040a2ed f i nafxcw:wingdi.obj
 0001:00009311       ?DPtoLP@CDC@@QBEXPAUtagSIZE@@@Z 0040a311 f   nafxcw:wingdi.obj
 0001:0000937c       ?DeleteDC@CDC@@QAEHXZ      0040a37c f   nafxcw:wingdi.obj
 0001:00009392       ?DeleteObject@CGdiObject@@QAEHXZ 0040a392 f   nafxcw:wingdi.obj
 0001:000093a8       ?Destruct@?$ConstructDestruct@VCMenu@@@@SGXPAVCObject@@@Z 0040a3a8 f i nafxcw:winmenu.obj
 0001:000093a8       ?Destruct@?$ConstructDestruct@VCWnd@@@@SGXPAVCObject@@@Z 0040a3a8 f i nafxcw:wincore.obj
 0001:000093a8       ?Destruct@?$ConstructDestruct@VCImageList@@@@SGXPAVCObject@@@Z 0040a3a8 f i nafxcw:winctrl2.obj
 0001:000093a8       ?Destruct@?$ConstructDestruct@VCGdiObject@@@@SGXPAVCObject@@@Z 0040a3a8 f i nafxcw:wingdi.obj
 0001:000093a8       ?Destruct@?$ConstructDestruct@VCDC@@@@SGXPAVCObject@@@Z 0040a3a8 f i nafxcw:wingdi.obj
 0001:000093b9       ?Detach@CDC@@QAEPAUHDC__@@XZ 0040a3b9 f   nafxcw:wingdi.obj
 0001:000093ea       ?Detach@CGdiObject@@QAEPAXXZ 0040a3ea f   nafxcw:wingdi.obj
 0001:00009414       ?DrawTextA@CDC@@UAEHPBDHPAUtagRECT@@I@Z 0040a414 f i nafxcw:wingdi.obj
 0001:00009430       ?DrawTextExA@CDC@@UAEHPADHPAUtagRECT@@IPAUtagDRAWTEXTPARAMS@@@Z 0040a430 f i nafxcw:wingdi.obj
 0001:0000944f       ?Escape@CDC@@UAEHHHPBDPAX@Z 0040a44f f i nafxcw:wingdi.obj
 0001:0000946b       ?ExcludeClipRect@CDC@@QAEHPBUtagRECT@@@Z 0040a46b f   nafxcw:wingdi.obj
 0001:000094b1       ?ExtTextOutA@CDC@@UAEHHHIPBUtagRECT@@PBDIPAH@Z 0040a4b1 f i nafxcw:wingdi.obj
 0001:000094d6       ?FillRect@CDC@@QAEXPBUtagRECT@@PAVCBrush@@@Z 0040a4d6 f i nafxcw:wingdi.obj
 0001:000094f4       ?FromHandle@CDC@@SGPAV1@PAUHDC__@@@Z 0040a4f4 f   nafxcw:wingdi.obj
 0001:00009506       ?FromHandle@CGdiObject@@SGPAV1@PAX@Z 0040a506 f   nafxcw:wingdi.obj
 0001:00009518       ?GetClipBox@CDC@@UBEHPAUtagRECT@@@Z 0040a518 f   nafxcw:wingdi.obj
 0001:0000952b       ?GetLayout@CDC@@QBEKXZ     0040a52b f   nafxcw:wingdi.obj
 0001:00009535       ?GetRuntimeClass@CBitmap@@UBEPAUCRuntimeClass@@XZ 0040a535 f   nafxcw:wingdi.obj
 0001:0000953b       ?GetRuntimeClass@CBrush@@UBEPAUCRuntimeClass@@XZ 0040a53b f   nafxcw:wingdi.obj
 0001:00009541       ?GetRuntimeClass@CClientDC@@UBEPAUCRuntimeClass@@XZ 0040a541 f   nafxcw:wingdi.obj
 0001:00009547       ?GetRuntimeClass@CDC@@UBEPAUCRuntimeClass@@XZ 0040a547 f   nafxcw:wingdi.obj
 0001:0000954d       ?GetRuntimeClass@CFont@@UBEPAUCRuntimeClass@@XZ 0040a54d f   nafxcw:wingdi.obj
 0001:00009553       ?GetRuntimeClass@CGdiObject@@UBEPAUCRuntimeClass@@XZ 0040a553 f   nafxcw:wingdi.obj
 0001:00009559       ?GetRuntimeClass@CPaintDC@@UBEPAUCRuntimeClass@@XZ 0040a559 f   nafxcw:wingdi.obj
 0001:0000955f       ?GetRuntimeClass@CPalette@@UBEPAUCRuntimeClass@@XZ 0040a55f f   nafxcw:wingdi.obj
 0001:00009565       ?GetRuntimeClass@CPen@@UBEPAUCRuntimeClass@@XZ 0040a565 f   nafxcw:wingdi.obj
 0001:0000956b       ?GetRuntimeClass@CResourceException@@UBEPAUCRuntimeClass@@XZ 0040a56b f   nafxcw:wingdi.obj
 0001:00009571       ?GetRuntimeClass@CRgn@@UBEPAUCRuntimeClass@@XZ 0040a571 f   nafxcw:wingdi.obj
 0001:00009577       ?GetRuntimeClass@CUserException@@UBEPAUCRuntimeClass@@XZ 0040a577 f   nafxcw:wingdi.obj
 0001:0000957d       ?GetRuntimeClass@CWindowDC@@UBEPAUCRuntimeClass@@XZ 0040a57d f   nafxcw:wingdi.obj
 0001:00009583       ?GetViewportExt@CDC@@QBE?AVCSize@@XZ 0040a583 f i nafxcw:wingdi.obj
 0001:000095a9       ?GetWindowExt@CDC@@QBE?AVCSize@@XZ 0040a5a9 f i nafxcw:wingdi.obj
 0001:000095cf       ?GrayStringA@CDC@@UAEHPAVCBrush@@P6GHPAUHDC__@@JH@ZJHHHHH@Z 0040a5cf f i nafxcw:wingdi.obj
 0001:000095ff       ?IntersectClipRect@CDC@@QAEHPBUtagRECT@@@Z 0040a5ff f   nafxcw:wingdi.obj
 0001:00009645       ?LPtoDP@CDC@@QBEXPAUtagSIZE@@@Z 0040a645 f   nafxcw:wingdi.obj
 0001:000096b0       ?LineTo@CDC@@QAEHHH@Z      0040a6b0 f   nafxcw:wingdi.obj
 0001:000096e5       ?MoveTo@CDC@@QAE?AVCPoint@@HH@Z 0040a6e5 f   nafxcw:wingdi.obj
 0001:0000972a       ?OffsetViewportOrg@CDC@@UAE?AVCPoint@@HH@Z 0040a72a f   nafxcw:wingdi.obj
 0001:0000976f       ?OffsetWindowOrg@CDC@@QAE?AVCPoint@@HH@Z 0040a76f f   nafxcw:wingdi.obj
 0001:000097b4       ?PtVisible@CDC@@UBEHHH@Z   0040a7b4 f i nafxcw:wingdi.obj
 0001:000097ca       ?RectVisible@CDC@@UBEHPBUtagRECT@@@Z 0040a7ca f i nafxcw:wingdi.obj
 0001:000097dd       ?ReleaseAttribDC@CDC@@UAEXXZ 0040a7dd f   nafxcw:wingdi.obj
 0001:000097e2       ?ReleaseOutputDC@CDC@@UAEXXZ 0040a7e2 f   nafxcw:wingdi.obj
 0001:000097e7       ?RestoreDC@CDC@@UAEHH@Z    0040a7e7 f   nafxcw:wingdi.obj
 0001:00009828       ?SaveDC@CDC@@UAEHXZ        0040a828 f   nafxcw:wingdi.obj
 0001:00009859       ?ScaleViewportExt@CDC@@UAE?AVCSize@@HHHH@Z 0040a859 f   nafxcw:wingdi.obj
 0001:000098aa       ?ScaleWindowExt@CDC@@UAE?AVCSize@@HHHH@Z 0040a8aa f   nafxcw:wingdi.obj
 0001:000098fb       ?ScreenToClient@CWnd@@QBEXPAUtagRECT@@@Z 0040a8fb f   nafxcw:wingdi.obj
 0001:0000993a       ?SelectClipRgn@CDC@@QAEHPAVCRgn@@@Z 0040a93a f   nafxcw:wingdi.obj
 0001:0000997d       ?SelectClipRgn@CDC@@QAEHPAVCRgn@@H@Z 0040a97d f   nafxcw:wingdi.obj
 0001:000099c6       ?SelectGdiObject@CDC@@KGPAVCGdiObject@@PAUHDC__@@PAX@Z 0040a9c6 f   nafxcw:wingdi.obj
 0001:000099df       ?SelectObject@CDC@@QAEHPAVCRgn@@@Z 0040a9df f   nafxcw:wingdi.obj
 0001:00009a25       ?SelectObject@CDC@@QAEPAVCBrush@@PAV2@@Z 0040aa25 f   nafxcw:wingdi.obj
 0001:00009a25       ?SelectObject@CDC@@UAEPAVCFont@@PAV2@@Z 0040aa25 f   nafxcw:wingdi.obj
 0001:00009a25       ?SelectObject@CDC@@QAEPAVCPen@@PAV2@@Z 0040aa25 f   nafxcw:wingdi.obj
 0001:00009a6e       ?SelectPalette@CDC@@QAEPAVCPalette@@PAV2@H@Z 0040aa6e f   nafxcw:wingdi.obj
 0001:00009a92       ?SelectStockObject@CDC@@UAEPAVCGdiObject@@H@Z 0040aa92 f   nafxcw:wingdi.obj
 0001:00009ad2       ?SetBkColor@CDC@@UAEKK@Z   0040aad2 f   nafxcw:wingdi.obj
 0001:00009b04       ?SetBkMode@CDC@@QAEHH@Z    0040ab04 f   nafxcw:wingdi.obj
 0001:00009b35       ?SetLayout@CDC@@QAEKK@Z    0040ab35 f   nafxcw:wingdi.obj
 0001:00009b48       ?SetMapMode@CDC@@UAEHH@Z   0040ab48 f   nafxcw:wingdi.obj
 0001:00009b79       ?SetOutputDC@CDC@@UAEXPAUHDC__@@@Z 0040ab79 f   nafxcw:wingdi.obj
 0001:00009b86       ?SetPolyFillMode@CDC@@QAEHH@Z 0040ab86 f   nafxcw:wingdi.obj
 0001:00009bb7       ?SetROP2@CDC@@QAEHH@Z      0040abb7 f   nafxcw:wingdi.obj
 0001:00009be8       ?SetTextAlign@CDC@@QAEII@Z 0040abe8 f   nafxcw:wingdi.obj
 0001:00009c20       ?SetTextColor@CDC@@UAEKK@Z 0040ac20 f   nafxcw:wingdi.obj
 0001:00009c52       ?SetViewportExt@CDC@@UAE?AVCSize@@HH@Z 0040ac52 f   nafxcw:wingdi.obj
 0001:00009c97       ?SetViewportOrg@CDC@@UAE?AVCPoint@@HH@Z 0040ac97 f   nafxcw:wingdi.obj
 0001:00009cdc       ?SetWindowExt@CDC@@UAE?AVCSize@@HH@Z 0040acdc f   nafxcw:wingdi.obj
 0001:00009d21       ?SetWindowOrg@CDC@@QAE?AVCPoint@@HH@Z 0040ad21 f   nafxcw:wingdi.obj
 0001:00009d66       ?TabbedTextOutA@CDC@@UAE?AVCSize@@HHPBDHHPAHH@Z 0040ad66 f i nafxcw:wingdi.obj
 0001:00009d9e       ?TextOutA@CDC@@UAEHHHPBDH@Z 0040ad9e f i nafxcw:wingdi.obj
 0001:00009dba       ?afxMapHDC@@YGPAVCHandleMap@@H@Z 0040adba f   nafxcw:wingdi.obj
 0001:00009e2b       ?afxMapHGDIOBJ@@YGPAVCHandleMap@@H@Z 0040ae2b f   nafxcw:wingdi.obj
 0001:00009e9c       ?DDX_Control@@YGXPAVCDataExchange@@HAAVCWnd@@@Z 0040ae9c f   nafxcw:wincore2.obj
 0001:00009f58       ?ExecuteDlgInit@CWnd@@QAEHPAX@Z 0040af58 f   nafxcw:wincore2.obj
 0001:0000a08b       ?CreateObject@CWnd@@SGPAVCObject@@XZ 0040b08b f   nafxcw:wincore.obj
 0001:0000a0b8       ??$AccessibilityCreateInstance@VCAccessibleProxy@ATL@@@@YGJPAPAV?$CComObjectNoLock@VCAccessibleProxy@ATL@@@ATL@@@Z 0040b0b8 f i nafxcw:wincore.obj
 0001:0000a140       ??$HashKey@PAVCWnd@@@@YGIPAVCWnd@@@Z 0040b140 f i nafxcw:wincore.obj
 0001:0000a140       ??$HashKey@PAVCDocument@@@@YGIPAVCDocument@@@Z 0040b140 f i nafxcw:afxdatarecovery.obj
 0001:0000a140       ??$HashKey@H@@YGIH@Z       0040b140 f i nafxcw:afxvslistbox.obj
 0001:0000a140       ??$HashKey@K@@YGIK@Z       0040b140 f i nafxcw:map_pp.obj
 0001:0000a140       ??$HashKey@PAUHICON__@@@@YGIPAUHICON__@@@Z 0040b140 f i nafxcw:afxbasetabctrl.obj
 0001:0000a140       ??$HashKey@I@@YGII@Z       0040b140 f i nafxcw:afxtoolbarimages.obj
 0001:0000a140       ??$HashKey@PAUHWND__@@@@YGIPAUHWND__@@@Z 0040b140 f i nafxcw:afxvisualmanageroffice2007.obj
 0001:0000a16e       ??0CCriticalSection@@QAE@XZ 0040b16e f i nafxcw:wincore.obj
 0001:0000a1a9       ??0CTestCmdUI@@QAE@XZ      0040b1a9 f   nafxcw:wincore.obj
 0001:0000a1c2       ??0CWnd@@AAE@PAUHWND__@@@Z 0040b1c2 f   nafxcw:wincore.obj
 0001:0000a22b       ??0CWnd@@QAE@XZ            0040b22b f   nafxcw:wincore.obj
 0001:0000a28e       ??1?$CComObjectNoLock@VCAccessibleProxy@ATL@@@ATL@@UAE@XZ 0040b28e f i nafxcw:wincore.obj
 0001:0000a2b9       ??1CCriticalSection@@UAE@XZ 0040b2b9 f i nafxcw:wincore.obj
 0001:0000a2d4       ??1CInternalGlobalLock@@QAE@XZ 0040b2d4 f i nafxcw:wincore.obj
 0001:0000a2d9       ??1CWaitCursor@@QAE@XZ     0040b2d9 f i nafxcw:wincore.obj
 0001:0000a3ac       ??1CWnd@@UAE@XZ            0040b3ac f   nafxcw:wincore.obj
 0001:0000a43e       ??1_AFX_HTMLHELP_STATE@@UAE@XZ 0040b43e f   nafxcw:wincore.obj
 0001:0000a454       ??_G?$CComObjectNoLock@VCAccessibleProxy@ATL@@@ATL@@UAEPAXI@Z 0040b454 f i nafxcw:wincore.obj
 0001:0000a454       ??_E?$CComObjectNoLock@VCAccessibleProxy@ATL@@@ATL@@UAEPAXI@Z 0040b454 f i nafxcw:wincore.obj
 0001:0000a473       ??_G?$CMap@PAVCWnd@@PAV1@PAVCHwndRenderTarget@@PAV2@@@UAEPAXI@Z 0040b473 f i nafxcw:wincore.obj
 0001:0000a473       ??_E?$CMap@PAVCWnd@@PAV1@PAVCHwndRenderTarget@@PAV2@@@UAEPAXI@Z 0040b473 f i nafxcw:wincore.obj
 0001:0000a498       ??_GCCriticalSection@@UAEPAXI@Z 0040b498 f i nafxcw:wincore.obj
 0001:0000a498       ??_ECCriticalSection@@UAEPAXI@Z 0040b498 f i nafxcw:wincore.obj
 0001:0000a4b7       ??_ECWnd@@UAEPAXI@Z        0040b4b7 f i nafxcw:wincore.obj
 0001:0000a4b7       ??_GCWnd@@UAEPAXI@Z        0040b4b7 f i nafxcw:wincore.obj
 0001:0000a4d6       ??_G_AFX_HTMLHELP_STATE@@UAEPAXI@Z 0040b4d6 f i nafxcw:wincore.obj
 0001:0000a4d6       ??_E_AFX_HTMLHELP_STATE@@UAEPAXI@Z 0040b4d6 f i nafxcw:wincore.obj
 0001:0000a4f4       ?ActivateTopParent@CWnd@@QAEXXZ 0040b4f4 f   nafxcw:wincore.obj
 0001:0000a53b       ?AddRef@?$CComObjectNoLock@VCAccessibleProxy@ATL@@@ATL@@UAGKXZ 0040b53b f i nafxcw:wincore.obj
 0001:0000a54b       ?AddRef@?$CComObjectNoLock@VCAccessibleProxy@ATL@@@ATL@@W3AGKXZ 0040b54b f i nafxcw:wincore.obj
 0001:0000a555       ?AddRef@?$CComObjectNoLock@VCAccessibleProxy@ATL@@@ATL@@WBA@AGKXZ 0040b555 f i nafxcw:wincore.obj
 0001:0000a55f       ?AddRef@XAccessible@CWnd@@UAGKXZ 0040b55f f   nafxcw:wincore.obj
 0001:0000a59d       ?AddRef@XAccessibleServer@CWnd@@UAGKXZ 0040b59d f   nafxcw:wincore.obj
 0001:0000a5db       ?AfxCallWndProc@@YGJPAVCWnd@@PAUHWND__@@IIJ@Z 0040b5db f   nafxcw:wincore.obj
 0001:0000a6e1       ?AfxEndDeferRegisterClass@@YGHJ@Z 0040b6e1 f   nafxcw:wincore.obj
 0001:0000a9d0       ?AfxFindMessageEntry@@YGPBUAFX_MSGMAP_ENTRY@@PBU1@III@Z 0040b9d0 f   nafxcw:wincore.obj
 0001:0000aa10       ?AfxGetParentOwner@@YGPAUHWND__@@PAU1@@Z 0040ba10 f   nafxcw:wincore.obj
 0001:0000aa57       ?AfxHookWindowCreate@@YGXPAVCWnd@@@Z 0040ba57 f   nafxcw:wincore.obj
 0001:0000aab0       ?AfxHtmlHelp@@YGPAUHWND__@@PAU1@PBDIK@Z 0040bab0 f   nafxcw:wincore.obj
 0001:0000ab2f       ?AfxRegisterClass@@YGHPAUtagWNDCLASSA@@@Z 0040bb2f f   nafxcw:wincore.obj
 0001:0000abb9       ?AfxRegisterWndClass@@YGPBDIPAUHICON__@@PAUHBRUSH__@@0@Z 0040bbb9 f   nafxcw:wincore.obj
 0001:0000acbf       ?AfxRepositionWindow@@YGXPAUAFX_SIZEPARENTPARAMS@@PAUHWND__@@PBUtagRECT@@@Z 0040bcbf f   nafxcw:wincore.obj
 0001:0000ad72       ?AfxUnhookWindowCreate@@YGHXZ 0040bd72 f   nafxcw:wincore.obj
 0001:0000adbf       ?AfxWndProc@@YGJPAUHWND__@@IIJ@Z 0040bdbf f   nafxcw:wincore.obj
 0001:0000ae0a       ?AllocSysString@?$CStringT@DV?$StrTraitMFC@DV?$ChTraitsCRT@D@ATL@@@@@ATL@@QBEPA_WXZ 0040be0a f i nafxcw:wincore.obj
 0001:0000ae20       ?AllocSysString@?$ChTraitsCRT@D@ATL@@SAPA_WPBDH@Z 0040be20 f i nafxcw:wincore.obj
 0001:0000ae60       ?AppendChar@?$CSimpleStringT@D$0A@@ATL@@QAEXD@Z 0040be60 f i nafxcw:wincore.obj
 0001:0000ae8b       ?AtlIAccessibleGetIDsOfNamesHelper@ATL@@YGJABU_GUID@@PAPA_WIKPAJ@Z 0040be8b f i nafxcw:wincore.obj
 0001:0000aefd       ?AtlIAccessibleInvokeHelper@ATL@@YGJPAUIAccessible@@JABU_GUID@@KGPAUtagDISPPARAMS@@PAUtagVARIANT@@PAUtagEXCEPINFO@@PAI@Z 0040befd f i nafxcw:wincore.obj
 0001:0000b515       ?AtlInternalQueryInterface@ATL@@YGJPAXPBU_ATL_INTMAP_ENTRY@1@ABU_GUID@@PAPAX@Z 0040c515 f i nafxcw:wincore.obj
 0001:0000b5b5       ?AtlLoadSystemLibraryUsingFullPath@ATL@@YAPAUHINSTANCE__@@PB_W@Z 0040c5b5 f i nafxcw:wincore.obj
 0001:0000b69f       ?Attach@CWnd@@QAEHPAUHWND__@@@Z 0040c69f f   nafxcw:wincore.obj
 0001:0000b6db       ?CalcWindowRect@CWnd@@UAEXPAUtagRECT@@I@Z 0040c6db f   nafxcw:wincore.obj
 0001:0000b70a       ?CancelToolTips@CWnd@@SGXH@Z 0040c70a f   nafxcw:wincore.obj
 0001:0000b75f       ?CenterWindow@CWnd@@QAEXPAV1@@Z 0040c75f f   nafxcw:wincore.obj
 0001:0000b95c       ?Construct@?$ConstructDestruct@VCWnd@@@@SGXPAVCObject@@@Z 0040c95c f i nafxcw:wincore.obj
 0001:0000b983       ?ContinueModal@CWnd@@UAEHXZ 0040c983 f   nafxcw:wincore.obj
 0001:0000b98a       ?Create@CWnd@@UAEHPBD0KABUtagRECT@@PAV1@IPAUCCreateContext@@@Z 0040c98a f   nafxcw:wincore.obj
 0001:0000b9d3       ?CreateAccessibleProxy@CWnd@@UAEJIJPAJ@Z 0040c9d3 f   nafxcw:wincore.obj
 0001:0000ba91       ?CreateControlContainer@CWnd@@MAEHPAPAVCOleControlContainer@@@Z 0040ca91 f   nafxcw:wincore.obj
 0001:0000baab       ?CreateControlSite@CWnd@@MAEHPAVCOleControlContainer@@PAPAVCOleControlSite@@IABU_GUID@@@Z 0040caab f   nafxcw:wincore.obj
 0001:0000bac5       ?CreateEx@CWnd@@UAEHKPBD0KABUtagRECT@@PAV1@IPAX@Z 0040cac5 f   nafxcw:wincore.obj
 0001:0000bb09       ?CreateEx@CWnd@@UAEHKPBD0KHHHHPAUHWND__@@PAUHMENU__@@PAX@Z 0040cb09 f   nafxcw:wincore.obj
 0001:0000bbea       ?CreateObject@?$CProcessLocal@V_AFX_HTMLHELP_STATE@@@@SGPAVCNoTrackObject@@XZ 0040cbea f i nafxcw:wincore.obj
 0001:0000bbff       ?DefWindowProcA@CWnd@@MAEJIIJ@Z 0040cbff f   nafxcw:wincore.obj
 0001:0000bc4a       ?Default@CWnd@@IAEJXZ      0040cc4a f   nafxcw:wincore.obj
 0001:0000bc7d       ?DestroyWindow@CWnd@@UAEHXZ 0040cc7d f   nafxcw:wincore.obj
 0001:0000bcd6       ?Detach@CWnd@@QAEPAUHWND__@@XZ 0040ccd6 f   nafxcw:wincore.obj
 0001:0000bd04       ?DoD2DPaint@CWnd@@IAEHXZ   0040cd04 f   nafxcw:wincore.obj
 0001:0000bd9f       ?EnableScrollBarCtrl@CWnd@@QAEXHH@Z 0040cd9f f   nafxcw:wincore.obj
 0001:0000bde3       ?EndModalLoop@CWnd@@UAEXH@Z 0040cde3 f   nafxcw:wincore.obj
 0001:0000be0b       ?EnsureStdObj@CWnd@@UAEJXZ 0040ce0b f   nafxcw:wincore.obj
 0001:0000be2a       ?ExecuteDlgInit@CWnd@@QAEHPBD@Z 0040ce2a f   nafxcw:wincore.obj
 0001:0000be94       ?FromHandle@CWnd@@SGPAV1@PAUHWND__@@@Z 0040ce94 f   nafxcw:wincore.obj
 0001:0000bebe       ?FromHandlePermanent@CWnd@@SGPAV1@PAUHWND__@@@Z 0040cebe f   nafxcw:wincore.obj
 0001:0000bee2       ?GetControlContainer@CWnd@@QAEPAVCOleControlContainer@@XZ 0040cee2 f   nafxcw:wincore.obj
 0001:0000bee6       ?GetCurrentMessage@CWnd@@KGPBUtagMSG@@XZ 0040cee6 f   nafxcw:wincore.obj
 0001:0000bf23       ?GetDescendantWindow@CWnd@@SGPAV1@PAUHWND__@@HH@Z 0040cf23 f   nafxcw:wincore.obj
 0001:0000bf9a       ?GetDlgItemTextA@CWnd@@QBEHHAAV?$CStringT@DV?$StrTraitMFC@DV?$ChTraitsCRT@D@ATL@@@@@ATL@@@Z 0040cf9a f   nafxcw:wincore.obj
 0001:0000c00c       ?GetEnumVariant@XAccessibleServer@CWnd@@UAGJPAPAUIEnumVARIANT@@@Z 0040d00c f   nafxcw:wincore.obj
 0001:0000c029       ?GetHWND@XAccessibleServer@CWnd@@UAGJPAPAUHWND__@@@Z 0040d029 f   nafxcw:wincore.obj
 0001:0000c05f       ?GetIDsOfNames@?$IAccessibleProxyImpl@VCAccessibleProxy@ATL@@@ATL@@UAGJABU_GUID@@PAPA_WIKPAJ@Z 0040d05f f i nafxcw:wincore.obj
 0001:0000c08c       ?GetIDsOfNames@XAccessible@CWnd@@UAGJABU_GUID@@PAPA_WIKPAJ@Z 0040d08c f   nafxcw:wincore.obj
 0001:0000c0a7       ?GetInterfaceMap@CWnd@@MBEPBUAFX_INTERFACEMAP@@XZ 0040d0a7 f   nafxcw:wincore.obj
 0001:0000c0ad       ?GetMenu@CWnd@@UBEPAVCMenu@@XZ 0040d0ad f   nafxcw:wincore.obj
 0001:0000c0bd       ?GetOwner@CWnd@@QBEPAV1@XZ 0040d0bd f i nafxcw:wincore.obj
 0001:0000c0d8       ?GetParentFrame@CWnd@@QBEPAVCFrameWnd@@XZ 0040d0d8 f   nafxcw:wincore.obj
 0001:0000c113       ?GetParentOwner@CWnd@@QBEPAV1@XZ 0040d113 f   nafxcw:wincore.obj
 0001:0000c157       ?GetRuntimeClass@CWnd@@UBEPAUCRuntimeClass@@XZ 0040d157 f   nafxcw:wincore.obj
 0001:0000c15d       ?GetSafeOwner@CWnd@@SGPAV1@PAV1@PAPAUHWND__@@@Z 0040d15d f   nafxcw:wincore.obj
 0001:0000c17d       ?GetScrollInfo@CWnd@@QAEHHPAUtagSCROLLINFO@@I@Z 0040d17d f   nafxcw:wincore.obj
 0001:0000c1bb       ?GetScrollLimit@CWnd@@QAEHH@Z 0040d1bb f   nafxcw:wincore.obj
 0001:0000c218       ?GetScrollPos@CWnd@@QBEHH@Z 0040d218 f   nafxcw:wincore.obj
 0001:0000c242       ?GetScrollRange@CWnd@@QBEXHPAH0@Z 0040d242 f   nafxcw:wincore.obj
 0001:0000c272       ?GetSuperWndProcAddr@CWnd@@MAEPAP6GJPAUHWND__@@IIJ@ZXZ 0040d272 f   nafxcw:wincore.obj
 0001:0000c276       ?GetMessageMap@CWnd@@MBEPBUAFX_MSGMAP@@XZ 0040d276 f   nafxcw:wincore.obj
 0001:0000c276       ?GetThisMessageMap@CWnd@@KGPBUAFX_MSGMAP@@XZ 0040d276 f   nafxcw:wincore.obj
 0001:0000c27c       ?GetTopLevelFrame@CWnd@@QBEPAVCFrameWnd@@XZ 0040d27c f   nafxcw:wincore.obj
 0001:0000c2bb       ?GetTopLevelParent@CWnd@@QBEPAV1@XZ 0040d2bb f   nafxcw:wincore.obj
 0001:0000c2e2       ?GetTypeInfo@?$IAccessibleProxyImpl@VCAccessibleProxy@ATL@@@ATL@@UAGJIKPAPAUITypeInfo@@@Z 0040d2e2 f i nafxcw:wincore.obj
 0001:0000c309       ?GetTypeInfoCount@?$IAccessibleProxyImpl@VCAccessibleProxy@ATL@@@ATL@@UAGJPAI@Z 0040d309 f i nafxcw:wincore.obj
 0001:0000c32a       ?GetTypeInfoCount@XAccessible@CWnd@@UAGJPAI@Z 0040d32a f   nafxcw:wincore.obj
 0001:0000c347       ?GetWindowPlacement@CWnd@@QBEHPAUtagWINDOWPLACEMENT@@@Z 0040d347 f   nafxcw:wincore.obj
 0001:0000c361       ?GetWindowTextA@CWnd@@QBEXAAV?$CStringT@DV?$StrTraitMFC@DV?$ChTraitsCRT@D@ATL@@@@@ATL@@@Z 0040d361 f   nafxcw:wincore.obj
 0001:0000c3a7       ?GrayCtlColor@CWnd@@SGHPAUHDC__@@PAUHWND__@@IPAUHBRUSH__@@K@Z 0040d3a7 f   nafxcw:wincore.obj
 0001:0000c433       ?HandleFloatingSysCommand@CWnd@@QAEHIJ@Z 0040d433 f   nafxcw:wincore.obj
 0001:0000c4e9       ?HtmlHelpA@CWnd@@UAEXKI@Z  0040d4e9 f   nafxcw:wincore.obj
 0001:0000c55d       ?Init@CCriticalSection@@AAEJXZ 0040d55d f i nafxcw:wincore.obj
 0001:0000c583       ?InlineIsEqualUnknown@ATL@@YGHABU_GUID@@@Z 0040d583 f i nafxcw:wincore.obj
 0001:0000c5ab       ?Invoke@?$IAccessibleProxyImpl@VCAccessibleProxy@ATL@@@ATL@@UAGJJABU_GUID@@KGPAUtagDISPPARAMS@@PAUtagVARIANT@@PAUtagEXCEPINFO@@PAI@Z 0040d5ab f i nafxcw:wincore.obj
 0001:0000c5e1       ?Invoke@XAccessible@CWnd@@UAGJJABU_GUID@@KGPAUtagDISPPARAMS@@PAUtagVARIANT@@PAUtagEXCEPINFO@@PAI@Z 0040d5e1 f   nafxcw:wincore.obj
 0001:0000c635       ?IsTopParentActive@CWnd@@QBEHXZ 0040d635 f   nafxcw:wincore.obj
 0001:0000c671       ?IsTracking@CFrameWnd@@QAEHXZ 0040d671 f   nafxcw:wincore.obj
 0001:0000c692       ?Lock@CCriticalSection@@UAEHK@Z 0040d692 f i nafxcw:wincore.obj
 0001:0000c6a2       ?Lock@CInternalGlobalLock@@QAEXH@Z 0040d6a2 f i nafxcw:wincore.obj
 0001:0000c6d1       ?LockRenderTarget@CWnd@@QAEPAVCHwndRenderTarget@@XZ 0040d6d1 f   nafxcw:wincore.obj
 0001:0000c702       ?Lookup@?$CMap@IIPAVCPane@@PAV1@@@QBEHIAAPAVCPane@@@Z 0040d702 f i nafxcw:afxdockingmanager.obj
 0001:0000c702       ?Lookup@?$CMap@IIHH@@QBEHIAAH@Z 0040d702 f i nafxcw:afxtoolbarimages.obj
 0001:0000c702       ?Lookup@?$CMap@PAUHICON__@@PAU1@HH@@QBEHPAUHICON__@@AAH@Z 0040d702 f i nafxcw:afxmdiclientareawnd.obj
 0001:0000c702       ?Lookup@?$CMap@IIII@@QBEHIAAI@Z 0040d702 f i nafxcw:afxpopupmenubar.obj
 0001:0000c702       ?Lookup@?$CMap@PAUHWND__@@PAU1@HH@@QBEHPAUHWND__@@AAH@Z 0040d702 f i nafxcw:afxvisualmanageroffice2007.obj
 0001:0000c702       ?Lookup@?$CMap@IIPAUHICON__@@PAU1@@@QBEHIAAPAUHICON__@@@Z 0040d702 f i nafxcw:afxtabctrl.obj
 0001:0000c702       ?Lookup@?$CMap@PAVCWnd@@PAV1@PAVCHwndRenderTarget@@PAV2@@@QBEHPAVCWnd@@AAPAVCHwndRenderTarget@@@Z 0040d702 f i nafxcw:wincore.obj
 0001:0000c702       ?Lookup@?$CMap@HHHH@@QBEHHAAH@Z 0040d702 f i nafxcw:afxheaderctrl.obj
 0001:0000c702       ?Lookup@?$CMap@HHII@@QBEHHAAI@Z 0040d702 f i nafxcw:afxvslistbox.obj
 0001:0000c702       ?Lookup@?$CMap@PAVCWnd@@PAV1@PAVCImageList@@PAV2@@@QBEHPAVCWnd@@AAPAVCImageList@@@Z 0040d702 f i nafxcw:afxmdiclientareawnd.obj
 0001:0000c702       ?Lookup@?$CMap@IIPAUHWND__@@PAU1@@@QBEHIAAPAUHWND__@@@Z 0040d702 f i nafxcw:afxpaneframewnd.obj
 0001:0000c72c       ?MessageBoxA@CWnd@@QAEHPBD0I@Z 0040d72c f   nafxcw:wincore.obj
 0001:0000c75f       ?ModifyStyle@CWnd@@SGHPAUHWND__@@KKI@Z 0040d75f f   nafxcw:wincore.obj
 0001:0000c779       ?ModifyStyleEx@CWnd@@SGHPAUHWND__@@KKI@Z 0040d779 f   nafxcw:wincore.obj
 0001:0000c793       ?OnActivateTopLevel@CWnd@@IAEJIJ@Z 0040d793 f   nafxcw:wincore.obj
 0001:0000c7bf       ?OnCharToItem@CWnd@@IAEHIPAVCListBox@@I@Z 0040d7bf f   nafxcw:wincore.obj
 0001:0000c7bf       ?OnVKeyToItem@CWnd@@IAEHIPAVCListBox@@I@Z 0040d7bf f   nafxcw:wincore.obj
 0001:0000c7ea       ?OnChildNotify@CWnd@@MAEHIIJPAJ@Z 0040d7ea f   nafxcw:wincore.obj
 0001:0000c837       ?OnCommand@CWnd@@MAEHIJ@Z  0040d837 f   nafxcw:wincore.obj
 0001:0000c8cf       ?OnCompareItem@CWnd@@IAEHHPAUtagCOMPAREITEMSTRUCT@@@Z 0040d8cf f   nafxcw:wincore.obj
 0001:0000c8fc       ?OnCtlColor@CWnd@@IAEPAUHBRUSH__@@PAVCDC@@PAV1@I@Z 0040d8fc f   nafxcw:wincore.obj
 0001:0000c926       ?OnDeleteItem@CWnd@@IAEXHPAUtagDELETEITEMSTRUCT@@@Z 0040d926 f   nafxcw:wincore.obj
 0001:0000c949       ?OnDestroy@CWnd@@IAEXXZ    0040d949 f   nafxcw:wincore.obj
 0001:0000c9e1       ?OnDevModeChange@CWnd@@IAEXPAD@Z 0040d9e1 f   nafxcw:wincore.obj
 0001:0000ca2d       ?OnDisplayChange@CWnd@@IAEXIHH@Z 0040da2d f   nafxcw:wincore.obj
 0001:0000ca76       ?OnDragList@CWnd@@IAEJIJ@Z 0040da76 f   nafxcw:wincore.obj
 0001:0000caa3       ?OnDrawIconicThumbnailOrLivePreview@CWnd@@UAEXAAVCDC@@VCRect@@VCSize@@HAAH@Z 0040daa3 f   nafxcw:wincore.obj
 0001:0000cac5       ?OnDrawItem@CWnd@@IAEXHPAUtagDRAWITEMSTRUCT@@@Z 0040dac5 f   nafxcw:wincore.obj
 0001:0000cb05       ?OnEnterIdle@CWnd@@IAEXIPAV1@@Z 0040db05 f   nafxcw:wincore.obj
 0001:0000cb43       ?OnFinalRelease@CWnd@@UAEXXZ 0040db43 f   nafxcw:wincore.obj
 0001:0000cb54       ?OnGesture@CWnd@@IAEJIJ@Z  0040db54 f   nafxcw:wincore.obj
 0001:0000cdd9       ?OnDrop@CView@@UAEHPAVCOleDataObject@@KVCPoint@@@Z 0040ddd9 f   nafxcw:viewcore.obj
 0001:0000cdd9       ?OnDragEnter@CMFCBaseTabCtrl@@UAEKPAVCOleDataObject@@KVCPoint@@@Z 0040ddd9 f   nafxcw:afxbasetabctrl.obj
 0001:0000cdd9       ?OnDragOver@CView@@UAEKPAVCOleDataObject@@KVCPoint@@@Z 0040ddd9 f   nafxcw:viewcore.obj
 0001:0000cdd9       ?GetBufferPtr@CFile@@UAEIIIPAPAX0@Z 0040ddd9 f   nafxcw:filecore.obj
 0001:0000cdd9       ?OnGesturePan@CWnd@@MAEHVCPoint@@0@Z 0040ddd9 f   nafxcw:wincore.obj
 0001:0000cdd9       ?OnUpdateToolTip@CMFCToolBarButton@@UAEHPAVCWnd@@HAAVCToolTipCtrl@@AAV?$CStringT@DV?$StrTraitMFC@DV?$ChTraitsCRT@D@ATL@@@@@ATL@@@Z 0040ddd9 f   nafxcw:afxcolorbar.obj
 0001:0000cdd9       ?CreateDefaultMiniframe@CBasePane@@UAEPAVCPaneFrameWnd@@VCRect@@@Z 0040ddd9 f   nafxcw:afxdocksite.obj
 0001:0000cdd9       ?NotifyControlCommand@CMFCRibbonBaseElement@@MAEHHHIJ@Z 0040ddd9 f   nafxcw:afxbaseribbonelement.obj
 0001:0000cdd9       ?OnGestureRotate@CWnd@@MAEHVCPoint@@N@Z 0040ddd9 f   nafxcw:wincore.obj
 0001:0000cdd9       ?OnDragOver@CMFCBaseTabCtrl@@UAEKPAVCOleDataObject@@KVCPoint@@@Z 0040ddd9 f   nafxcw:afxbasetabctrl.obj
 0001:0000cdd9       ?OnDrop@CMFCBaseTabCtrl@@UAEHPAVCOleDataObject@@KVCPoint@@@Z 0040ddd9 f   nafxcw:afxbasetabctrl.obj
 0001:0000cdd9       ?OnDragOver@CMFCTabCtrl@@UAEKPAVCOleDataObject@@KVCPoint@@@Z 0040ddd9 f   nafxcw:afxtabctrl.obj
 0001:0000cdd9       ?OnDragEnter@CView@@UAEKPAVCOleDataObject@@KVCPoint@@@Z 0040ddd9 f   nafxcw:viewcore.obj
 0001:0000cdde       ?OnGetObject@CWnd@@IAEJIJ@Z 0040ddde f   nafxcw:wincore.obj
 0001:0000ce1c       ?OnVScroll@CWnd@@IAEXIIPAVCScrollBar@@@Z 0040de1c f   nafxcw:wincore.obj
 0001:0000ce1c       ?OnHScroll@CWnd@@IAEXIIPAVCScrollBar@@@Z 0040de1c f   nafxcw:wincore.obj
 0001:0000ce40       ?OnHelpInfo@CWnd@@IAEHPAUtagHELPINFO@@@Z 0040de40 f   nafxcw:wincore.obj
 0001:0000ceaa       ?OnMeasureItem@CWnd@@IAEXHPAUtagMEASUREITEMSTRUCT@@@Z 0040deaa f   nafxcw:wincore.obj
 0001:0000cf33       ?OnNTCtlColor@CWnd@@IAEJIJ@Z 0040df33 f   nafxcw:wincore.obj
 0001:0000cf85       ?OnNcDestroy@CWnd@@IAEXXZ  0040df85 f   nafxcw:wincore.obj
 0001:0000d0aa       ?OnNotify@CWnd@@MAEHIJPAJ@Z 0040e0aa f   nafxcw:wincore.obj
 0001:0000d136       ?OnPaint@CWnd@@IAEXXZ      0040e136 f   nafxcw:wincore.obj
 0001:0000d17f       ?OnParentNotify@CWnd@@IAEXIJ@Z 0040e17f f   nafxcw:wincore.obj
 0001:0000d1ad       ?OnSetFocus@CWnd@@IAEXPAV1@@Z 0040e1ad f   nafxcw:wincore.obj
 0001:0000d1ce       ?OnSettingChange@CWnd@@IAEXIPBD@Z 0040e1ce f   nafxcw:wincore.obj
 0001:0000d1fa       ?OnSysColorChange@CWnd@@IAEXXZ 0040e1fa f   nafxcw:wincore.obj
 0001:0000d240       ?OnTabletQuerySystemGestureStatus@CWnd@@IAEJIJ@Z 0040e240 f   nafxcw:wincore.obj
 0001:0000d27e       ?OnToolHitTest@CWnd@@UBEHVCPoint@@PAUtagTOOLINFOA@@@Z 0040e27e f   nafxcw:wincore.obj
 0001:0000d2f1       ?OnTouchInputs@CWnd@@MAEHIPAUtagTOUCHINPUT@@@Z 0040e2f1 f   nafxcw:wincore.obj
 0001:0000d362       ?OnTouchMessage@CWnd@@IAEJIJ@Z 0040e362 f   nafxcw:wincore.obj
 0001:0000d476       ?OnWndMsg@CWnd@@MAEHIIJPAJ@Z 0040e476 f   nafxcw:wincore.obj
 0001:0000dd86       ?PreCreateWindow@CWnd@@UAEHAAUtagCREATESTRUCTA@@@Z 0040ed86 f   nafxcw:wincore.obj
 0001:0000ddbf       ?PreTranslateInput@CWnd@@QAEHPAUtagMSG@@@Z 0040edbf f   nafxcw:wincore.obj
 0001:0000ddf2       ?PreTranslateMessage@CWnd@@UAEHPAUtagMSG@@@Z 0040edf2 f   nafxcw:wincore.obj
 0001:0000de11       ?PrepareForHelp@CWnd@@QAEXXZ 0040ee11 f   nafxcw:wincore.obj
 0001:0000de8e       ?QueryInterface@?$CComObjectNoLock@VCAccessibleProxy@ATL@@@ATL@@UAGJABU_GUID@@PAPAX@Z 0040ee8e f i nafxcw:wincore.obj
 0001:0000dea8       ?QueryInterface@?$CComObjectNoLock@VCAccessibleProxy@ATL@@@ATL@@W3AGJABU_GUID@@PAPAX@Z 0040eea8 f i nafxcw:wincore.obj
 0001:0000deb2       ?QueryInterface@?$CComObjectNoLock@VCAccessibleProxy@ATL@@@ATL@@WBA@AGJABU_GUID@@PAPAX@Z 0040eeb2 f i nafxcw:wincore.obj
 0001:0000debc       ?QueryInterface@XAccessible@CWnd@@UAGJABU_GUID@@PAPAX@Z 0040eebc f   nafxcw:wincore.obj
 0001:0000df00       ?QueryInterface@XAccessibleServer@CWnd@@UAGJABU_GUID@@PAPAX@Z 0040ef00 f   nafxcw:wincore.obj
 0001:0000df44       ?ReflectChildNotify@CWnd@@IAEHIIJPAJ@Z 0040ef44 f   nafxcw:wincore.obj
 0001:0000e03f       ?ReflectLastMsg@CWnd@@KGHPAUHWND__@@PAJ@Z 0040f03f f   nafxcw:wincore.obj
 0001:0000e0e1       ?RegisterTouchWindow@CWnd@@QAEHHK@Z 0040f0e1 f   nafxcw:wincore.obj
 0001:0000e1b0       ?Release@?$CComObjectNoLock@VCAccessibleProxy@ATL@@@ATL@@UAGKXZ 0040f1b0 f i nafxcw:wincore.obj
 0001:0000e1d1       ?Release@?$CComObjectNoLock@VCAccessibleProxy@ATL@@@ATL@@W3AGKXZ 0040f1d1 f i nafxcw:wincore.obj
 0001:0000e1db       ?Release@?$CComObjectNoLock@VCAccessibleProxy@ATL@@@ATL@@WBA@AGKXZ 0040f1db f i nafxcw:wincore.obj
 0001:0000e1e5       ?Release@XAccessible@CWnd@@UAGKXZ 0040f1e5 f   nafxcw:wincore.obj
 0001:0000e223       ?Release@XAccessibleServer@CWnd@@UAGKXZ 0040f223 f   nafxcw:wincore.obj
 0001:0000e261       ?RepositionBars@CWnd@@QAEXIIIIPAUtagRECT@@PBU2@H@Z 0040f261 f   nafxcw:wincore.obj
 0001:0000e3c6       ?RunModalLoop@CWnd@@QAEHK@Z 0040f3c6 f   nafxcw:wincore.obj
 0001:0000e517       ?ScrollWindow@CWnd@@QAEXHHPBUtagRECT@@0@Z 0040f517 f   nafxcw:wincore.obj
 0001:0000e5fb       ?SendChildNotifyLastMsg@CWnd@@QAEHPAJ@Z 0040f5fb f   nafxcw:wincore.obj
 0001:0000e637       ?SendMessageToDescendants@CWnd@@SGXPAUHWND__@@IIJHH@Z 0040f637 f   nafxcw:wincore.obj
 0001:0000e6b4       ?Serialize@?$CMap@IIPAVCPane@@PAV1@@@UAEXAAVCArchive@@@Z 0040f6b4 f i nafxcw:afxdockingmanager.obj
 0001:0000e6b4       ?Serialize@?$CMap@PAUHWND__@@PAU1@HH@@UAEXAAVCArchive@@@Z 0040f6b4 f i nafxcw:afxvisualmanageroffice2007.obj
 0001:0000e6b4       ?Serialize@?$CMap@HHHH@@UAEXAAVCArchive@@@Z 0040f6b4 f i nafxcw:afxheaderctrl.obj
 0001:0000e6b4       ?Serialize@?$CMap@PAUHICON__@@PAU1@HH@@UAEXAAVCArchive@@@Z 0040f6b4 f i nafxcw:afxbasetabctrl.obj
 0001:0000e6b4       ?Serialize@?$CMap@IIHH@@UAEXAAVCArchive@@@Z 0040f6b4 f i nafxcw:afxtoolbarimages.obj
 0001:0000e6b4       ?Serialize@?$CMap@IIII@@UAEXAAVCArchive@@@Z 0040f6b4 f i nafxcw:afxpopupmenubar.obj
 0001:0000e6b4       ?Serialize@?$CMap@IIPAUHICON__@@PAU1@@@UAEXAAVCArchive@@@Z 0040f6b4 f i nafxcw:afxtabctrl.obj
 0001:0000e6b4       ?Serialize@?$CMap@IIKK@@UAEXAAVCArchive@@@Z 0040f6b4 f i nafxcw:afxcolormenubutton.obj
 0001:0000e6b4       ?Serialize@?$CMap@PAVCWnd@@PAV1@PAVCHwndRenderTarget@@PAV2@@@UAEXAAVCArchive@@@Z 0040f6b4 f i nafxcw:wincore.obj
 0001:0000e6b4       ?Serialize@?$CMap@PAVCWnd@@PAV1@PAVCImageList@@PAV2@@@UAEXAAVCArchive@@@Z 0040f6b4 f i nafxcw:afxmdiclientareawnd.obj
 0001:0000e6b4       ?Serialize@?$CMap@HHII@@UAEXAAVCArchive@@@Z 0040f6b4 f i nafxcw:afxvslistbox.obj
 0001:0000e6b4       ?Serialize@?$CMap@IIPAVCMFCRibbonStatusBarPane@@PAV1@@@UAEXAAVCArchive@@@Z 0040f6b4 f i nafxcw:afxribbonstatusbarpane.obj
 0001:0000e6b4       ?Serialize@?$CMap@IIPAUHWND__@@PAU1@@@UAEXAAVCArchive@@@Z 0040f6b4 f i nafxcw:afxpaneframewnd.obj
 0001:0000e760       ?SetMenu@CWnd@@UAEHPAVCMenu@@@Z 0040f760 f   nafxcw:wincore.obj
 0001:0000e77b       ?SetProxy@CWnd@@UAEJPAUIAccessibleProxy@@@Z 0040f77b f   nafxcw:wincore.obj
 0001:0000e78a       ?SetProxy@XAccessibleServer@CWnd@@UAGJPAUIAccessibleProxy@@@Z 0040f78a f   nafxcw:wincore.obj
 0001:0000e7cf       ?SetScrollInfo@CWnd@@QAEHHPAUtagSCROLLINFO@@H@Z 0040f7cf f   nafxcw:wincore.obj
 0001:0000e80d       ?SetScrollPos@CWnd@@QAEHHHH@Z 0040f80d f   nafxcw:wincore.obj
 0001:0000e83d       ?SetScrollRange@CWnd@@QAEXHHHH@Z 0040f83d f   nafxcw:wincore.obj
 0001:0000e870       ?SetServer@?$IAccessibleProxyImpl@VCAccessibleProxy@ATL@@@ATL@@UAGJPAUIAccessible@@PAUIAccessibleServer@@@Z 0040f870 f i nafxcw:wincore.obj
 0001:0000e888       ?SetWindowPlacement@CWnd@@QAEHPBUtagWINDOWPLACEMENT@@@Z 0040f888 f   nafxcw:wincore.obj
 0001:0000e8a2       ?SubclassDlgItem@CWnd@@QAEHIPAV1@@Z 0040f8a2 f   nafxcw:wincore.obj
 0001:0000e90c       ?SubclassWindow@CWnd@@QAEHPAUHWND__@@@Z 0040f90c f   nafxcw:wincore.obj
 0001:0000e950       ?TrackPopupMenu@CMenu@@QAEHIHHPAVCWnd@@PBUtagRECT@@@Z 0040f950 f   nafxcw:wincore.obj
 0001:0000e9a6       ?Unlock@CCriticalSection@@UAEHXZ 0040f9a6 f i nafxcw:wincore.obj
 0001:0000e9b4       ?Unlock@CInternalGlobalLock@@QAEXXZ 0040f9b4 f i nafxcw:wincore.obj
 0001:0000e9cd       ?UnsubclassWindow@CWnd@@QAEPAUHWND__@@XZ 0040f9cd f   nafxcw:wincore.obj
 0001:0000e9f4       ?UpdateData@CWnd@@QAEHH@Z  0040f9f4 f   nafxcw:wincore.obj
 0001:0000ea81       ?UpdateDialogControls@CWnd@@QAEXPAVCCmdTarget@@H@Z 0040fa81 f   nafxcw:wincore.obj
 0001:0000eb89       ?WalkPreTranslateTree@CWnd@@SGHPAUHWND__@@PAUtagMSG@@@Z 0040fb89 f   nafxcw:wincore.obj
 0001:0000ebcd       ?WinHelpA@CWnd@@UAEXKI@Z   0040fbcd f   nafxcw:wincore.obj
 0001:0000ec42       ?WinHelpInternal@CWnd@@UAEXKI@Z 0040fc42 f   nafxcw:wincore.obj
 0001:0000ec94       ?WindowProc@CWnd@@MAEJIIJ@Z 0040fc94 f   nafxcw:wincore.obj
 0001:0000ecd9       ?_AfxActivationWndProc@@YGJPAUHWND__@@IIJ@Z 0040fcd9 f   nafxcw:wincore.obj
 0001:0000ee40       ?_AfxCbtFilterHook@@YGJHIJ@Z 0040fe40 f   nafxcw:wincore.obj
 0001:0000f0a0       ?_AfxFindPopupMenuFromID@@YGPAVCMenu@@PAV1@I@Z 004100a0 f   nafxcw:wincore.obj
 0001:0000f115       ?_AfxHandleActivate@@YGXPAVCWnd@@I0@Z 00410115 f   nafxcw:wincore.obj
 0001:0000f18c       ?_AfxHandleSetCursor@@YGHPAVCWnd@@II@Z 0041018c f   nafxcw:wincore.obj
 0001:0000f202       ?_AfxInitCommonControls@@YGJPAUtagINITCOMMONCONTROLSEX@@J@Z 00410202 f   nafxcw:wincore.obj
 0001:0000f21e       ?_AfxModifyStyle@@YGHPAUHWND__@@HKKI@Z 0041021e f   nafxcw:wincore.obj
 0001:0000f26e       ?_AfxPostInitDialog@@YGXPAVCWnd@@ABUtagRECT@@K@Z 0041026e f   nafxcw:wincore.obj
 0001:0000f30f       ?_AfxPreInitDialog@@YGXPAVCWnd@@PAUtagRECT@@PAK@Z 0041030f f   nafxcw:wincore.obj
 0001:0000f333       ?_AfxRegisterWithIcon@@YGHPAUtagWNDCLASSA@@PBDI@Z 00410333 f   nafxcw:wincore.obj
 0001:0000f377       ?accDoDefaultAction@?$IAccessibleProxyImpl@VCAccessibleProxy@ATL@@@ATL@@UAGJUtagVARIANT@@@Z 00410377 f i nafxcw:wincore.obj
 0001:0000f3a5       ?accDoDefaultAction@CWnd@@UAEJUtagVARIANT@@@Z 004103a5 f   nafxcw:wincore.obj
 0001:0000f3c5       ?accDoDefaultAction@XAccessible@CWnd@@UAGJUtagVARIANT@@@Z 004103c5 f   nafxcw:wincore.obj
 0001:0000f413       ?accHitTest@?$IAccessibleProxyImpl@VCAccessibleProxy@ATL@@@ATL@@UAGJJJPAUtagVARIANT@@@Z 00410413 f i nafxcw:wincore.obj
 0001:0000f447       ?accHitTest@CWnd@@UAEJJJPAUtagVARIANT@@@Z 00410447 f   nafxcw:wincore.obj
 0001:0000f460       ?accHitTest@XAccessible@CWnd@@UAGJJJPAUtagVARIANT@@@Z 00410460 f   nafxcw:wincore.obj
 0001:0000f4ab       ?accLocation@?$IAccessibleProxyImpl@VCAccessibleProxy@ATL@@@ATL@@UAGJPAJ000UtagVARIANT@@@Z 004104ab f i nafxcw:wincore.obj
 0001:0000f504       ?accLocation@CWnd@@UAEJPAJ000UtagVARIANT@@@Z 00410504 f   nafxcw:wincore.obj
 0001:0000f530       ?accLocation@XAccessible@CWnd@@UAGJPAJ000UtagVARIANT@@@Z 00410530 f   nafxcw:wincore.obj
 0001:0000f58a       ?accNavigate@?$IAccessibleProxyImpl@VCAccessibleProxy@ATL@@@ATL@@UAGJJUtagVARIANT@@PAU3@@Z 0041058a f i nafxcw:wincore.obj
 0001:0000f5cb       ?accNavigate@CWnd@@UAEJJUtagVARIANT@@PAU2@@Z 004105cb f   nafxcw:wincore.obj
 0001:0000f5f1       ?accNavigate@XAccessible@CWnd@@UAGJJUtagVARIANT@@PAU3@@Z 004105f1 f   nafxcw:wincore.obj
 0001:0000f645       ?accSelect@?$IAccessibleProxyImpl@VCAccessibleProxy@ATL@@@ATL@@UAGJJUtagVARIANT@@@Z 00410645 f i nafxcw:wincore.obj
 0001:0000f676       ?accSelect@CWnd@@UAEJJUtagVARIANT@@@Z 00410676 f   nafxcw:wincore.obj
 0001:0000f699       ?accSelect@XAccessible@CWnd@@UAGJJUtagVARIANT@@@Z 00410699 f   nafxcw:wincore.obj
 0001:0000f6ea       ?afxMapHWND@@YGPAVCHandleMap@@H@Z 004106ea f   nafxcw:wincore.obj
 0001:0000f75b       ?get_accChild@?$IAccessibleProxyImpl@VCAccessibleProxy@ATL@@@ATL@@UAGJUtagVARIANT@@PAPAUIDispatch@@@Z 0041075b f i nafxcw:wincore.obj
 0001:0000f799       ?get_accChild@CWnd@@UAEJUtagVARIANT@@PAPAUIDispatch@@@Z 00410799 f   nafxcw:wincore.obj
 0001:0000f7bc       ?get_accChild@XAccessible@CWnd@@UAGJUtagVARIANT@@PAPAUIDispatch@@@Z 004107bc f   nafxcw:wincore.obj
 0001:0000f80d       ?get_accChildCount@?$IAccessibleProxyImpl@VCAccessibleProxy@ATL@@@ATL@@UAGJPAJ@Z 0041080d f i nafxcw:wincore.obj
 0001:0000f83b       ?get_accChildCount@CWnd@@UAEJPAJ@Z 0041083b f   nafxcw:wincore.obj
 0001:0000f84e       ?get_accChildCount@XAccessible@CWnd@@UAGJPAJ@Z 0041084e f   nafxcw:wincore.obj
 0001:0000f893       ?get_accDefaultAction@?$IAccessibleProxyImpl@VCAccessibleProxy@ATL@@@ATL@@UAGJUtagVARIANT@@PAPA_W@Z 00410893 f i nafxcw:wincore.obj
 0001:0000f8d1       ?get_accDefaultAction@CWnd@@UAEJUtagVARIANT@@PAPA_W@Z 004108d1 f   nafxcw:wincore.obj
 0001:0000f8f4       ?get_accDefaultAction@XAccessible@CWnd@@UAGJUtagVARIANT@@PAPA_W@Z 004108f4 f   nafxcw:wincore.obj
 0001:0000f945       ?get_accDescription@?$IAccessibleProxyImpl@VCAccessibleProxy@ATL@@@ATL@@UAGJUtagVARIANT@@PAPA_W@Z 00410945 f i nafxcw:wincore.obj
 0001:0000f983       ?get_accDescription@CWnd@@UAEJUtagVARIANT@@PAPA_W@Z 00410983 f   nafxcw:wincore.obj
 0001:0000f9a6       ?get_accDescription@XAccessible@CWnd@@UAGJUtagVARIANT@@PAPA_W@Z 004109a6 f   nafxcw:wincore.obj
 0001:0000f9f7       ?get_accFocus@?$IAccessibleProxyImpl@VCAccessibleProxy@ATL@@@ATL@@UAGJPAUtagVARIANT@@@Z 004109f7 f i nafxcw:wincore.obj
 0001:0000fa25       ?get_accFocus@CWnd@@UAEJPAUtagVARIANT@@@Z 00410a25 f   nafxcw:wincore.obj
 0001:0000fa38       ?get_accFocus@XAccessible@CWnd@@UAGJPAUtagVARIANT@@@Z 00410a38 f   nafxcw:wincore.obj
 0001:0000fa7d       ?get_accHelp@?$IAccessibleProxyImpl@VCAccessibleProxy@ATL@@@ATL@@UAGJUtagVARIANT@@PAPA_W@Z 00410a7d f i nafxcw:wincore.obj
 0001:0000fabb       ?get_accHelp@CWnd@@UAEJUtagVARIANT@@PAPA_W@Z 00410abb f   nafxcw:wincore.obj
 0001:0000fade       ?get_accHelp@XAccessible@CWnd@@UAGJUtagVARIANT@@PAPA_W@Z 00410ade f   nafxcw:wincore.obj
 0001:0000fb2f       ?get_accHelpTopic@?$IAccessibleProxyImpl@VCAccessibleProxy@ATL@@@ATL@@UAGJPAPA_WUtagVARIANT@@PAJ@Z 00410b2f f i nafxcw:wincore.obj
 0001:0000fb76       ?get_accHelpTopic@CWnd@@UAEJPAPA_WUtagVARIANT@@PAJ@Z 00410b76 f   nafxcw:wincore.obj
 0001:0000fb9c       ?get_accHelpTopic@XAccessible@CWnd@@UAGJPAPA_WUtagVARIANT@@PAJ@Z 00410b9c f   nafxcw:wincore.obj
 0001:0000fbf0       ?get_accKeyboardShortcut@?$IAccessibleProxyImpl@VCAccessibleProxy@ATL@@@ATL@@UAGJUtagVARIANT@@PAPA_W@Z 00410bf0 f i nafxcw:wincore.obj
 0001:0000fc2e       ?get_accKeyboardShortcut@CWnd@@UAEJUtagVARIANT@@PAPA_W@Z 00410c2e f   nafxcw:wincore.obj
 0001:0000fc51       ?get_accKeyboardShortcut@XAccessible@CWnd@@UAGJUtagVARIANT@@PAPA_W@Z 00410c51 f   nafxcw:wincore.obj
 0001:0000fca2       ?get_accName@?$IAccessibleProxyImpl@VCAccessibleProxy@ATL@@@ATL@@UAGJUtagVARIANT@@PAPA_W@Z 00410ca2 f i nafxcw:wincore.obj
 0001:0000fce0       ?get_accName@CWnd@@UAEJUtagVARIANT@@PAPA_W@Z 00410ce0 f   nafxcw:wincore.obj
 0001:0000fd03       ?get_accName@XAccessible@CWnd@@UAGJUtagVARIANT@@PAPA_W@Z 00410d03 f   nafxcw:wincore.obj
 0001:0000fd54       ?get_accParent@?$IAccessibleProxyImpl@VCAccessibleProxy@ATL@@@ATL@@UAGJPAPAUIDispatch@@@Z 00410d54 f i nafxcw:wincore.obj
 0001:0000fd82       ?get_accParent@CWnd@@UAEJPAPAUIDispatch@@@Z 00410d82 f   nafxcw:wincore.obj
 0001:0000fd95       ?get_accParent@XAccessible@CWnd@@UAGJPAPAUIDispatch@@@Z 00410d95 f   nafxcw:wincore.obj
 0001:0000fdda       ?get_accRole@?$IAccessibleProxyImpl@VCAccessibleProxy@ATL@@@ATL@@UAGJUtagVARIANT@@PAU3@@Z 00410dda f i nafxcw:wincore.obj
 0001:0000fe18       ?get_accRole@CWnd@@UAEJUtagVARIANT@@PAU2@@Z 00410e18 f   nafxcw:wincore.obj
 0001:0000fe3b       ?get_accRole@XAccessible@CWnd@@UAGJUtagVARIANT@@PAU3@@Z 00410e3b f   nafxcw:wincore.obj
 0001:0000fe8c       ?get_accSelection@?$IAccessibleProxyImpl@VCAccessibleProxy@ATL@@@ATL@@UAGJPAUtagVARIANT@@@Z 00410e8c f i nafxcw:wincore.obj
 0001:0000feba       ?get_accSelection@CWnd@@UAEJPAUtagVARIANT@@@Z 00410eba f   nafxcw:wincore.obj
 0001:0000fecd       ?get_accSelection@XAccessible@CWnd@@UAGJPAUtagVARIANT@@@Z 00410ecd f   nafxcw:wincore.obj
 0001:0000ff12       ?get_accState@?$IAccessibleProxyImpl@VCAccessibleProxy@ATL@@@ATL@@UAGJUtagVARIANT@@PAU3@@Z 00410f12 f i nafxcw:wincore.obj
 0001:0000ff50       ?get_accState@CWnd@@UAEJUtagVARIANT@@PAU2@@Z 00410f50 f   nafxcw:wincore.obj
 0001:0000ff73       ?get_accState@XAccessible@CWnd@@UAGJUtagVARIANT@@PAU3@@Z 00410f73 f   nafxcw:wincore.obj
 0001:0000ffc4       ?get_accValue@?$IAccessibleProxyImpl@VCAccessibleProxy@ATL@@@ATL@@UAGJUtagVARIANT@@PAPA_W@Z 00410fc4 f i nafxcw:wincore.obj
 0001:00010002       ?get_accValue@CWnd@@UAEJUtagVARIANT@@PAPA_W@Z 00411002 f   nafxcw:wincore.obj
 0001:00010025       ?get_accValue@XAccessible@CWnd@@UAGJUtagVARIANT@@PAPA_W@Z 00411025 f   nafxcw:wincore.obj
 0001:00010076       ?put_accName@XAccessible@CWnd@@UAGJUtagVARIANT@@PA_W@Z 00411076 f   nafxcw:wincore.obj
 0001:000100c7       ?put_accName@?$IAccessibleProxyImpl@VCAccessibleProxy@ATL@@@ATL@@UAGJUtagVARIANT@@PA_W@Z 004110c7 f i nafxcw:wincore.obj
 0001:000100c7       ?put_accValue@?$IAccessibleProxyImpl@VCAccessibleProxy@ATL@@@ATL@@UAGJUtagVARIANT@@PA_W@Z 004110c7 f i nafxcw:wincore.obj
 0001:000100e2       ?put_accValue@CWnd@@UAEJUtagVARIANT@@PA_W@Z 004110e2 f   nafxcw:wincore.obj
 0001:000100e2       ?put_accName@CWnd@@UAEJUtagVARIANT@@PA_W@Z 004110e2 f   nafxcw:wincore.obj
 0001:00010105       ?put_accValue@XAccessible@CWnd@@UAGJUtagVARIANT@@PA_W@Z 00411105 f   nafxcw:wincore.obj
 0001:00010156       _CommctrlIsolationAwarePrivatetRgCebPnQQeRff_pbZPgYQP_QYY@4 00411156 f i nafxcw:wincore.obj
 0001:000101f2       _InlineIsEqualGUID         004111f2 f i nafxcw:wincore.obj
 0001:00010222       _IsolationAwareCreateWindowExA@48 00411222 f i nafxcw:wincore.obj
 0001:000102ce       _IsolationAwareGetClassInfoExA@12 004112ce f i nafxcw:wincore.obj
 0001:0001035f       _IsolationAwareInitCommonControlsEx@4 0041135f f i nafxcw:wincore.obj
 0001:00010404       _IsolationAwareLoadLibraryW@4 00411404 f i nafxcw:wincore.obj
 0001:0001048f       _IsolationAwarePrivatezlybNQyVOeNelJ@4 0041148f f i nafxcw:wincore.obj
 0001:00010499       _IsolationAwarePrivatezlybNQyVOeNeln@4 00411499 f i nafxcw:wincore.obj
 0001:000104a3       _IsolationAwareRegisterClassA@4 004114a3 f i nafxcw:wincore.obj
 0001:00010531       ??0?$CTypedPtrListIterator@VCPtrList@@PAUCOleControlSiteOrWnd@@@@QAE@ABV0@@Z 00411531 f i nafxcw:winocc.obj
 0001:00010551       ??4?$CTypedPtrListIterator@VCPtrList@@PAUCOleControlSiteOrWnd@@@@QAEAAV0@ABV0@@Z 00411551 f i nafxcw:winocc.obj
 0001:0001056f       ?AttachControlSite@COleControlContainer@@UAEXPAVCWnd@@I@Z 0041156f f   nafxcw:winocc.obj
 0001:000105b0       ?AttachControlSite@CWnd@@IAEXPAVCHandleMap@@@Z 004115b0 f   nafxcw:winocc.obj
 0001:000105f0       ?AttachControlSite@CWnd@@QAEXPAV1@I@Z 004115f0 f   nafxcw:winocc.obj
 0001:00010615       ?CheckDlgButton@CWnd@@QAEXHI@Z 00411615 f   nafxcw:winocc.obj
 0001:0001063a       ?EnableWindow@CWnd@@QAEHH@Z 0041163a f   nafxcw:winocc.obj
 0001:0001065f       ?FindSiteOrWnd@CWnd@@QBEPAU__POSITION@@PBUCOleControlSiteOrWnd@@@Z 0041165f f   nafxcw:winocc.obj
 0001:000106b0       ?FindSiteOrWndWithFocus@CWnd@@QBEPAU__POSITION@@XZ 004116b0 f   nafxcw:winocc.obj
 0001:00010741       ?GetControlUnknown@CWnd@@QAEPAUIUnknown@@XZ 00411741 f   nafxcw:winocc.obj
 0001:0001074d       ?GetDlgCtrlID@CWnd@@QBEHXZ 0041174d f   nafxcw:winocc.obj
 0001:00010768       ?GetDlgItem@CWnd@@QBEPAV1@H@Z 00411768 f   nafxcw:winocc.obj
 0001:00010790       ?GetDlgItem@CWnd@@QBEXHPAPAUHWND__@@@Z 00411790 f   nafxcw:winocc.obj
 0001:000107b7       ?GetDlgItemTextA@CWnd@@QBEHHPADH@Z 004117b7 f   nafxcw:winocc.obj
 0001:000107df       ?GetExStyle@CWnd@@QBEKXZ   004117df f   nafxcw:winocc.obj
 0001:000107f9       ?GetFirstButton@CDlgGroupRadioButtonIterator@@QBE?AVCDlgControlIterator@@XZ 004117f9 f i nafxcw:winocc.obj
 0001:00010859       ?GetLastButton@CDlgGroupRadioButtonIterator@@QBE?AVCDlgControlIterator@@XZ 00411859 f i nafxcw:winocc.obj
 0001:000108be       ?GetNextDlgGroupItem@CWnd@@QBEPAUCOleControlSiteOrWnd@@PAU2@@Z 004118be f   nafxcw:winocc.obj
 0001:00010910       ?GetNextDlgTabItem@CWnd@@QBEPAUCOleControlSiteOrWnd@@PAU2@H@Z 00411910 f   nafxcw:winocc.obj
 0001:00010a5a       ?GetOleControlSite@CWnd@@QBEPAVCOleControlSite@@I@Z 00411a5a f   nafxcw:winocc.obj
 0001:00010a70       ?GetPrev@?$_CTypedPtrList@VCPtrList@@PAUCOleControlSiteOrWnd@@@@QAEAAPAUCOleControlSiteOrWnd@@AAPAU__POSITION@@@Z 00411a70 f i nafxcw:winocc.obj
 0001:00010a79       ?GetPrev@CPtrList@@QBEPBXAAPAU__POSITION@@@Z 00411a79 f i nafxcw:winocc.obj
 0001:00010a97       ?GetPrevDlgGroupItem@CWnd@@QBEPAUCOleControlSiteOrWnd@@PAU2@@Z 00411a97 f   nafxcw:winocc.obj
 0001:00010ae9       ?GetProperty@CWnd@@QBEXJGPAX@Z 00411ae9 f   nafxcw:winocc.obj
 0001:00010b0c       ?GetStyle@COleControlSiteOrWnd@@QBEKXZ 00411b0c f   nafxcw:winocc.obj
 0001:00010b25       ?GetStyle@CWnd@@QBEKXZ     00411b25 f   nafxcw:winocc.obj
 0001:00010b3f       ?GetWindowTextA@CWnd@@QBEHPADH@Z 00411b3f f   nafxcw:winocc.obj
 0001:00010bc1       ?InvokeHelper@CWnd@@QAAXJGGPAXPBEZZ 00411bc1 f   nafxcw:winocc.obj
 0001:00010be8       ?IsDialogMessageA@CWnd@@QAEHPAUtagMSG@@@Z 00411be8 f   nafxcw:winocc.obj
 0001:00010c1b       ?IsDisabled@CDlgGroupRadioButtonIterator@@SA_NPBUCOleControlSiteOrWnd@@@Z 00411c1b f i nafxcw:winocc.obj
 0001:00010c61       ?IsWindowEnabled@CWnd@@QBEHXZ 00411c61 f   nafxcw:winocc.obj
 0001:00010c7c       ?ModifyStyle@CWnd@@QAEHKKI@Z 00411c7c f   nafxcw:winocc.obj
 0001:00010ca6       ?ModifyStyleEx@CWnd@@QAEHKKI@Z 00411ca6 f   nafxcw:winocc.obj
 0001:00010cd0       ?MoveNext@CDlgGroupRadioButtonIterator@@QAEXXZ 00411cd0 f i nafxcw:winocc.obj
 0001:00010d4e       ?MovePrev@CDlgGroupRadioButtonIterator@@QAEXXZ 00411d4e f i nafxcw:winocc.obj
 0001:00010dce       ?MoveWindow@CWnd@@QAEXHHHHH@Z 00411dce f   nafxcw:winocc.obj
 0001:00010e0c       ?OnAmbientProperty@CWnd@@UAEHPAVCOleControlSite@@JPAUtagVARIANT@@@Z 00411e0c f   nafxcw:winocc.obj
 0001:00010e18       ?PaintWindowlessControls@CWnd@@QAEHPAVCDC@@@Z 00411e18 f   nafxcw:winocc.obj
 0001:00010e31       ?RemoveRadioCheckFromGroup@CWnd@@QBEXPBUCOleControlSiteOrWnd@@@Z 00411e31 f   nafxcw:winocc.obj
 0001:00010f3c       ?SetDlgCtrlID@CWnd@@QAEHH@Z 00411f3c f   nafxcw:winocc.obj
 0001:00010f63       ?SetFocus@CWnd@@QAEPAV1@XZ 00411f63 f   nafxcw:winocc.obj
 0001:00010fca       ?SetWindowPos@CWnd@@QAEHPBV1@HHHHI@Z 00411fca f   nafxcw:winocc.obj
 0001:00011006       ?SetWindowTextA@CWnd@@QAEXPBD@Z 00412006 f   nafxcw:winocc.obj
 0001:0001104a       ?ShowWindow@CWnd@@QAEHH@Z  0041204a f   nafxcw:winocc.obj
 0001:0001106f       ?Skip@?$CTypedPtrListIterator@VCPtrList@@PAUCOleControlSiteOrWnd@@@@QBE?AV1@H@Z 0041206f f i nafxcw:winocc.obj
 0001:000110af       _IsolationAwareUnregisterClassA@8 004120af f i nafxcw:stdafx.obj
 0001:0001113d       ??0CException@@QAE@H@Z     0041213d f   nafxcw:except.obj
 0001:0001114c       ??0CException@@QAE@XZ      0041214c f   nafxcw:except.obj
 0001:00011156       ??_ECNotSupportedException@@UAEPAXI@Z 00412156 f i nafxcw:except.obj
 0001:00011156       ??_ECResourceException@@UAEPAXI@Z 00412156 f i nafxcw:wingdi.obj
 0001:00011156       ??_GCNotSupportedException@@UAEPAXI@Z 00412156 f i nafxcw:except.obj
 0001:00011156       ??_ECUserException@@UAEPAXI@Z 00412156 f i nafxcw:wingdi.obj
 0001:00011156       ??_GCInvalidArgException@@UAEPAXI@Z 00412156 f i nafxcw:except.obj
 0001:00011156       ??_GCResourceException@@UAEPAXI@Z 00412156 f i nafxcw:wingdi.obj
 0001:00011156       ??_GCMemoryException@@UAEPAXI@Z 00412156 f i nafxcw:except.obj
 0001:00011156       ??_ECMemoryException@@UAEPAXI@Z 00412156 f i nafxcw:except.obj
 0001:00011156       ??_ECInvalidArgException@@UAEPAXI@Z 00412156 f i nafxcw:except.obj
 0001:00011156       ??_GCUserException@@UAEPAXI@Z 00412156 f i nafxcw:wingdi.obj
 0001:00011176       ?AfxThrowInvalidArgException@@YGXXZ 00412176 f   nafxcw:except.obj
 0001:00011190       ?AfxThrowMemoryException@@YGXXZ 00412190 f   nafxcw:except.obj
 0001:000111aa       ?AfxThrowNotSupportedException@@YGXXZ 004121aa f   nafxcw:except.obj
 0001:000111c4       ?Delete@CException@@QAEXXZ 004121c4 f   nafxcw:except.obj
 0001:000111d2       ?GetErrorMessage@CException@@UAEHPADIPAI@Z 004121d2 f   nafxcw:except.obj
 0001:000111db       ?GetErrorMessage@CSimpleException@@UBEHPADIPAI@Z 004121db f   nafxcw:except.obj
 0001:00011234       ?GetRuntimeClass@CInvalidArgException@@UBEPAUCRuntimeClass@@XZ 00412234 f   nafxcw:except.obj
 0001:0001123a       ?GetRuntimeClass@CMemoryException@@UBEPAUCRuntimeClass@@XZ 0041223a f   nafxcw:except.obj
 0001:00011240       ?GetRuntimeClass@CNotSupportedException@@UBEPAUCRuntimeClass@@XZ 00412240 f   nafxcw:except.obj
 0001:00011246       ?GetRuntimeClass@CSimpleException@@UBEPAUCRuntimeClass@@XZ 00412246 f   nafxcw:except.obj
 0001:0001124c       ?InitString@CSimpleException@@QAEXXZ 0041224c f   nafxcw:except.obj
 0001:00011275       ?ReportError@CException@@UAEHII@Z 00412275 f   nafxcw:except.obj
 0001:000112e6       ?AfxClassInit@@YGXPAUCRuntimeClass@@@Z 004122e6 f   nafxcw:objcore.obj
 0001:0001130f       ?AfxDynamicDownCast@@YAPAVCObject@@PAUCRuntimeClass@@PAV1@@Z 0041230f f   nafxcw:objcore.obj
 0001:00011330       ?CreateObject@CRuntimeClass@@QAEPAVCObject@@XZ 00412330 f   nafxcw:objcore.obj
 0001:00011375       ?GetRuntimeClass@CObject@@UBEPAUCRuntimeClass@@XZ 00412375 f   nafxcw:objcore.obj
 0001:0001137b       ?IsDerivedFrom@CRuntimeClass@@QBEHPBU1@@Z 0041237b f   nafxcw:objcore.obj
 0001:000113a5       ?IsKindOf@CObject@@QBEHPBUCRuntimeClass@@@Z 004123a5 f   nafxcw:objcore.obj
 0001:000113c2       ?AfxCancelModes@@YGXPAUHWND__@@@Z 004123c2 f   nafxcw:winutil.obj
 0001:0001143c       ?AfxCriticalNewHandler@@YAHI@Z 0041243c f   nafxcw:winutil.obj
 0001:0001148e       ?AfxDeleteObject@@YGXPAPAX@Z 0041248e f   nafxcw:winutil.obj
 0001:000114b4       ?AfxGlobalFree@@YGXPAX@Z   004124b4 f   nafxcw:winutil.obj
 0001:000114e8       ?AfxSetWindowText@@YGXPAUHWND__@@PBD@Z 004124e8 f   nafxcw:winutil.obj
 0001:00011580       ?AtlHresultFromLastError@ATL@@YAJXZ 00412580 f i nafxcw:winutil.obj
 0001:00011593       ?GetCommCtrlVersion@@YAJPAK0@Z 00412593 f   nafxcw:winutil.obj
 0001:0001162f       ?_AfxChildWindowFromPoint@@YGPAUHWND__@@PAU1@UtagPOINT@@@Z 0041262f f   nafxcw:winutil.obj
 0001:000116d0       ?_AfxCompareClassName@@YGHPAUHWND__@@PBD@Z 004126d0 f   nafxcw:winutil.obj
 0001:00011720       ?_AfxIsComboBoxControl@@YGHPAUHWND__@@I@Z 00412720 f   nafxcw:winutil.obj
 0001:0001178a       ?_AfxTopChildWindowFromPoint@@YGPAUHWND__@@PAU1@UtagPOINT@@@Z 0041278a f   nafxcw:winutil.obj
 0001:00011843       ?AfxCriticalInit@@YGHXZ    00412843 f   nafxcw:afxcrit.obj
 0001:00011867       ?AfxCriticalTerm@@YGXXZ    00412867 f   nafxcw:afxcrit.obj
 0001:000118ac       ?AfxLockGlobals@@YGXH@Z    004128ac f   nafxcw:afxcrit.obj
 0001:00011921       ?AfxUnlockGlobals@@YGXH@Z  00412921 f   nafxcw:afxcrit.obj
 0001:00011945       ??0AUX_DATA@@QAE@XZ        00412945 f   nafxcw:auxdata.obj
 0001:0001198c       ??1AUX_DATA@@QAE@XZ        0041298c f   nafxcw:auxdata.obj
 0001:00011a55       ?UpdateSysColors@AUX_DATA@@QAEXXZ 00412a55 f   nafxcw:auxdata.obj
 0001:00011a99       ?UpdateSysMetrics@AUX_DATA@@QAEXXZ 00412a99 f   nafxcw:auxdata.obj
 0001:00011af3       ??$AtlAddThrow@K@ATL@@YAKKK@Z 00412af3 f i nafxcw:olemisc.obj
 0001:00011b1b       ??0?$CStringT@DV?$StrTraitMFC@DV?$ChTraitsCRT@D@ATL@@@@@ATL@@QAE@PB_W@Z 00412b1b f i nafxcw:olemisc.obj
 0001:00011b5f       ??4?$CStringT@DV?$StrTraitMFC@DV?$ChTraitsCRT@D@ATL@@@@@ATL@@QAEAAV01@PB_W@Z 00412b5f f i nafxcw:olemisc.obj
 0001:00011bb2       ??_ECOleException@@UAEPAXI@Z 00412bb2 f i nafxcw:olemisc.obj
 0001:00011bb2       ??_GCOleException@@UAEPAXI@Z 00412bb2 f i nafxcw:olemisc.obj
 0001:00011bd2       ?AfxMergeMenus@@YGPAUHMENU__@@PAU1@0PAJHH@Z 00412bd2 f   nafxcw:olemisc.obj
 0001:00011e3e       ?AfxThrowOleException@@YGXJ@Z 00412e3e f   nafxcw:olemisc.obj
 0001:00011e90       ?AfxUnmergeMenus@@YGXPAUHMENU__@@00@Z 00412e90 f   nafxcw:olemisc.obj
 0001:00011f3c       ?Allocate@?$CAtlSafeAllocBufferManager@VCCRTAllocator@ATL@@@_ATL_SAFE_ALLOCA_IMPL@ATL@@QAEPAXK@Z 00412f3c f i nafxcw:olemisc.obj
 0001:00011f69       ?AtlCoTaskMemCAlloc@ATL@@YAPAXKK@Z 00412f69 f i nafxcw:olemisc.obj
 0001:00011f98       ?GetBaseTypeLength@?$ChTraitsCRT@D@ATL@@SAHPB_W@Z 00412f98 f i nafxcw:olemisc.obj
 0001:00011fb2       ?GetErrorMessage@COleException@@UBEHPADIPAI@Z 00412fb2 f   nafxcw:olemisc.obj
 0001:00012012       ?GetRuntimeClass@COleException@@UBEPAUCRuntimeClass@@XZ 00413012 f   nafxcw:olemisc.obj
 0001:00012018       ?Process@COleException@@SGJPBVCException@@@Z 00413018 f   nafxcw:olemisc.obj
 0001:0001206a       ?_AfxCopyGlobalMemory@@YGPAXPAX0@Z 0041306a f   nafxcw:olemisc.obj
 0001:000120e5       ?_AfxCopyStgMedium@@YGHGPAUtagSTGMEDIUM@@0@Z 004130e5 f   nafxcw:olemisc.obj
 0001:00012358       ?_AfxFillFormatEtc@@YGPAUtagFORMATETC@@PAU1@G0@Z 00413358 f   nafxcw:olemisc.obj
 0001:00012396       ?_AfxOleCopyFormatEtc@@YGXPAUtagFORMATETC@@0@Z 00413396 f   nafxcw:olemisc.obj
 0001:000123ca       ?_AfxOleCopyTargetDevice@@YGPAUtagDVTARGETDEVICE@@PAU1@@Z 004133ca f   nafxcw:olemisc.obj
 0001:000123fe       ?_AtlVerifyStackAvailable@_ATL_SAFE_ALLOCA_IMPL@ATL@@YA_NK@Z 004133fe f i nafxcw:olemisc.obj
 0001:00012472       ??$?5DV?$StrTraitMFC@DV?$ChTraitsCRT@D@ATL@@@@@CArchive@@QAEAAV0@AAV?$CStringT@DV?$StrTraitMFC@DV?$ChTraitsCRT@D@ATL@@@@@ATL@@@Z 00413472 f i nafxcw:strcore.obj
 0001:000125c7       ??$?6DV?$StrTraitMFC@DV?$ChTraitsCRT@D@ATL@@@@@CArchive@@QAEAAV0@ABV?$CStringT@DV?$StrTraitMFC@DV?$ChTraitsCRT@D@ATL@@@@@ATL@@@Z 004135c7 f i nafxcw:strcore.obj
 0001:000125f3       ??$AtlMultiplyThrow@I@ATL@@YAIII@Z 004135f3 f i nafxcw:strcore.obj
 0001:0001261b       ??$HashKey@PBD@@YGIPBD@Z   0041361b f   nafxcw:strcore.obj
 0001:00012677       ??$SerializeElements@V?$CStringT@DV?$StrTraitMFC@DV?$ChTraitsCRT@D@ATL@@@@@ATL@@@@YGXAAVCArchive@@PAV?$CStringT@DV?$StrTraitMFC@DV?$ChTraitsCRT@D@ATL@@@@@ATL@@H@Z 00413677 f   nafxcw:strcore.obj
 0001:0001267c       ??$SerializeElementsInsertExtract@V?$CStringT@DV?$StrTraitMFC@DV?$ChTraitsCRT@D@ATL@@@@@ATL@@@@YGXAAVCArchive@@PAV?$CStringT@DV?$StrTraitMFC@DV?$ChTraitsCRT@D@ATL@@@@@ATL@@H@Z 0041367c f i nafxcw:strcore.obj
 0001:000126c7       ??0?$CStringT@DV?$StrTraitMFC@DV?$ChTraitsCRT@D@ATL@@@@@ATL@@QAE@PB_WH@Z 004136c7 f i nafxcw:strcore.obj
 0001:00012735       ??1?$CTempBuffer@_W$0IA@VCCRTAllocator@ATL@@@ATL@@QAE@XZ 00413735 f i nafxcw:strcore.obj
 0001:00012735       ??1?$CTempBuffer@D$0IA@VCCRTAllocator@ATL@@@ATL@@QAE@XZ 00413735 f i nafxcw:strcore.obj
 0001:00012741       ??4?$CSimpleStringT@_W$0A@@ATL@@QAEAAV01@ABV01@@Z 00413741 f i nafxcw:strcore.obj
 0001:00012791       ?AfxGetStringManager@@YGPAUIAtlStringMgr@ATL@@XZ 00413791 f   nafxcw:strcore.obj
 0001:00012797       ?Allocate@?$CTempBuffer@D$0IA@VCCRTAllocator@ATL@@@ATL@@QAEPADI@Z 00413797 f i nafxcw:strcore.obj
 0001:000127c6       ?Allocate@?$CTempBuffer@_W$0IA@VCCRTAllocator@ATL@@@ATL@@QAEPA_WI@Z 004137c6 f i nafxcw:strcore.obj
 0001:000127f5       ?Allocate@CAfxStringMgr@@UAEPAUCStringData@ATL@@HH@Z 004137f5 f   nafxcw:strcore.obj
 0001:00012832       ?AllocateHeap@?$CTempBuffer@_W$0IA@VCCRTAllocator@ATL@@@ATL@@AAEXI@Z 00413832 f i nafxcw:strcore.obj
 0001:00012832       ?AllocateHeap@?$CTempBuffer@D$0IA@VCCRTAllocator@ATL@@@ATL@@AAEXI@Z 00413832 f i nafxcw:strcore.obj
 0001:00012857       ?GetActiveFrame@CFrameWnd@@UAEPAV1@XZ 00413857 f   nafxcw:winfrm.obj
 0001:00012857       ?Clone@CAfxStringMgr@@UAEPAUIAtlStringMgr@ATL@@XZ 00413857 f   nafxcw:strcore.obj
 0001:00012857       ?GetReBarCtrl@CMFCReBar@@QBEAAVCReBarCtrl@@XZ 00413857 f   nafxcw:afxrebar.obj
 0001:0001285a       ?CloneData@?$CSimpleStringT@_W$0A@@ATL@@CAPAUCStringData@2@PAU32@@Z 0041385a f i nafxcw:strcore.obj
 0001:000128b9       ?CopyCharsOverlapped@?$CSimpleStringT@_W$0A@@ATL@@SAXPA_WIPB_WH@Z 004138b9 f i nafxcw:strcore.obj
 0001:000128d8       ?Free@CMemFile@@MAEXPAE@Z  004138d8 f   nafxcw:filemem.obj
 0001:000128d8       ?Free@CAfxStringMgr@@UAEXPAUCStringData@ATL@@@Z 004138d8 f   nafxcw:strcore.obj
 0001:000128e8       ?FreeHeap@?$CTempBuffer@D$0IA@VCCRTAllocator@ATL@@@ATL@@AAEXXZ 004138e8 f i nafxcw:strcore.obj
 0001:000128e8       ?FreeHeap@?$CTempBuffer@_W$0IA@VCCRTAllocator@ATL@@@ATL@@AAEXXZ 004138e8 f i nafxcw:strcore.obj
 0001:000128f1       ?GetNilString@CAfxStringMgr@@UAEPAUCStringData@ATL@@XZ 004138f1 f   nafxcw:strcore.obj
 0001:000128ff       ?Reallocate@CAfxStringMgr@@UAEPAUCStringData@ATL@@PAU23@HH@Z 004138ff f   nafxcw:strcore.obj
 0001:0001292f       ?SetString@?$CSimpleStringT@_W$0A@@ATL@@QAEXPB_WH@Z 0041392f f i nafxcw:strcore.obj
 0001:000129a8       ??0CInitGDIPlus@CImage@ATL@@QAE@XZ 004139a8 f i nafxcw:afxctrlcontainer2.obj
 0001:000129dd       ??1CDCCache@CImage@ATL@@QAE@XZ 004139dd f i nafxcw:afxctrlcontainer2.obj
 0001:000129fb       ?AfxRegisterMFCCtrlClasses@@YAXXZ 004139fb f   nafxcw:afxctrlcontainer2.obj
 0001:00012a9a       ?GetCDCCacheInstance@CImage@ATL@@CAPAVCDCCache@12@XZ 00413a9a f i nafxcw:afxctrlcontainer2.obj
 0001:00012aca       ?GetInitGDIPlusInstance@CImage@ATL@@CAPAVCInitGDIPlus@12@XZ 00413aca f i nafxcw:afxctrlcontainer2.obj
 0001:00012afa       ?PreUnsubclassControl@CMFCControlContainer@@IAEXPAVCWnd@@@Z 00413afa f   nafxcw:afxctrlcontainer2.obj
 0001:00012b3d       ?ReleaseGDIPlus@CInitGDIPlus@CImage@ATL@@QAEXXZ 00413b3d f i nafxcw:afxctrlcontainer2.obj
 0001:00012b64       ?SubclassDlgControls@CMFCControlContainer@@QAEHXZ 00413b64 f   nafxcw:afxctrlcontainer2.obj
 0001:00012c20       ?UTF8ToString@CMFCControlContainer@@SGHPBDAAV?$CStringT@DV?$StrTraitMFC@DV?$ChTraitsCRT@D@ATL@@@@@ATL@@H@Z 00413c20 f   nafxcw:afxctrlcontainer2.obj
 0001:00012d04       ??0CDialogTemplate@@QAE@PBUDLGTEMPLATE@@@Z 00413d04 f   nafxcw:dlgtempl.obj
 0001:00012d3f       ??1CDialogTemplate@@QAE@XZ 00413d3f f   nafxcw:dlgtempl.obj
 0001:00012d4d       ?Detach@CDialogTemplate@@QAEPAXXZ 00413d4d f   nafxcw:dlgtempl.obj
 0001:00012d53       ?GetFont@CDialogTemplate@@SAHPBUDLGTEMPLATE@@AAV?$CStringT@DV?$StrTraitMFC@DV?$ChTraitsCRT@D@ATL@@@@@ATL@@AAG@Z 00413d53 f   nafxcw:dlgtempl.obj
 0001:00012dc7       ?GetFontSizeField@CDialogTemplate@@KAPAEPBUDLGTEMPLATE@@@Z 00413dc7 f   nafxcw:dlgtempl.obj
 0001:00012e19       ?GetTemplateSize@CDialogTemplate@@KAIPBUDLGTEMPLATE@@@Z 00413e19 f   nafxcw:dlgtempl.obj
 0001:00012ef8       ?HasFont@@YAHPBUDLGTEMPLATE@@@Z 00413ef8 f i nafxcw:dlgtempl.obj
 0001:00012f15       ?SetFont@CDialogTemplate@@QAEHPBDG@Z 00413f15 f   nafxcw:dlgtempl.obj
 0001:00013089       ?SetSystemFont@CDialogTemplate@@QAEHG@Z 00414089 f   nafxcw:dlgtempl.obj
 0001:00013130       ?SetTemplate@CDialogTemplate@@IAEHPBUDLGTEMPLATE@@I@Z 00414130 f   nafxcw:dlgtempl.obj
 0001:00013191       ?memmove_s@Checked@ATL@@YAXPAXIPBXI@Z 00414191 f i nafxcw:dlgtempl.obj
 0001:000131b0       ??0CThreadSlotData@@QAE@XZ 004141b0 f   nafxcw:afxtls.obj
 0001:000131f0       ??1CProcessLocalObject@@QAE@XZ 004141f0 f   nafxcw:afxtls.obj
 0001:00013217       ??1CThreadLocalObject@@QAE@XZ 00414217 f   nafxcw:afxtls.obj
 0001:00013235       ??1CThreadSlotData@@QAE@XZ 00414235 f   nafxcw:afxtls.obj
 0001:0001328c       ??2CNoTrackObject@@SGPAXI@Z 0041428c f   nafxcw:afxtls.obj
 0001:000132a8       ??3CNoTrackObject@@SGXPAX@Z 004142a8 f   nafxcw:afxtls.obj
 0001:000132bc       ?AddHead@CSimpleList@@QAEXPAX@Z 004142bc f   nafxcw:afxtls.obj
 0001:000132d8       ?AfxTermLocalData@@YGXPAUHINSTANCE__@@H@Z 004142d8 f   nafxcw:afxtls.obj
 0001:000132ef       ?AfxTlsRelease@@YGXXZ      004142ef f   nafxcw:afxtls.obj
 0001:00013317       ?AllocSlot@CThreadSlotData@@QAEHXZ 00414317 f   nafxcw:afxtls.obj
 0001:00013431       ?DeleteValues@CThreadSlotData@@QAEXPAUCThreadData@@PAUHINSTANCE__@@@Z 00414431 f   nafxcw:afxtls.obj
 0001:000134d0       ?DeleteValues@CThreadSlotData@@QAEXPAUHINSTANCE__@@H@Z 004144d0 f   nafxcw:afxtls.obj
 0001:0001352a       ?FreeSlot@CThreadSlotData@@QAEXH@Z 0041452a f   nafxcw:afxtls.obj
 0001:0001358b       ?GetData@CProcessLocalObject@@QAEPAVCNoTrackObject@@P6GPAV2@XZ@Z 0041458b f   nafxcw:afxtls.obj
 0001:000135d9       ?GetData@CThreadLocalObject@@QAEPAVCNoTrackObject@@P6GPAV2@XZ@Z 004145d9 f   nafxcw:afxtls.obj
 0001:00013660       ?GetDataNA@CThreadLocalObject@@QAEPAVCNoTrackObject@@XZ 00414660 f   nafxcw:afxtls.obj
 0001:0001367a       ?GetNextPtr@CSimpleList@@QBEPAPAXPAX@Z 0041467a f i nafxcw:afxtls.obj
 0001:00013693       ?GetThreadValue@CThreadSlotData@@QAEPAXH@Z 00414693 f i nafxcw:afxtls.obj
 0001:000136e3       ?Remove@CSimpleList@@QAEHPAX@Z 004146e3 f   nafxcw:afxtls.obj
 0001:0001374a       ?SetValue@CThreadSlotData@@QAEXHPAX@Z 0041474a f   nafxcw:afxtls.obj
 0001:0001388c       ??0CHandleMap@@QAE@PAUCRuntimeClass@@P6GXPAVCObject@@@Z2IH@Z 0041488c f   nafxcw:winhand.obj
 0001:00013913       ??1CHandleMap@@UAE@XZ      00414913 f i nafxcw:winhand.obj
 0001:00013960       ??_GCHandleMap@@UAEPAXI@Z  00414960 f i nafxcw:winhand.obj
 0001:00013960       ??_ECHandleMap@@UAEPAXI@Z  00414960 f i nafxcw:winhand.obj
 0001:0001397f       ?AfxLockTempMaps@@YGXXZ    0041497f f   nafxcw:winhand.obj
 0001:00013988       ?AfxUnlockTempMaps@@YGHH@Z 00414988 f   nafxcw:winhand.obj
 0001:00013a82       ?DeleteTemp@CHandleMap@@QAEXXZ 00414a82 f   nafxcw:winhand.obj
 0001:00013ae5       ?FromHandle@CHandleMap@@QAEPAVCObject@@PAX@Z 00414ae5 f   nafxcw:winhand.obj
 0001:00013b98       ?AfxExtractSubString@@YGHAAV?$CStringT@DV?$StrTraitMFC@DV?$ChTraitsCRT@D@ATL@@@@@ATL@@PBDHD@Z 00414b98 f   nafxcw:winstr.obj
 0001:00013c21       ?AfxFindStringResourceHandle@@YGPAUHINSTANCE__@@I@Z 00414c21 f   nafxcw:winstr.obj
 0001:00013c2c       ?AfxLoadString@@YGHIPADI@Z 00414c2c f   nafxcw:winstr.obj
 0001:00013c86       ??$SafeRelease@UID2D1HwndRenderTarget@@@@YAXPAPAUID2D1HwndRenderTarget@@@Z 00414c86 f i nafxcw:afxrendertarget.obj
 0001:00013c9f       ??0CD2DSizeU@@QAE@II@Z     00414c9f f   nafxcw:afxrendertarget.obj
 0001:00013cb3       ??0_AFX_D2D_STATE@@QAE@XZ  00414cb3 f   nafxcw:afxrendertarget.obj
 0001:00013cd0       ??_G_AFX_D2D_STATE@@UAEPAXI@Z 00414cd0 f i nafxcw:afxrendertarget.obj
 0001:00013cd0       ??_E_AFX_D2D_STATE@@UAEPAXI@Z 00414cd0 f i nafxcw:afxrendertarget.obj
 0001:00013cf4       ?AfxReleaseD2DRefs@@YAXXZ  00414cf4 f   nafxcw:afxrendertarget.obj
 0001:00013d09       ?BeginDraw@CRenderTarget@@QAEXXZ 00414d09 f   nafxcw:afxrendertarget.obj
 0001:00013d59       ?Create@CHwndRenderTarget@@QAEHPAUHWND__@@@Z 00414d59 f   nafxcw:afxrendertarget.obj
 0001:00013e6c       ?CreateObject@?$CProcessLocal@V_AFX_D2D_STATE@@@@SGPAVCNoTrackObject@@XZ 00414e6c f i nafxcw:afxrendertarget.obj
 0001:00013e81       ?EndDraw@CRenderTarget@@QAEJXZ 00414e81 f   nafxcw:afxrendertarget.obj
 0001:00013e9c       ?InitD2D@_AFX_D2D_STATE@@QAEHW4D2D1_FACTORY_TYPE@@W4DWRITE_FACTORY_TYPE@@@Z 00414e9c f   nafxcw:afxrendertarget.obj
 0001:00013f71       ?ReCreate@CHwndRenderTarget@@QAEHPAUHWND__@@@Z 00414f71 f   nafxcw:afxrendertarget.obj
 0001:00013fd8       ?ReleaseBuffer@?$CSimpleStringT@_W$0A@@ATL@@QAEXH@Z 00414fd8 f i nafxcw:afxrendertarget.obj
 0001:00014004       ?ReleaseD2DRefs@_AFX_D2D_STATE@@QAEXXZ 00415004 f   nafxcw:afxrendertarget.obj
 0001:00014075       ?Resize@CHwndRenderTarget@@QAEHABVCD2DSizeU@@@Z 00415075 f   nafxcw:afxrendertarget.obj
 0001:0001409c       ?VerifyResource@CRenderTarget@@IAEHPAVCD2DResource@@@Z 0041509c f   nafxcw:afxrendertarget.obj
 0001:000140ce       ?AfxOleCanExitApp@@YGHXZ   004150ce f   nafxcw:olelock.obj
 0001:000140de       ?AfxOleGetUserCtrl@@YGHXZ  004150de f   nafxcw:olelock.obj
 0001:000140e7       ?AfxOleSetUserCtrl@@YGXH@Z 004150e7 f   nafxcw:olelock.obj
 0001:000140f9       ??HATL@@YA?AV?$CStringT@DV?$StrTraitMFC@DV?$ChTraitsCRT@D@ATL@@@@@0@ABV10@0@Z 004150f9 f i nafxcw:filelist.obj
 0001:0001414e       ?tcscpy_s@Checked@ATL@@YAXPADIPBD@Z 0041514e f i nafxcw:filelist.obj
 0001:0001416a       ?_AfxApplicationRecoveryFinished@@YAXH@Z 0041516a f   nafxcw:afxwinverapi.obj
 0001:000141b7       ?_AfxApplicationRecoveryInProgress@@YAJPAH@Z 004151b7 f   nafxcw:afxwinverapi.obj
 0001:0001420b       ?_AfxBeginBufferedPaint@@YAPAXPAUHDC__@@PBUtagRECT@@W4_BP_BUFFERFORMAT@@PAU_BP_PAINTPARAMS@@PAPAU1@@Z 0041520b f   nafxcw:afxwinverapi.obj
 0001:00014268       ?_AfxBufferedPaintInit@@YAJXZ 00415268 f   nafxcw:afxwinverapi.obj
 0001:000142b5       ?_AfxBufferedPaintUnInit@@YAJXZ 004152b5 f   nafxcw:afxwinverapi.obj
 0001:00014302       ?_AfxChangeWindowMessageFilter@@YAHIK@Z 00415302 f   nafxcw:afxwinverapi.obj
 0001:00014356       ?_AfxDrawThemeTextEx@@YAJPAXPAUHDC__@@HHPB_WHKPAUtagRECT@@PBU_DTTOPTS@@@Z 00415356 f   nafxcw:afxwinverapi.obj
 0001:000143dd       ?_AfxDwmDefWindowProc@@YAHPAUHWND__@@IIJPAJ@Z 004153dd f   nafxcw:afxwinverapi.obj
 0001:0001443a       ?_AfxDwmInvalidateIconicBitmaps@@YAJPAUHWND__@@@Z 0041543a f   nafxcw:afxwinverapi.obj
 0001:0001448e       ?_AfxDwmIsCompositionEnabled@@YAJPAH@Z 0041548e f   nafxcw:afxwinverapi.obj
 0001:000144e5       ?_AfxDwmSetIconicLivePreviewBitmap@@YAJPAUHWND__@@PAUHBITMAP__@@PAUtagPOINT@@K@Z 004154e5 f   nafxcw:afxwinverapi.obj
 0001:00014542       ?_AfxDwmSetIconicThumbnail@@YAJPAUHWND__@@PAUHBITMAP__@@K@Z 00415542 f   nafxcw:afxwinverapi.obj
 0001:0001459c       ?_AfxDwmSetWindowAttribute@@YAJPAUHWND__@@KPBXK@Z 0041559c f   nafxcw:afxwinverapi.obj
 0001:000145f9       ?_AfxEndBufferedPaint@@YAJPAXH@Z 004155f9 f   nafxcw:afxwinverapi.obj
 0001:00014650       ?_AfxGetLocaleInfoEx@@YAHPB_WKPA_WH@Z 00415650 f   nafxcw:afxwinverapi.obj
 0001:000146c1       ?_AfxGetThreadPreferredUILanguages@@YAHKPAKPA_W0@Z 004156c1 f   nafxcw:afxwinverapi.obj
 0001:00014885       ?_AfxRegisterApplicationRecoveryCallback@@YAJP6GKPAX@Z0KK@Z 00415885 f   nafxcw:afxwinverapi.obj
 0001:000148e2       ?_AfxRegisterApplicationRestart@@YAJPB_WK@Z 004158e2 f   nafxcw:afxwinverapi.obj
 0001:00014939       ?_AfxSHCreateItemFromParsingName@@YAJPB_WPAUIBindCtx@@ABU_GUID@@PAPAX@Z 00415939 f   nafxcw:afxwinverapi.obj
 0001:00014996       ?_AfxSHGetKnownFolderPath@@YAJABU_GUID@@KPAXPAPA_W@Z 00415996 f   nafxcw:afxwinverapi.obj
 0001:000149f3       ??$AtlAddThrow@H@ATL@@YAHHH@Z 004159f3 f i nafxcw:afxdatarecovery.obj
 0001:00014a1b       ??$CompareElements@PAVCWnd@@PAV1@@@YGHPBQAVCWnd@@0@Z 00415a1b f i nafxcw:wincore.obj
 0001:00014a1b       ??$CompareElements@II@@YGHPBI0@Z 00415a1b f i nafxcw:afxtoolbarimages.obj
 0001:00014a1b       ??$CompareElements@KK@@YGHPBK0@Z 00415a1b f i nafxcw:afxcolorbar.obj
 0001:00014a1b       ??$CompareElements@HH@@YGHPBH0@Z 00415a1b f i nafxcw:afxvslistbox.obj
 0001:00014a1b       ??$CompareElements@PAUHWND__@@PAU1@@@YGHPBQAUHWND__@@0@Z 00415a1b f i nafxcw:afxtooltipmanager.obj
 0001:00014a1b       ??$CompareElements@PAVIControlSiteFactory@@PAV1@@@YGHPBQAVIControlSiteFactory@@0@Z 00415a1b f i nafxcw:occmgr.obj
 0001:00014a1b       ??$CompareElements@PAUHMENU__@@PAU1@@@YGHPBQAUHMENU__@@0@Z 00415a1b f i nafxcw:afxmenuhash.obj
 0001:00014a1b       ??$CompareElements@PAUHICON__@@PAU1@@@YGHPBQAUHICON__@@0@Z 00415a1b f i nafxcw:afxbasetabctrl.obj
 0001:00014a1b       ??$CompareElements@PAVCDocument@@PAV1@@@YGHPBQAVCDocument@@0@Z 00415a1b f i nafxcw:afxdatarecovery.obj
 0001:00014a3f       ??$CompareElements@V?$CStringT@DV?$StrTraitMFC@DV?$ChTraitsCRT@D@ATL@@@@@ATL@@PBD@@YGHPBV?$CStringT@DV?$StrTraitMFC@DV?$ChTraitsCRT@D@ATL@@@@@ATL@@PBQBD@Z 00415a3f f i nafxcw:afxdatarecovery.obj
 0001:00014a66       ??$SerializeElements@_N@@YGXAAVCArchive@@PA_NH@Z 00415a66 f i nafxcw:afxdatarecovery.obj
 0001:00014aeb       ??0?$CMap@PAVCDocument@@PAV1@V?$CStringT@DV?$StrTraitMFC@DV?$ChTraitsCRT@D@ATL@@@@@ATL@@PBD@@QAE@H@Z 00415aeb f i nafxcw:afxdatarecovery.obj
 0001:00014b15       ??0?$CMap@V?$CStringT@DV?$StrTraitMFC@DV?$ChTraitsCRT@D@ATL@@@@@ATL@@PBDPAVCDocument@@PAV3@@@QAE@H@Z 00415b15 f i nafxcw:afxdatarecovery.obj
 0001:00014b3f       ??0?$CMap@V?$CStringT@DV?$StrTraitMFC@DV?$ChTraitsCRT@D@ATL@@@@@ATL@@PBDV12@PBD@@QAE@H@Z 00415b3f f i nafxcw:afxdatarecovery.obj
 0001:00014b69       ??0?$CMap@V?$CStringT@DV?$StrTraitMFC@DV?$ChTraitsCRT@D@ATL@@@@@ATL@@PBD_N_N@@QAE@H@Z 00415b69 f i nafxcw:afxdatarecovery.obj
 0001:00014b93       ??0?$CStringT@DV?$StrTraitMFC@DV?$ChTraitsCRT@D@ATL@@@@@ATL@@QAE@PBDPAUIAtlStringMgr@1@@Z 00415b93 f i nafxcw:afxdatarecovery.obj
 0001:00014bd2       ??0CDataRecoveryHandler@@QAE@KH@Z 00415bd2 f   nafxcw:afxdatarecovery.obj
 0001:00014c84       ??0CPair@?$CMap@V?$CStringT@DV?$StrTraitMFC@DV?$ChTraitsCRT@D@ATL@@@@@ATL@@PBDV12@PBD@@IAE@PBD@Z 00415c84 f i nafxcw:afxdatarecovery.obj
 0001:00014ca7       ??1?$CMap@PAVCDocument@@PAV1@V?$CStringT@DV?$StrTraitMFC@DV?$ChTraitsCRT@D@ATL@@@@@ATL@@PBD@@UAE@XZ 00415ca7 f i nafxcw:afxdatarecovery.obj
 0001:00014cb2       ??1?$CMap@V?$CStringT@DV?$StrTraitMFC@DV?$ChTraitsCRT@D@ATL@@@@@ATL@@PBDPAVCDocument@@PAV3@@@UAE@XZ 00415cb2 f i nafxcw:afxdatarecovery.obj
 0001:00014cbd       ??1?$CMap@V?$CStringT@DV?$StrTraitMFC@DV?$ChTraitsCRT@D@ATL@@@@@ATL@@PBDV12@PBD@@UAE@XZ 00415cbd f i nafxcw:afxdatarecovery.obj
 0001:00014cc8       ??1?$CMap@V?$CStringT@DV?$StrTraitMFC@DV?$ChTraitsCRT@D@ATL@@@@@ATL@@PBD_N_N@@UAE@XZ 00415cc8 f i nafxcw:afxdatarecovery.obj
 0001:00014cd3       ??1CDataRecoveryHandler@@UAE@XZ 00415cd3 f   nafxcw:afxdatarecovery.obj
 0001:00014db4       ??1CPair@?$CMap@V?$CStringT@DV?$StrTraitMFC@DV?$ChTraitsCRT@D@ATL@@@@@ATL@@PBDV12@PBD@@QAE@XZ 00415db4 f i nafxcw:afxdatarecovery.obj
 0001:00014dcd       ??A?$CMap@V?$CStringT@DV?$StrTraitMFC@DV?$ChTraitsCRT@D@ATL@@@@@ATL@@PBDPAVCDocument@@PAV3@@@QAEAAPAVCDocument@@PBD@Z 00415dcd f i nafxcw:afxdatarecovery.obj
 0001:00014dcd       ??A?$CMap@V?$CStringT@DV?$StrTraitMFC@DV?$ChTraitsCRT@D@ATL@@@@@ATL@@PBDPAVCObList@@PAV3@@@QAEAAPAVCObList@@PBD@Z 00415dcd f i nafxcw:afxtoolbarscustomizedialog.obj
 0001:00014dcd       ??A?$CMap@V?$CStringT@DV?$StrTraitMFC@DV?$ChTraitsCRT@D@ATL@@@@@ATL@@PBDHH@@QAEAAHPBD@Z 00415dcd f i nafxcw:afxmousemanager.obj
 0001:00014dcd       ??A?$CMap@V?$CStringT@DV?$StrTraitMFC@DV?$ChTraitsCRT@D@ATL@@@@@ATL@@PBD_N_N@@QAEAA_NPBD@Z 00415dcd f i nafxcw:afxdatarecovery.obj
 0001:00014e36       ??A?$CMap@V?$CStringT@DV?$StrTraitMFC@DV?$ChTraitsCRT@D@ATL@@@@@ATL@@PBDV12@PBD@@QAEAAV?$CStringT@DV?$StrTraitMFC@DV?$ChTraitsCRT@D@ATL@@@@@ATL@@PBD@Z 00415e36 f i nafxcw:afxdatarecovery.obj
 0001:00014e9f       ??_G?$CMap@PAVCDocument@@PAV1@V?$CStringT@DV?$StrTraitMFC@DV?$ChTraitsCRT@D@ATL@@@@@ATL@@PBD@@UAEPAXI@Z 00415e9f f i nafxcw:afxdatarecovery.obj
 0001:00014e9f       ??_E?$CMap@PAVCDocument@@PAV1@V?$CStringT@DV?$StrTraitMFC@DV?$ChTraitsCRT@D@ATL@@@@@ATL@@PBD@@UAEPAXI@Z 00415e9f f i nafxcw:afxdatarecovery.obj
 0001:00014ec4       ??_G?$CMap@V?$CStringT@DV?$StrTraitMFC@DV?$ChTraitsCRT@D@ATL@@@@@ATL@@PBDPAVCDocument@@PAV3@@@UAEPAXI@Z 00415ec4 f i nafxcw:afxdatarecovery.obj
 0001:00014ec4       ??_E?$CMap@V?$CStringT@DV?$StrTraitMFC@DV?$ChTraitsCRT@D@ATL@@@@@ATL@@PBDPAVCDocument@@PAV3@@@UAEPAXI@Z 00415ec4 f i nafxcw:afxdatarecovery.obj
 0001:00014ee9       ??_G?$CMap@V?$CStringT@DV?$StrTraitMFC@DV?$ChTraitsCRT@D@ATL@@@@@ATL@@PBDV12@PBD@@UAEPAXI@Z 00415ee9 f i nafxcw:afxdatarecovery.obj
 0001:00014ee9       ??_E?$CMap@V?$CStringT@DV?$StrTraitMFC@DV?$ChTraitsCRT@D@ATL@@@@@ATL@@PBDV12@PBD@@UAEPAXI@Z 00415ee9 f i nafxcw:afxdatarecovery.obj
 0001:00014f0e       ??_E?$CMap@V?$CStringT@DV?$StrTraitMFC@DV?$ChTraitsCRT@D@ATL@@@@@ATL@@PBD_N_N@@UAEPAXI@Z 00415f0e f i nafxcw:afxdatarecovery.obj
 0001:00014f0e       ??_G?$CMap@V?$CStringT@DV?$StrTraitMFC@DV?$ChTraitsCRT@D@ATL@@@@@ATL@@PBD_N_N@@UAEPAXI@Z 00415f0e f i nafxcw:afxdatarecovery.obj
 0001:00014f33       ??_ECDataRecoveryHandler@@UAEPAXI@Z 00415f33 f i nafxcw:afxdatarecovery.obj
 0001:00014f33       ??_GCDataRecoveryHandler@@UAEPAXI@Z 00415f33 f i nafxcw:afxdatarecovery.obj
 0001:00014f52       ?AfxAutosaveTimerProc@@YGXPAUHWND__@@IIK@Z 00415f52 f   nafxcw:afxdatarecovery.obj
 0001:00014f76       ?AutosaveAllDocumentInfo@CDataRecoveryHandler@@UAEHXZ 00415f76 f   nafxcw:afxdatarecovery.obj
 0001:00014fff       ?AutosaveDocumentInfo@CDataRecoveryHandler@@UAEHPAVCDocument@@H@Z 00415fff f   nafxcw:afxdatarecovery.obj
 0001:000151df       ?Compare@?$CStringT@DV?$StrTraitMFC@DV?$ChTraitsCRT@D@ATL@@@@@ATL@@QBEHPBD@Z 004161df f i nafxcw:afxdatarecovery.obj
 0001:00015203       ?CompareNoCase@?$CStringT@DV?$StrTraitMFC@DV?$ChTraitsCRT@D@ATL@@@@@ATL@@QBEHPBD@Z 00416203 f i nafxcw:afxdatarecovery.obj
 0001:00015227       ?Create@CRegKey@ATL@@QAEJPAUHKEY__@@PBDPADKKPAU_SECURITY_ATTRIBUTES@@PAK@Z 00416227 f i nafxcw:afxdatarecovery.obj
 0001:00015298       ?CreateDocumentInfo@CDataRecoveryHandler@@UAEHPAVCDocument@@@Z 00416298 f   nafxcw:afxdatarecovery.obj
 0001:000153b3       ?DeleteAllAutosavedFiles@CDataRecoveryHandler@@UAEHXZ 004163b3 f   nafxcw:afxdatarecovery.obj
 0001:0001545f       ?DeleteAutosavedFile@CDataRecoveryHandler@@UAEHABV?$CStringT@DV?$StrTraitMFC@DV?$ChTraitsCRT@D@ATL@@@@@ATL@@@Z 0041645f f   nafxcw:afxdatarecovery.obj
 0001:00015491       ?DeleteSubKey@CRegKey@ATL@@QAEJPBD@Z 00416491 f i nafxcw:afxdatarecovery.obj
 0001:0001550a       ?FreeAssoc@?$CMap@PAVCDocument@@PAV1@V?$CStringT@DV?$StrTraitMFC@DV?$ChTraitsCRT@D@ATL@@@@@ATL@@PBD@@IAEXPAVCAssoc@1@@Z 0041650a f i nafxcw:afxdatarecovery.obj
 0001:0001553a       ?FreeAssoc@?$CMap@V?$CStringT@DV?$StrTraitMFC@DV?$ChTraitsCRT@D@ATL@@@@@ATL@@PBDPAVCDocument@@PAV3@@@IAEXPAVCAssoc@1@@Z 0041653a f i nafxcw:afxdatarecovery.obj
 0001:00015569       ?FreeAssoc@?$CMap@V?$CStringT@DV?$StrTraitMFC@DV?$ChTraitsCRT@D@ATL@@@@@ATL@@PBDV12@PBD@@IAEXPAVCAssoc@1@@Z 00416569 f i nafxcw:afxdatarecovery.obj
 0001:00015595       ?GenerateAutosaveFileName@CDataRecoveryHandler@@UBE?AV?$CStringT@DV?$StrTraitMFC@DV?$ChTraitsCRT@D@ATL@@@@@ATL@@ABV23@@Z 00416595 f   nafxcw:afxdatarecovery.obj
 0001:000156d5       ?GetAssocAt@?$CMap@V?$CStringT@DV?$StrTraitMFC@DV?$ChTraitsCRT@D@ATL@@@@@ATL@@PBDV12@PBD@@IBEPAVCAssoc@1@PBDAAI1@Z 004166d5 f i nafxcw:afxdatarecovery.obj
 0001:000156d5       ?GetAssocAt@?$CMap@V?$CStringT@DV?$StrTraitMFC@DV?$ChTraitsCRT@D@ATL@@@@@ATL@@PBDPAVCDocument@@PAV3@@@IBEPAVCAssoc@1@PBDAAI1@Z 004166d5 f i nafxcw:afxdatarecovery.obj
 0001:000156d5       ?GetAssocAt@?$CMap@V?$CStringT@DV?$StrTraitMFC@DV?$ChTraitsCRT@D@ATL@@@@@ATL@@PBDPAVCObList@@PAV3@@@IBEPAVCAssoc@1@PBDAAI1@Z 004166d5 f i nafxcw:afxtoolbarscustomizedialog.obj
 0001:000156d5       ?GetAssocAt@?$CMap@V?$CStringT@DV?$StrTraitMFC@DV?$ChTraitsCRT@D@ATL@@@@@ATL@@PBDPAUHMENU__@@PAU3@@@IBEPAVCAssoc@1@PBDAAI1@Z 004166d5 f i nafxcw:afxcontextmenumanager.obj
 0001:000156d5       ?GetAssocAt@?$CMap@V?$CStringT@DV?$StrTraitMFC@DV?$ChTraitsCRT@D@ATL@@@@@ATL@@PBDHH@@IBEPAVCAssoc@1@PBDAAI1@Z 004166d5 f i nafxcw:afxmousemanager.obj
 0001:000156d5       ?GetAssocAt@?$CMap@V?$CStringT@DV?$StrTraitMFC@DV?$ChTraitsCRT@D@ATL@@@@@ATL@@PBD_N_N@@IBEPAVCAssoc@1@PBDAAI1@Z 004166d5 f i nafxcw:afxdatarecovery.obj
 0001:00015727       ?GetAutosaveInterval@CDataRecoveryHandler@@UBEHXZ 00416727 f i nafxcw:afxdatarecovery.obj
 0001:0001572e       ?GetAutosavePath@CDataRecoveryHandler@@UBE?AV?$CStringT@DV?$StrTraitMFC@DV?$ChTraitsCRT@D@ATL@@@@@ATL@@XZ 0041672e f i nafxcw:afxdatarecovery.obj
 0001:00015754       ?GetDocumentListName@CDataRecoveryHandler@@UBE?AV?$CStringT@DV?$StrTraitMFC@DV?$ChTraitsCRT@D@ATL@@@@@ATL@@PAVCDocument@@@Z 00416754 f   nafxcw:afxdatarecovery.obj
 0001:00015816       ?GetNextAssoc@?$CMap@V?$CStringT@DV?$StrTraitMFC@DV?$ChTraitsCRT@D@ATL@@@@@ATL@@PBDV12@PBD@@QBEXAAPAU__POSITION@@AAV?$CStringT@DV?$StrTraitMFC@DV?$ChTraitsCRT@D@ATL@@@@@ATL@@1@Z 00416816 f i nafxcw:afxdatarecovery.obj
 0001:000158a0       ?GetNormalDocumentTitle@CDataRecoveryHandler@@UBE?AV?$CStringT@DV?$StrTraitMFC@DV?$ChTraitsCRT@D@ATL@@@@@ATL@@PAVCDocument@@@Z 004168a0 f   nafxcw:afxdatarecovery.obj
 0001:000158e8       ?GetRecoveredDocumentTitle@CDataRecoveryHandler@@UBE?AV?$CStringT@DV?$StrTraitMFC@DV?$ChTraitsCRT@D@ATL@@@@@ATL@@ABV23@@Z 004168e8 f   nafxcw:afxdatarecovery.obj
 0001:00015961       ?GetRestartIdentifier@CDataRecoveryHandler@@UBE?AV?$CStringT@DV?$StrTraitMFC@DV?$ChTraitsCRT@D@ATL@@@@@ATL@@XZ 00416961 f i nafxcw:afxdatarecovery.obj
 0001:00015987       ?GetSaveDocumentInfoOnIdle@CDataRecoveryHandler@@UBEHXZ 00416987 f i nafxcw:afxdatarecovery.obj
 0001:0001598e       ?GetShutdownByRestartManager@CDataRecoveryHandler@@UBEHXZ 0041698e f i nafxcw:afxdatarecovery.obj
 0001:00015995       ?Initialize@CDataRecoveryHandler@@UAEHXZ 00416995 f   nafxcw:afxdatarecovery.obj
 0001:00015a36       ?Left@?$CStringT@DV?$StrTraitMFC@DV?$ChTraitsCRT@D@ATL@@@@@ATL@@QBE?AV12@H@Z 00416a36 f i nafxcw:afxdatarecovery.obj
 0001:00015a7f       ?Lookup@?$CMap@PAVCDocument@@PAV1@V?$CStringT@DV?$StrTraitMFC@DV?$ChTraitsCRT@D@ATL@@@@@ATL@@PBD@@QBEHPAVCDocument@@AAV?$CStringT@DV?$StrTraitMFC@DV?$ChTraitsCRT@D@ATL@@@@@ATL@@@Z 00416a7f f i nafxcw:afxdatarecovery.obj
 0001:00015a7f       ?Lookup@?$CMap@KKV?$CStringT@DV?$StrTraitMFC@DV?$ChTraitsCRT@D@ATL@@@@@ATL@@PBD@@QBEHKAAV?$CStringT@DV?$StrTraitMFC@DV?$ChTraitsCRT@D@ATL@@@@@ATL@@@Z 00416a7f f i nafxcw:afxcolorbar.obj
 0001:00015aad       ?Lookup@?$CMap@V?$CStringT@DV?$StrTraitMFC@DV?$ChTraitsCRT@D@ATL@@@@@ATL@@PBDV12@PBD@@QBEHPBDAAV?$CStringT@DV?$StrTraitMFC@DV?$ChTraitsCRT@D@ATL@@@@@ATL@@@Z 00416aad f i nafxcw:afxdatarecovery.obj
 0001:00015adb       ?Lookup@?$CMap@V?$CStringT@DV?$StrTraitMFC@DV?$ChTraitsCRT@D@ATL@@@@@ATL@@PBD_N_N@@QBEHPBDAA_N@Z 00416adb f i nafxcw:afxdatarecovery.obj
 0001:00015b05       ?Mid@?$CStringT@DV?$StrTraitMFC@DV?$ChTraitsCRT@D@ATL@@@@@ATL@@QBE?AV12@HH@Z 00416b05 f i nafxcw:afxdatarecovery.obj
 0001:00015b89       ?NewAssoc@?$CMap@V?$CStringT@DV?$StrTraitMFC@DV?$ChTraitsCRT@D@ATL@@@@@ATL@@PBDPAVCDocument@@PAV3@@@IAEPAVCAssoc@1@PBD@Z 00416b89 f i nafxcw:afxdatarecovery.obj
 0001:00015b89       ?NewAssoc@?$CMap@V?$CStringT@DV?$StrTraitMFC@DV?$ChTraitsCRT@D@ATL@@@@@ATL@@PBD_N_N@@IAEPAVCAssoc@1@PBD@Z 00416b89 f i nafxcw:afxdatarecovery.obj
 0001:00015b89       ?NewAssoc@?$CMap@V?$CStringT@DV?$StrTraitMFC@DV?$ChTraitsCRT@D@ATL@@@@@ATL@@PBDHH@@IAEPAVCAssoc@1@PBD@Z 00416b89 f i nafxcw:afxmousemanager.obj
 0001:00015b89       ?NewAssoc@?$CMap@V?$CStringT@DV?$StrTraitMFC@DV?$ChTraitsCRT@D@ATL@@@@@ATL@@PBDPAVCObList@@PAV3@@@IAEPAVCAssoc@1@PBD@Z 00416b89 f i nafxcw:afxtoolbarscustomizedialog.obj
 0001:00015c1a       ?NewAssoc@?$CMap@V?$CStringT@DV?$StrTraitMFC@DV?$ChTraitsCRT@D@ATL@@@@@ATL@@PBDV12@PBD@@IAEPAVCAssoc@1@PBD@Z 00416c1a f i nafxcw:afxdatarecovery.obj
 0001:00015cab       ?Open@CRegKey@ATL@@QAEJPAUHKEY__@@PBDK@Z 00416cab f i nafxcw:afxdatarecovery.obj
 0001:00015d02       ?QueryRestoreAutosavedDocuments@CDataRecoveryHandler@@UAEXXZ 00416d02 f   nafxcw:afxdatarecovery.obj
 0001:00015e9a       ?QueryStringValue@CRegKey@ATL@@QAEJPBDPADPAK@Z 00416e9a f i nafxcw:afxdatarecovery.obj
 0001:00015efc       ?ReadOpenDocumentList@CDataRecoveryHandler@@UAEHXZ 00416efc f   nafxcw:afxdatarecovery.obj
 0001:000160cc       ?RemoveAll@?$CMap@PAVCDocument@@PAV1@V?$CStringT@DV?$StrTraitMFC@DV?$ChTraitsCRT@D@ATL@@@@@ATL@@PBD@@QAEXXZ 004170cc f i nafxcw:afxdatarecovery.obj
 0001:000160cc       ?RemoveAll@?$CMap@KKV?$CStringT@DV?$StrTraitMFC@DV?$ChTraitsCRT@D@ATL@@@@@ATL@@PBD@@QAEXXZ 004170cc f i nafxcw:afxcolorbar.obj
 0001:00016120       ?RemoveAll@?$CMap@V?$CStringT@DV?$StrTraitMFC@DV?$ChTraitsCRT@D@ATL@@@@@ATL@@PBDV12@PBD@@QAEXXZ 00417120 f i nafxcw:afxdatarecovery.obj
 0001:00016170       ?RemoveAll@?$CMap@V?$CStringT@DV?$StrTraitMFC@DV?$ChTraitsCRT@D@ATL@@@@@ATL@@PBDPAVCDocument@@PAV3@@@QAEXXZ 00417170 f i nafxcw:afxdatarecovery.obj
 0001:00016170       ?RemoveAll@?$CMap@V?$CStringT@DV?$StrTraitMFC@DV?$ChTraitsCRT@D@ATL@@@@@ATL@@PBDHH@@QAEXXZ 00417170 f i nafxcw:afxmousemanager.obj
 0001:00016170       ?RemoveAll@?$CMap@V?$CStringT@DV?$StrTraitMFC@DV?$ChTraitsCRT@D@ATL@@@@@ATL@@PBD_N_N@@QAEXXZ 00417170 f i nafxcw:afxdatarecovery.obj
 0001:00016170       ?RemoveAll@?$CMap@V?$CStringT@DV?$StrTraitMFC@DV?$ChTraitsCRT@D@ATL@@@@@ATL@@PBDPAVCObList@@PAV3@@@QAEXXZ 00417170 f i nafxcw:afxtoolbarscustomizedialog.obj
 0001:000161c3       ?RemoveDocumentInfo@CDataRecoveryHandler@@UAEHPAVCDocument@@@Z 004171c3 f   nafxcw:afxdatarecovery.obj
 0001:0001627a       ?RemoveKey@?$CMap@PAVCDocument@@PAV1@V?$CStringT@DV?$StrTraitMFC@DV?$ChTraitsCRT@D@ATL@@@@@ATL@@PBD@@QAEHPAVCDocument@@@Z 0041727a f i nafxcw:afxdatarecovery.obj
 0001:000162e8       ?RemoveKey@?$CMap@V?$CStringT@DV?$StrTraitMFC@DV?$ChTraitsCRT@D@ATL@@@@@ATL@@PBDPAVCDocument@@PAV3@@@QAEHPBD@Z 004172e8 f i nafxcw:afxdatarecovery.obj
 0001:00016356       ?RemoveKey@?$CMap@V?$CStringT@DV?$StrTraitMFC@DV?$ChTraitsCRT@D@ATL@@@@@ATL@@PBDV12@PBD@@QAEHPBD@Z 00417356 f i nafxcw:afxdatarecovery.obj
 0001:000163c4       ?ReopenPreviousDocuments@CDataRecoveryHandler@@UAEHXZ 004173c4 f   nafxcw:afxdatarecovery.obj
 0001:00016582       ?RestoreAutosavedDocuments@CDataRecoveryHandler@@UAEHXZ 00417582 f   nafxcw:afxdatarecovery.obj
 0001:00016a09       ?ReverseFind@?$CStringT@DV?$StrTraitMFC@DV?$ChTraitsCRT@D@ATL@@@@@ATL@@QBEHD@Z 00417a09 f i nafxcw:afxdatarecovery.obj
 0001:00016a2f       ?SaveOpenDocumentList@CDataRecoveryHandler@@UAEHXZ 00417a2f f   nafxcw:afxdatarecovery.obj
 0001:00016b36       ?Serialize@?$CMap@KKV?$CStringT@DV?$StrTraitMFC@DV?$ChTraitsCRT@D@ATL@@@@@ATL@@PBD@@UAEXAAVCArchive@@@Z 00417b36 f i nafxcw:afxcolorbar.obj
 0001:00016b36       ?Serialize@?$CMap@PAVCDocument@@PAV1@V?$CStringT@DV?$StrTraitMFC@DV?$ChTraitsCRT@D@ATL@@@@@ATL@@PBD@@UAEXAAVCArchive@@@Z 00417b36 f i nafxcw:afxdatarecovery.obj
 0001:00016c2c       ?Serialize@?$CMap@V?$CStringT@DV?$StrTraitMFC@DV?$ChTraitsCRT@D@ATL@@@@@ATL@@PBDHH@@UAEXAAVCArchive@@@Z 00417c2c f i nafxcw:afxmousemanager.obj
 0001:00016c2c       ?Serialize@?$CMap@V?$CStringT@DV?$StrTraitMFC@DV?$ChTraitsCRT@D@ATL@@@@@ATL@@PBDPAVCObList@@PAV3@@@UAEXAAVCArchive@@@Z 00417c2c f i nafxcw:afxtoolbarscustomizedialog.obj
 0001:00016c2c       ?Serialize@?$CMap@V?$CStringT@DV?$StrTraitMFC@DV?$ChTraitsCRT@D@ATL@@@@@ATL@@PBDPAVCDocument@@PAV3@@@UAEXAAVCArchive@@@Z 00417c2c f i nafxcw:afxdatarecovery.obj
 0001:00016d1c       ?Serialize@?$CMap@V?$CStringT@DV?$StrTraitMFC@DV?$ChTraitsCRT@D@ATL@@@@@ATL@@PBDV12@PBD@@UAEXAAVCArchive@@@Z 00417d1c f i nafxcw:afxdatarecovery.obj
 0001:00016e4a       ?Serialize@?$CMap@V?$CStringT@DV?$StrTraitMFC@DV?$ChTraitsCRT@D@ATL@@@@@ATL@@PBD_N_N@@UAEXAAVCArchive@@@Z 00417e4a f i nafxcw:afxdatarecovery.obj
 0001:00016f3a       ?SetAutosaveInterval@CDataRecoveryHandler@@UAEXH@Z 00417f3a f   nafxcw:afxdatarecovery.obj
 0001:00016f6d       ?SetAutosavePath@CDataRecoveryHandler@@UAEXABV?$CStringT@DV?$StrTraitMFC@DV?$ChTraitsCRT@D@ATL@@@@@ATL@@@Z 00417f6d f i nafxcw:afxdatarecovery.obj
 0001:00016f7c       ?SetRestartIdentifier@CDataRecoveryHandler@@UAEXABV?$CStringT@DV?$StrTraitMFC@DV?$ChTraitsCRT@D@ATL@@@@@ATL@@@Z 00417f7c f i nafxcw:afxdatarecovery.obj
 0001:00016f8b       ?SetSaveDocumentInfoOnIdle@CDataRecoveryHandler@@UAEXH@Z 00417f8b f i nafxcw:afxdatarecovery.obj
 0001:00016f9b       ?SetShutdownByRestartManager@CDataRecoveryHandler@@UAEXH@Z 00417f9b f i nafxcw:afxdatarecovery.obj
 0001:00016fab       ?SetStringValue@CRegKey@ATL@@QAEJPBD0K@Z 00417fab f i nafxcw:afxdatarecovery.obj
 0001:00016fdf       ?Tokenize@?$CStringT@DV?$StrTraitMFC@DV?$ChTraitsCRT@D@ATL@@@@@ATL@@QBE?AV12@PBDAAH@Z 00417fdf f i nafxcw:afxdatarecovery.obj
 0001:00017099       ?UpdateDocumentInfo@CDataRecoveryHandler@@UAEHPAVCDocument@@@Z 00418099 f   nafxcw:afxdatarecovery.obj
 0001:0001710d       ?ExternalAddRef@CCmdTarget@@QAEKXZ 0041810d f   nafxcw:oleunk.obj
 0001:00017127       ?ExternalDisconnect@CCmdTarget@@QAEXXZ 00418127 f   nafxcw:oleunk.obj
 0001:0001714f       ?ExternalQueryInterface@CCmdTarget@@QAEKPBXPAPAX@Z 0041814f f   nafxcw:oleunk.obj
 0001:0001716e       ?ExternalRelease@CCmdTarget@@QAEKXZ 0041816e f   nafxcw:oleunk.obj
 0001:00017181       ?GetInterface@CCmdTarget@@QAEPAUIUnknown@@PBX@Z 00418181 f   nafxcw:oleunk.obj
 0001:0001723a       ?InternalQueryInterface@CCmdTarget@@QAEKPBXPAPAX@Z 0041823a f   nafxcw:oleunk.obj
 0001:0001727b       ?InternalRelease@CCmdTarget@@QAEKXZ 0041827b f   nafxcw:oleunk.obj
 0001:000172c9       ?QueryAggregates@CCmdTarget@@QAEPAUIUnknown@@PBX@Z 004182c9 f   nafxcw:oleunk.obj
 0001:00017328       ?_AfxQueryInterface@@YGPAUIUnknown@@PAU1@ABU_GUID@@@Z 00418328 f   nafxcw:oleunk.obj
 0001:0001734e       ?_AfxRelease@@YGKPAPAUIUnknown@@@Z 0041834e f   nafxcw:oleunk.obj
 0001:0001736d       ?_AfxReleaseManagedRefs@@YGXPAUIUnknown@@@Z 0041836d f   nafxcw:oleunk.obj
 0001:000173c3       ?Find@?$CStringT@DV?$StrTraitMFC@DV?$ChTraitsCRT@D@ATL@@@@@ATL@@QBEHDH@Z 004183c3 f i nafxcw:docmgr.obj
 0001:000173f9       ?Mid@?$CStringT@DV?$StrTraitMFC@DV?$ChTraitsCRT@D@ATL@@@@@ATL@@QBE?AV12@H@Z 004183f9 f i nafxcw:docmgr.obj
 0001:0001741e       ?SetAt@?$CSimpleStringT@D$0A@@ATL@@QAEXHD@Z 0041841e f i nafxcw:docmgr.obj
 0001:0001745b       ??0CFile@@QAE@PAX@Z        0041845b f   nafxcw:filecore.obj
 0001:0001748a       ??0CFile@@QAE@XZ           0041848a f   nafxcw:filecore.obj
 0001:000174b1       ??0CFileException@@QAE@HJPBD@Z 004184b1 f i nafxcw:filecore.obj
 0001:00017500       ??1CFile@@UAE@XZ           00418500 f   nafxcw:filecore.obj
 0001:00017608       ??1CFileException@@UAE@XZ  00418608 f i nafxcw:filecore.obj
 0001:00017619       ??_ECFile@@UAEPAXI@Z       00418619 f i nafxcw:filecore.obj
 0001:00017619       ??_GCFile@@UAEPAXI@Z       00418619 f i nafxcw:filecore.obj
 0001:00017638       ??_GCFileException@@UAEPAXI@Z 00418638 f i nafxcw:filecore.obj
 0001:00017638       ??_ECFileException@@UAEPAXI@Z 00418638 f i nafxcw:filecore.obj
 0001:00017663       ?Abort@CFile@@UAEXXZ       00418663 f   nafxcw:filecore.obj
 0001:00017682       ?AfxFullPath@@YGHPADPBD@Z  00418682 f   nafxcw:filecore.obj
 0001:00017696       ?AfxGetFileTitle@@YGIPBDPADI@Z 00418696 f   nafxcw:filecore.obj
 0001:0001770d       ?AfxGetRoot@@YGXPBDAAV?$CStringT@DV?$StrTraitMFC@DV?$ChTraitsCRT@D@ATL@@@@@ATL@@@Z 0041870d f   nafxcw:filecore.obj
 0001:00017757       ?Close@CFile@@UAEXXZ       00418757 f   nafxcw:filecore.obj
 0001:00017799       ?CreateFileA@CAtlTransactionManager@ATL@@QAEPAXPBDKKPAU_SECURITY_ATTRIBUTES@@KKPAX@Z 00418799 f i nafxcw:filecore.obj
 0001:0001780b       ?Duplicate@CFile@@UBEPAV1@XZ 0041880b f   nafxcw:filecore.obj
 0001:00017895       ?Flush@CFile@@UAEXXZ       00418895 f   nafxcw:filecore.obj
 0001:000178bc       ?GetLength@CFile@@UBE_KXZ  004188bc f   nafxcw:filecore.obj
 0001:000178fd       ?GetPosition@CFile@@UBE_KXZ 004188fd f   nafxcw:filecore.obj
 0001:00017949       ?GetRuntimeClass@CFile@@UBEPAUCRuntimeClass@@XZ 00418949 f   nafxcw:filecore.obj
 0001:0001794f       ?LockRange@CFile@@UAEX_K0@Z 0041894f f   nafxcw:filecore.obj
 0001:00017982       ?Open@CFile@@UAEHPBDIPAVCAtlTransactionManager@ATL@@PAVCFileException@@@Z 00418982 f   nafxcw:filecore.obj
 0001:0001799d       ?Open@CFile@@UAEHPBDIPAVCFileException@@@Z 0041899d f   nafxcw:filecore.obj
 0001:00017b72       ?Read@CFile@@UAEIPAXI@Z    00418b72 f   nafxcw:filecore.obj
 0001:00017bb5       ?Seek@CFile@@UAE_K_JI@Z    00418bb5 f   nafxcw:filecore.obj
 0001:00017c08       ?SetFilePath@CFile@@UAEXPBD@Z 00418c08 f i nafxcw:filecore.obj
 0001:00017c20       ?SetLength@CFile@@UAEX_K@Z 00418c20 f   nafxcw:filecore.obj
 0001:00017c54       ?StringCchLengthA@@YGJPBDIPAI@Z 00418c54 f i nafxcw:filecore.obj
 0001:00017ccb       ?UnlockRange@CFile@@UAEX_K0@Z 00418ccb f   nafxcw:filecore.obj
 0001:00017cfe       ?Write@CFile@@UAEXPBXI@Z   00418cfe f   nafxcw:filecore.obj
 0001:00017d4a       ?_AfxFillExceptionInfo@@YGXPAVCFileException@@PBD@Z 00418d4a f   nafxcw:filecore.obj
 0001:00017d77       ?_AfxFullPath2@@YGHPADPBDPAVCFileException@@@Z 00418d77 f   nafxcw:filecore.obj
 0001:00017f33       _CommdlgIsolationAwarePrivatetRgCebPnQQeRff_pbZQYTQP_QYY@4 00418f33 f i nafxcw:filecore.obj
 0001:00017fcf       _IsolationAwareGetFileTitleA@12 00418fcf f i nafxcw:filecore.obj
 0001:00018090       ?CanEnterHelpMode@CFrameWnd@@QAEHXZ 00419090 f   nafxcw:winfrmx.obj
 0001:000180ed       ?OnContextHelp@CFrameWnd@@QAEXXZ 004190ed f   nafxcw:winfrmx.obj
 0001:000182b7       ?OnHelp@CFrameWnd@@IAEXXZ  004192b7 f   nafxcw:winfrmx.obj
 0001:000182eb       ?OnHelp@CWnd@@QAEXXZ       004192eb f   nafxcw:winfrmx.obj
 0001:00018389       ?ProcessHelpMsg@CFrameWnd@@IAEHAAUtagMSG@@PAK@Z 00419389 f   nafxcw:winfrmx.obj
 0001:00018596       ?SetHelpCapture@CFrameWnd@@IAEPAUHWND__@@UtagPOINT@@PAH@Z 00419596 f   nafxcw:winfrmx.obj
 0001:000186af       ?_AfxMapClientArea@@YGKPAUHWND__@@UtagPOINT@@@Z 004196af f   nafxcw:winfrmx.obj
 0001:00018721       ?_AfxMapNonClientArea@@YGKH@Z 00419721 f   nafxcw:winfrmx.obj
 0001:0001873a       ??0CArchiveException@@QAE@HPBD@Z 0041973a f i nafxcw:arcex.obj
 0001:00018783       ??_ECArchiveException@@UAEPAXI@Z 00419783 f i nafxcw:arcex.obj
 0001:00018783       ??_GCArchiveException@@UAEPAXI@Z 00419783 f i nafxcw:arcex.obj
 0001:000187ae       ?AfxThrowArchiveException@@YGXHPBD@Z 004197ae f   nafxcw:arcex.obj
 0001:000187f1       ?GetErrorMessage@CArchiveException@@UBEHPADIPAI@Z 004197f1 f   nafxcw:arcex.obj
 0001:000188bd       ?GetRuntimeClass@CArchiveException@@UBEPAUCRuntimeClass@@XZ 004198bd f   nafxcw:arcex.obj
 0001:000188c3       ??0CMemFile@@QAE@I@Z       004198c3 f   nafxcw:filemem.obj
 0001:000188f6       ??0CMemFile@@QAE@PAEII@Z   004198f6 f   nafxcw:filemem.obj
 0001:00018952       ??1CMemFile@@UAE@XZ        00419952 f   nafxcw:filemem.obj
 0001:00018995       ??_GCMemFile@@UAEPAXI@Z    00419995 f i nafxcw:filemem.obj
 0001:00018995       ??_ECMemFile@@UAEPAXI@Z    00419995 f i nafxcw:filemem.obj
 0001:000189b4       ?Abort@CMemFile@@UAEXXZ    004199b4 f   nafxcw:filemem.obj
 0001:000189b9       ?Alloc@CMemFile@@MAEPAEK@Z 004199b9 f   nafxcw:filemem.obj
 0001:000189c9       ?Close@CMemFile@@UAEXXZ    004199c9 f   nafxcw:filemem.obj
 0001:000189f3       ?Detach@CMemFile@@QAEPAEXZ 004199f3 f   nafxcw:filemem.obj
 0001:00018a05       ?Duplicate@CMemFile@@UBEPAVCFile@@XZ 00419a05 f   nafxcw:filemem.obj
 0001:00018a0a       ?GetBufferPtr@CMemFile@@UAEIIIPAPAX0@Z 00419a0a f   nafxcw:filemem.obj
 0001:00018ad2       ?GetLength@CMemFile@@UBE_KXZ 00419ad2 f   nafxcw:filemem.obj
 0001:00018ad8       ?GetPosition@CMemFile@@UBE_KXZ 00419ad8 f   nafxcw:filemem.obj
 0001:00018ade       ?GetRuntimeClass@CMemFile@@UBEPAUCRuntimeClass@@XZ 00419ade f   nafxcw:filemem.obj
 0001:00018ae4       ?GrowFile@CMemFile@@MAEXK@Z 00419ae4 f   nafxcw:filemem.obj
 0001:00018b2d       ?UnlockRange@CMemFile@@UAEX_K0@Z 00419b2d f   nafxcw:filemem.obj
 0001:00018b2d       ?LockRange@CMemFile@@UAEX_K0@Z 00419b2d f   nafxcw:filemem.obj
 0001:00018b33       ?Memcpy@CMemFile@@MAEPAEPAEPBEK@Z 00419b33 f   nafxcw:filemem.obj
 0001:00018b51       ?Read@CMemFile@@UAEIPAXI@Z 00419b51 f   nafxcw:filemem.obj
 0001:00018ba4       ?Realloc@CMemFile@@MAEPAEPAEK@Z 00419ba4 f   nafxcw:filemem.obj
 0001:00018bb8       ?Seek@CMemFile@@UAE_K_JI@Z 00419bb8 f   nafxcw:filemem.obj
 0001:00018c25       ?SetLength@CMemFile@@UAEX_K@Z 00419c25 f   nafxcw:filemem.obj
 0001:00018c6b       ?Write@CMemFile@@UAEXPBXI@Z 00419c6b f   nafxcw:filemem.obj
 0001:00018ccc       ??0CArchive@@QAE@PAVCFile@@IHPAX@Z 00419ccc f   nafxcw:arccore.obj
 0001:00018ddc       ??1CArchive@@QAE@XZ        00419ddc f   nafxcw:arccore.obj
 0001:00018e1e       ??5CArchive@@QAEAAV0@AAE@Z 00419e1e f i nafxcw:arccore.obj
 0001:00018e60       ??5CArchive@@QAEAAV0@AAG@Z 00419e60 f i nafxcw:arccore.obj
 0001:00018ea7       ??5CArchive@@QAEAAV0@AA_K@Z 00419ea7 f i nafxcw:arccore.obj
 0001:00018ef2       ??6CArchive@@QAEAAV0@E@Z   00419ef2 f i nafxcw:arccore.obj
 0001:00018f2c       ??6CArchive@@QAEAAV0@G@Z   00419f2c f i nafxcw:arccore.obj
 0001:00018f6b       ??6CArchive@@QAEAAV0@_K@Z  00419f6b f i nafxcw:arccore.obj
 0001:00018fae       ?Abort@CArchive@@QAEXXZ    00419fae f   nafxcw:arccore.obj
 0001:0001901b       ?AfxReadStringLength@@YGIAAVCArchive@@AAH@Z 0041a01b f   nafxcw:arccore.obj
 0001:000190d6       ?AfxWriteStringLength@@YGXAAVCArchive@@IH@Z 0041a0d6 f   nafxcw:arccore.obj
 0001:00019158       ?Close@CArchive@@QAEXXZ    0041a158 f   nafxcw:arccore.obj
 0001:00019166       ?FillBuffer@CArchive@@QAEXI@Z 0041a166 f   nafxcw:arccore.obj
 0001:0001926f       ?Flush@CArchive@@QAEXXZ    0041a26f f   nafxcw:arccore.obj
 0001:000192e4       ?FromName@CRuntimeClass@@SGPAU1@PBD@Z 0041a2e4 f   nafxcw:arccore.obj
 0001:00019335       ?Load@CRuntimeClass@@SGPAU1@AAVCArchive@@PAI@Z 0041a335 f   nafxcw:arccore.obj
 0001:000193c0       ?Read@CArchive@@QAEIPAXI@Z 0041a3c0 f   nafxcw:arccore.obj
 0001:0001950d       ?ReadCount@CArchive@@QAEKXZ 0041a50d f   nafxcw:arccore.obj
 0001:00019543       ?Store@CRuntimeClass@@QBEXAAVCArchive@@@Z 0041a543 f   nafxcw:arccore.obj
 0001:00019586       ?Write@CArchive@@QAEXPBXI@Z 0041a586 f   nafxcw:arccore.obj
 0001:00019662       ?WriteCount@CArchive@@QAEXK@Z 0041a662 f   nafxcw:arccore.obj
 0001:00019691       ?Create@CPlex@@SGPAU1@AAPAU1@II@Z 0041a691 f   nafxcw:plex.obj
 0001:000196c2       ?FreeDataChain@CPlex@@QAEXXZ 0041a6c2 f   nafxcw:plex.obj
 0001:000196d8       ?GetEventSinkEntry@CCmdTarget@@IAGPBUAFX_EVENTSINKMAP_ENTRY@@IPAUAFX_EVENT@@@Z 0041a6d8 f   nafxcw:occevent.obj
 0001:00019758       ?OnEvent@CCmdTarget@@QAEHIPAUAFX_EVENT@@PAUAFX_CMDHANDLERINFO@@@Z 0041a758 f   nafxcw:occevent.obj
 0001:00019957       ??0CControlCreationInfo@@QAE@XZ 0041a957 f   nafxcw:occcont.obj
 0001:00019964       ??0COleControlContainer@@QAE@PAVCWnd@@@Z 0041a964 f   nafxcw:occcont.obj
 0001:000199d9       ??1?$CTypedPtrList@VCPtrList@@PAUCOleControlSiteOrWnd@@@@UAE@XZ 0041a9d9 f i nafxcw:occcont.obj
 0001:000199de       ??1CEnumUnknown@@UAE@XZ    0041a9de f   nafxcw:occcont.obj
 0001:00019a27       ??1CFont@@UAE@XZ           0041aa27 f i nafxcw:occcont.obj
 0001:00019a32       ??1COleControlContainer@@UAE@XZ 0041aa32 f   nafxcw:occcont.obj
 0001:00019b39       ??1COleControlSiteOrWnd@@QAE@XZ 0041ab39 f   nafxcw:occcont.obj
 0001:00019b48       ??_E?$CTypedPtrList@VCPtrList@@PAUCOleControlSiteOrWnd@@@@UAEPAXI@Z 0041ab48 f i nafxcw:occcont.obj
 0001:00019b48       ??_G?$CTypedPtrList@VCPtrList@@PAUCOleControlSiteOrWnd@@@@UAEPAXI@Z 0041ab48 f i nafxcw:occcont.obj
 0001:00019b67       ??_GCEnumUnknown@@UAEPAXI@Z 0041ab67 f i nafxcw:occcont.obj
 0001:00019b67       ??_ECEnumUnknown@@UAEPAXI@Z 0041ab67 f i nafxcw:occcont.obj
 0001:00019b86       ??_GCFont@@UAEPAXI@Z       0041ab86 f i nafxcw:occcont.obj
 0001:00019b86       ??_ECFont@@UAEPAXI@Z       0041ab86 f i nafxcw:occcont.obj
 0001:00019bab       ??_GCOleControlContainer@@UAEPAXI@Z 0041abab f i nafxcw:occcont.obj
 0001:00019bab       ??_ECOleControlContainer@@UAEPAXI@Z 0041abab f i nafxcw:occcont.obj
 0001:00019bca       ?AddRef@XOleContainer@COleControlContainer@@UAGKXZ 0041abca f   nafxcw:occcont.obj
 0001:00019bdf       ?AddRef@XOleIPFrame@COleControlContainer@@UAGKXZ 0041abdf f   nafxcw:occcont.obj
 0001:00019bf4       ?AfxGetDlgItemStartFromHWND@@YAPAUHWND__@@HPAU1@@Z 0041abf4 f   nafxcw:occcont.obj
 0001:00019c1d       ?BroadcastAmbientPropertyChange@COleControlContainer@@UAEXJ@Z 0041ac1d f   nafxcw:occcont.obj
 0001:00019c88       ?CheckDlgButton@COleControlContainer@@UAEXHI@Z 0041ac88 f   nafxcw:occcont.obj
 0001:00019cc6       ?CheckRadioButton@COleControlContainer@@UAEXHHH@Z 0041acc6 f   nafxcw:occcont.obj
 0001:00019cef       ?CreateControl@COleControlContainer@@QAEHPAVCWnd@@ABU_GUID@@PBDKABUtagRECT@@IPAVCFile@@HPA_WPAPAVCOleControlSite@@@Z 0041acef f   nafxcw:occcont.obj
 0001:00019d82       ?CreateControl@COleControlContainer@@QAEHPAVCWnd@@ABU_GUID@@PBDKPBUtagPOINT@@PBUtagSIZE@@IPAVCFile@@HPA_WPAPAVCOleControlSite@@@Z 0041ad82 f   nafxcw:occcont.obj
 0001:00019e06       ?CreateControlCommon@COleControlContainer@@QAEHPAVCWnd@@ABU_GUID@@ABVCControlCreationInfo@@PBDKPBUtagPOINT@@PBUtagSIZE@@IPAVCFile@@HPA_WPAPAVCOleControlSite@@@Z 0041ae06 f   nafxcw:occcont.obj
 0001:00019f44       ?CreateOleFont@COleControlContainer@@QAEXPAVCFont@@@Z 0041af44 f   nafxcw:occcont.obj
 0001:0001a076       ?EnumObjects@XOleContainer@COleControlContainer@@UAGJKPAPAUIEnumUnknown@@@Z 0041b076 f   nafxcw:occcont.obj
 0001:0001a19c       ?FillListSitesOrWnds@COleControlContainer@@UAEHPAU_AFX_OCC_DIALOG_INFO@@@Z 0041b19c f   nafxcw:occcont.obj
 0001:0001a324       ?FindItem@COleControlContainer@@UBEPAVCOleControlSite@@I@Z 0041b324 f   nafxcw:occcont.obj
 0001:0001a377       ?FreezeAllEvents@COleControlContainer@@QAEXH@Z 0041b377 f   nafxcw:occcont.obj
 0001:0001a3b2       ?GetAmbientProp@COleControlContainer@@UAEHPAVCOleControlSite@@JPAUtagVARIANT@@@Z 0041b3b2 f   nafxcw:occcont.obj
 0001:0001a5ce       ?RequestBorderSpace@XOleIPFrame@COleControlContainer@@UAGJPBUtagRECT@@@Z 0041b5ce f   nafxcw:occcont.obj
 0001:0001a5ce       ?RemoveMenus@XOleIPFrame@COleControlContainer@@UAGJPAUHMENU__@@@Z 0041b5ce f   nafxcw:occcont.obj
 0001:0001a5ce       ?Commit@CArchiveStream@@UAGJK@Z 0041b5ce f   nafxcw:arcstrm.obj
 0001:0001a5ce       ?ContextSensitiveHelp@XOleIPFrame@COleControlContainer@@UAGJH@Z 0041b5ce f   nafxcw:occcont.obj
 0001:0001a5ce       ?ContextSensitiveHelp@CAccessibleProxy@ATL@@UAGJH@Z 0041b5ce f   nafxcw:wincore.obj
 0001:0001a5ce       ?GetTypeInfoCount@XAmbientProps@COleControlSite@@UAGJPAI@Z 0041b5ce f   nafxcw:occsite.obj
 0001:0001a5ce       ?SetBorderSpace@XOleIPFrame@COleControlContainer@@UAGJPBUtagRECT@@@Z 0041b5ce f   nafxcw:occcont.obj
 0001:0001a5ce       ?LockContainer@XOleContainer@COleControlContainer@@UAGJH@Z 0041b5ce f   nafxcw:occcont.obj
 0001:0001a5ce       ?LockInPlaceActive@XOleControlSite@COleControlSite@@UAGJH@Z 0041b5ce f   nafxcw:occsite.obj
 0001:0001a5ce       ?GetBorder@XOleIPFrame@COleControlContainer@@UAGJPAUtagRECT@@@Z 0041b5ce f   nafxcw:occcont.obj
 0001:0001a5ce       ?GetExtendedControl@XOleControlSite@COleControlSite@@UAGJPAPAUIDispatch@@@Z 0041b5ce f   nafxcw:occsite.obj
 0001:0001a5ce       ?GetTypeInfoCount@XEventSink@COleControlSite@@UAGJPAI@Z 0041b5ce f   nafxcw:occsite.obj
 0001:0001a5ce       ?Clone@CArchiveStream@@UAGJPAPAUIStream@@@Z 0041b5ce f   nafxcw:arcstrm.obj
 0001:0001a5ce       ?SetStatusText@XOleIPFrame@COleControlContainer@@UAGJPB_W@Z 0041b5ce f   nafxcw:occcont.obj
 0001:0001a5ce       ?ContextSensitiveHelp@XOleIPSite@COleControlSite@@UAGJH@Z 0041b5ce f   nafxcw:occsite.obj
 0001:0001a5d6       ?GetDispatchMap@COleControlContainer@@MBEPBUAFX_DISPMAP@@XZ 0041b5d6 f   nafxcw:occcont.obj
 0001:0001a5dc       ?GetDlgItem@COleControlContainer@@UBEPAVCWnd@@H@Z 0041b5dc f   nafxcw:occcont.obj
 0001:0001a5fa       ?GetDlgItem@COleControlContainer@@UBEXHPAPAUHWND__@@@Z 0041b5fa f   nafxcw:occcont.obj
 0001:0001a637       ?GetDlgItemInt@COleControlContainer@@UBEIHPAHH@Z 0041b637 f   nafxcw:occcont.obj
 0001:0001a6f1       ?GetDlgItemTextA@COleControlContainer@@UBEHHPADH@Z 0041b6f1 f   nafxcw:occcont.obj
 0001:0001a711       ?GetFont@CWnd@@QBEPAVCFont@@XZ 0041b711 f i nafxcw:occcont.obj
 0001:0001a727       ?GetInterfaceMap@CEnumUnknown@@MBEPBUAFX_INTERFACEMAP@@XZ 0041b727 f   nafxcw:occcont.obj
 0001:0001a72d       ?GetInterfaceMap@COleControlContainer@@MBEPBUAFX_INTERFACEMAP@@XZ 0041b72d f   nafxcw:occcont.obj
 0001:0001a733       ?GetWindow@XOleIPFrame@COleControlContainer@@UAGJPAPAUHWND__@@@Z 0041b733 f   nafxcw:occcont.obj
 0001:0001a74a       ?HandleSetFocus@COleControlContainer@@UAEHXZ 0041b74a f   nafxcw:occcont.obj
 0001:0001a753       ?HandleWindowlessMessage@COleControlContainer@@UAEHIIJPAJ@Z 0041b753 f   nafxcw:occcont.obj
 0001:0001a866       ?InitControlContainer@CWnd@@IAEHH@Z 0041b866 f   nafxcw:occcont.obj
 0001:0001a930       ?IsDlgButtonChecked@COleControlContainer@@UBEIH@Z 0041b930 f   nafxcw:occcont.obj
 0001:0001a99d       ?IsManaged@CControlCreationInfo@@QBEHXZ 0041b99d f   nafxcw:occcont.obj
 0001:0001a9a6       ?OnNext@CEnumUnknown@@MAEHPAX@Z 0041b9a6 f   nafxcw:occcont.obj
 0001:0001a9c7       ?OnPaint@COleControlContainer@@UAEHPAVCDC@@@Z 0041b9c7 f   nafxcw:occcont.obj
 0001:0001aa65       ?OnUIActivate@COleControlContainer@@UAEXPAVCOleControlSite@@@Z 0041ba65 f   nafxcw:occcont.obj
 0001:0001aa8c       ?OnUIDeactivate@COleControlContainer@@UAEXPAVCOleControlSite@@@Z 0041ba8c f   nafxcw:occcont.obj
 0001:0001aaa8       ?ParseDisplayName@XOleContainer@COleControlContainer@@UAGJPAUIBindCtx@@PA_WPAKPAPAUIMoniker@@@Z 0041baa8 f   nafxcw:occcont.obj
 0001:0001aab0       ?QueryInterface@XOleContainer@COleControlContainer@@UAGJABU_GUID@@PAPAX@Z 0041bab0 f   nafxcw:occcont.obj
 0001:0001aac8       ?QueryInterface@XOleIPFrame@COleControlContainer@@UAGJABU_GUID@@PAPAX@Z 0041bac8 f   nafxcw:occcont.obj
 0001:0001aae0       ?Release@XOleContainer@COleControlContainer@@UAGKXZ 0041bae0 f   nafxcw:occcont.obj
 0001:0001aaf2       ?Release@XOleIPFrame@COleControlContainer@@UAGKXZ 0041baf2 f   nafxcw:occcont.obj
 0001:0001ab04       ?ScrollChildren@COleControlContainer@@UAEXHH@Z 0041bb04 f   nafxcw:occcont.obj
 0001:0001ab5a       ?SendDlgItemMessageA@COleControlContainer@@UAEJHIIJ@Z 0041bb5a f   nafxcw:occcont.obj
 0001:0001ab7f       ?SetActiveObject@XOleIPFrame@COleControlContainer@@UAGJPAUIOleInPlaceActiveObject@@PB_W@Z 0041bb7f f   nafxcw:occcont.obj
 0001:0001abb8       ?SetDlgItemInt@COleControlContainer@@UAEXHIH@Z 0041bbb8 f   nafxcw:occcont.obj
 0001:0001ac13       ?SetDlgItemTextA@COleControlContainer@@UAEXHPBD@Z 0041bc13 f   nafxcw:occcont.obj
 0001:0001ac30       ?GetTypeInfo@XEventSink@COleControlSite@@UAGJIKPAPAUITypeInfo@@@Z 0041bc30 f   nafxcw:occsite.obj
 0001:0001ac30       ?GetTypeInfo@XAmbientProps@COleControlSite@@UAGJIKPAPAUITypeInfo@@@Z 0041bc30 f   nafxcw:occsite.obj
 0001:0001ac30       ?GetMoniker@XOleClientSite@COleControlSite@@UAGJKKPAPAUIMoniker@@@Z 0041bc30 f   nafxcw:occsite.obj
 0001:0001ac30       ?SetMenu@XOleIPFrame@COleControlContainer@@UAGJPAUHMENU__@@PAXPAUHWND__@@@Z 0041bc30 f   nafxcw:occcont.obj
 0001:0001ac30       ?GetTypeInfo@XAccessible@CWnd@@UAGJIKPAPAUITypeInfo@@@Z 0041bc30 f   nafxcw:wincore.obj
 0001:0001ac38       ?TransferAddTail@?$CTypedPtrList@VCPtrList@@PAUCOleControlSiteOrWnd@@@@QAEPAU__POSITION@@PAUCOleControlSiteOrWnd@@@Z 0041bc38 f i nafxcw:occcont.obj
 0001:0001ac79       ?TransferInsertBefore@?$_CTypedPtrList@VCPtrList@@PAUCOleControlSiteOrWnd@@@@QAEPAU__POSITION@@PAU2@PAUCOleControlSiteOrWnd@@@Z 0041bc79 f i nafxcw:occcont.obj
 0001:0001acbd       ??$GetValue@PA_W@CDynamicAccessor@ATL@@QBE_NKPAPA_W@Z 0041bcbd f i nafxcw:occsite.obj
 0001:0001acf7       ??$GetValue@UtagDBDATE@@@CDynamicAccessor@ATL@@QBE_NKPAUtagDBDATE@@@Z 0041bcf7 f i nafxcw:occsite.obj
 0001:0001acf7       ??$GetValue@UtagDBTIME@@@CDynamicAccessor@ATL@@QBE_NKPAUtagDBTIME@@@Z 0041bcf7 f i nafxcw:occsite.obj
 0001:0001ad38       ??$GetValue@UtagDBTIMESTAMP@@@CDynamicAccessor@ATL@@QBE_NKPAUtagDBTIMESTAMP@@@Z 0041bd38 f i nafxcw:occsite.obj
 0001:0001ad73       ??$GetValue@UtagDB_NUMERIC@@@CDynamicAccessor@ATL@@QBE_NKPAUtagDB_NUMERIC@@@Z 0041bd73 f i nafxcw:occsite.obj
 0001:0001adb1       ??$SetValue@C@CDynamicAccessor@ATL@@QAE_NKABC@Z 0041bdb1 f i nafxcw:occsite.obj
 0001:0001adb1       ??$SetValue@E@CDynamicAccessor@ATL@@QAE_NKABE@Z 0041bdb1 f i nafxcw:occsite.obj
 0001:0001ade5       ??$SetValue@F@CDynamicAccessor@ATL@@QAE_NKABF@Z 0041bde5 f i nafxcw:occsite.obj
 0001:0001ade5       ??$SetValue@G@CDynamicAccessor@ATL@@QAE_NKABG@Z 0041bde5 f i nafxcw:occsite.obj
 0001:0001ae1b       ??$SetValue@K@CDynamicAccessor@ATL@@QAE_NKABK@Z 0041be1b f i nafxcw:occsite.obj
 0001:0001ae1b       ??$SetValue@PA_W@CDynamicAccessor@ATL@@QAE_NKABQA_W@Z 0041be1b f i nafxcw:occsite.obj
 0001:0001ae1b       ??$SetValue@J@CDynamicAccessor@ATL@@QAE_NKABJ@Z 0041be1b f i nafxcw:occsite.obj
 0001:0001ae4f       ??$SetValue@M@CDynamicAccessor@ATL@@QAE_NKABM@Z 0041be4f f i nafxcw:occsite.obj
 0001:0001ae83       ??$SetValue@N@CDynamicAccessor@ATL@@QAE_NKABN@Z 0041be83 f i nafxcw:occsite.obj
 0001:0001aeb7       ??$SetValue@UtagDEC@@@CDynamicAccessor@ATL@@QAE_NKABUtagDEC@@@Z 0041beb7 f i nafxcw:occsite.obj
 0001:0001aefd       ??0?$CComQIPtr@UIChapteredRowset@@$1?_GUID_0c733a93_2a1c_11ce_ade5_00aa0044773d@@3U__s_GUID@@B@ATL@@QAE@PAUIUnknown@@@Z 0041befd f i nafxcw:occsite.obj
 0001:0001af26       ??0?$CRowset@VCAccessorBase@ATL@@@ATL@@QAE@PAUIRowset@@@Z 0041bf26 f i nafxcw:occsite.obj
 0001:0001af4b       ??0CDataBoundProperty@@QAE@PAV0@JG@Z 0041bf4b f   nafxcw:occsite.obj
 0001:0001af72       ??0CDataSourceControl@@QAE@PAVCOleControlSite@@@Z 0041bf72 f   nafxcw:occsite.obj
 0001:0001afc3       ??0COleControlSite@@QAE@PAVCOleControlContainer@@@Z 0041bfc3 f   nafxcw:occsite.obj
 0001:0001b0e6       ??1?$CRowset@VCAccessorBase@ATL@@@ATL@@QAE@XZ 0041c0e6 f i nafxcw:occsite.obj
 0001:0001b109       ??1CDataSourceControl@@QAE@XZ 0041c109 f   nafxcw:occsite.obj
 0001:0001b305       ??1CManualAccessor@ATL@@QAE@XZ 0041c305 f i nafxcw:occsite.obj
 0001:0001b31c       ??1COleControlSite@@UAE@XZ 0041c31c f   nafxcw:occsite.obj
 0001:0001b4db       ??1COleDispatchDriver@@QAE@XZ 0041c4db f i nafxcw:occsite.obj
 0001:0001b4e0       ??1COleVariant@@QAE@XZ     0041c4e0 f i nafxcw:occsite.obj
 0001:0001b4e8       ??1CRgn@@UAE@XZ            0041c4e8 f i nafxcw:occsite.obj
 0001:0001b4f3       ??4?$CComPtr@UIRowset@@@ATL@@QAEPAUIRowset@@PAU2@@Z 0041c4f3 f i nafxcw:occsite.obj
 0001:0001b521       ??_ECOleControlSite@@UAEPAXI@Z 0041c521 f i nafxcw:occsite.obj
 0001:0001b521       ??_GCOleControlSite@@UAEPAXI@Z 0041c521 f i nafxcw:occsite.obj
 0001:0001b540       ??_GCRgn@@UAEPAXI@Z        0041c540 f i nafxcw:occsite.obj
 0001:0001b540       ??_ECRgn@@UAEPAXI@Z        0041c540 f i nafxcw:occsite.obj
 0001:0001b565       ?AboutToDo@XNotifyDBEvents@COleControlSite@@UAGJKKQAUtagDBNOTIFYREASON@@@Z 0041c565 f   nafxcw:occsite.obj
 0001:0001b5a3       ?AddBindEntry@CManualAccessor@ATL@@QAEXKGKPAX00@Z 0041c5a3 f i nafxcw:occsite.obj
 0001:0001b5f5       ?AddRef@XAmbientProps@COleControlSite@@UAGKXZ 0041c5f5 f   nafxcw:occsite.obj
 0001:0001b60d       ?AddRef@XBoundObjectSite@COleControlSite@@UAGKXZ 0041c60d f   nafxcw:occsite.obj
 0001:0001b63e       ?AddRef@XOleClientSite@COleControlSite@@UAGKXZ 0041c63e f   nafxcw:occsite.obj
 0001:0001b656       ?AddRef@XOleControlSite@COleControlSite@@UAGKXZ 0041c656 f   nafxcw:occsite.obj
 0001:0001b66e       ?AddRef@XOleIPSite@COleControlSite@@UAGKXZ 0041c66e f   nafxcw:occsite.obj
 0001:0001b686       ?AdjustRect@XOleIPSite@COleControlSite@@UAGJPAUtagRECT@@@Z 0041c686 f   nafxcw:occsite.obj
 0001:0001b6ab       ?AllocateAccessorMemory@CAccessorBase@ATL@@QAEJH@Z 0041c6ab f i nafxcw:occsite.obj
 0001:0001b6e4       ?AtlConvertSystemTimeToVariantTime@ATL@@YAHABU_SYSTEMTIME@@PAN@Z 0041c6e4 f i nafxcw:occsite.obj
 0001:0001b796       ?AttachWindow@COleControlSite@@QAEXXZ 0041c796 f   nafxcw:occsite.obj
 0001:0001b7df       ?Bind@CAccessorBase@ATL@@SAXPAUtagDBBINDING@@KGKEEKKKKPAUtagDBOBJECT@@@Z 0041c7df f i nafxcw:occsite.obj
 0001:0001b869       ?BindColumns@CDataSourceControl@@UAEXXZ 0041c869 f   nafxcw:occsite.obj
 0001:0001ba41       ?BindColumns@CDynamicAccessor@ATL@@QAEJPAUIUnknown@@@Z 0041ca41 f i nafxcw:occsite.obj
 0001:0001bf41       ?BindColumns@CManualAccessor@ATL@@QAEJPAUIUnknown@@@Z 0041cf41 f i nafxcw:occsite.obj
 0001:0001bfb5       ?BindDefaultProperty@COleControlSite@@UAEXJGPBDPAVCWnd@@@Z 0041cfb5 f   nafxcw:occsite.obj
 0001:0001c059       ?BindEntries@CAccessorBase@ATL@@SAJPAUtagDBBINDING@@KPAKKPAUIAccessor@@@Z 0041d059 f i nafxcw:occsite.obj
 0001:0001c0bb       ?BindEx@CDynamicAccessor@ATL@@SAXPAUtagDBBINDING@@KGKEEKKKKPAUtagDBOBJECT@@K_N@Z 0041d0bb f i nafxcw:occsite.obj
 0001:0001c148       ?BindProp@CDataSourceControl@@UAEXPAVCDataBoundProperty@@H@Z 0041d148 f   nafxcw:occsite.obj
 0001:0001c18d       ?BindProp@CDataSourceControl@@UAEXPAVCOleControlSite@@H@Z 0041d18d f   nafxcw:occsite.obj
 0001:0001c30c       ?BindProperty@COleControlSite@@UAEXJPAVCWnd@@@Z 0041d30c f   nafxcw:occsite.obj
 0001:0001c3ee       ?OnProcessKey@CMFCRibbonBaseElement@@MAEHI@Z 0041d3ee f   nafxcw:afxbaseribbonelement.obj
 0001:0001c3ee       ?Release@XPropertyNotifySink@COleControlSite@@UAGKXZ 0041d3ee f   nafxcw:occsite.obj
 0001:0001c3ee       ?OnCustomizeMenu@CMFCToolBarButton@@UAEHPAVCMenu@@@Z 0041d3ee f   nafxcw:afxcolorbar.obj
 0001:0001c3ee       ?OnEraseMDIClientBackground@CMDIFrameWndEx@@UAEHPAVCDC@@@Z 0041d3ee f   nafxcw:afxmdiframewndex.obj
 0001:0001c3ee       ?OnSendCommand@CMFCToolBar@@MAEHPBVCMFCToolBarButton@@@Z 0041d3ee f   nafxcw:afxtoolbar.obj
 0001:0001c3ee       ?OnGetCustomToolTipText@CMFCToolBarButton@@UAEHAAV?$CStringT@DV?$StrTraitMFC@DV?$ChTraitsCRT@D@ATL@@@@@ATL@@@Z 0041d3ee f   nafxcw:afxcolorbar.obj
 0001:0001c3ee       ?CompareItem@CComboBox@@UAEHPAUtagCOMPAREITEMSTRUCT@@@Z 0041d3ee f   nafxcw:winctrl1.obj
 0001:0001c3ee       ?OnSetAccData@CMFCBaseAccessibleObject@@UAEHJ@Z 0041d3ee f   nafxcw:afxbaseribbonelement.obj
 0001:0001c3ee       ?GetTabHorzMargin@CMFCVisualManager@@UAEHPBVCMFCBaseTabCtrl@@@Z 0041d3ee f   nafxcw:afxvisualmanager.obj
 0001:0001c3ee       ?IsAutoRepeatMode@CMFCRibbonBaseElement@@UBEHAAH@Z 0041d3ee f   nafxcw:afxbaseribbonelement.obj
 0001:0001c3ee       ?OnEraseBkgnd@CDummyDockablePane@@IAEHPAVCDC@@@Z 0041d3ee f   nafxcw:afxdragframeimpl.obj
 0001:0001c3ee       ?IsDefaultWinXPPopupButton@CMFCVisualManager@@UBEHPAVCMFCDesktopAlertWndButton@@@Z 0041d3ee f   nafxcw:afxvisualmanager.obj
 0001:0001c3ee       ?Release@XNotifyDBEvents@COleControlSite@@UAGKXZ 0041d3ee f   nafxcw:occsite.obj
 0001:0001c3ee       ?EnsureVisible@CMFCBaseTabCtrl@@UAEHH@Z 0041d3ee f   nafxcw:afxbasetabctrl.obj
 0001:0001c3ee       ?CreateSite@COccManager@@UAEPAVCOleControlSite@@PAVCOleControlContainer@@@Z 0041d3ee f   nafxcw:occmgr.obj
 0001:0001c3ee       ?GetDispatchIID@CCmdTarget@@UAEHPAU_GUID@@@Z 0041d3ee f   nafxcw:cmdtarg.obj
 0001:0001c3ee       ?OnShareViolation@CFileDialog@@MAEIPBD@Z 0041d3ee f   nafxcw:dlgfile.obj
 0001:0001c3ee       ?OnInPlaceActivate@XOleIPSite@COleControlSite@@UAGJXZ 0041d3ee f   nafxcw:occsite.obj
 0001:0001c3ee       ?GetPreferedMenuLocation@CMFCRibbonPanel@@UAEHAAVCRect@@@Z 0041d3ee f   nafxcw:afxribbonpanel.obj
 0001:0001c3ee       ?ResizeByPaneDivider@CDockingPanesRow@@UAEHH@Z 0041d3ee f   nafxcw:afxdockingpanesrow.obj
 0001:0001c3ee       ?TranslateChar@CMFCPopupMenuBar@@MAEHI@Z 0041d3ee f   nafxcw:afxcolorbar.obj
 0001:0001c3ee       ?IsToolbarRoundShape@CMFCVisualManager@@UAEHPAVCMFCToolBar@@@Z 0041d3ee f   nafxcw:afxvisualmanager.obj
 0001:0001c3ee       ?Release@XRowsetNotify@COleControlSite@@UAGKXZ 0041d3ee f   nafxcw:occsite.obj
 0001:0001c3ee       ?Release@CArchiveStream@@UAGKXZ 0041d3ee f   nafxcw:arcstrm.obj
 0001:0001c3ee       ?CanInPlaceActivate@XOleIPSite@COleControlSite@@UAGJXZ 0041d3ee f   nafxcw:occsite.obj
 0001:0001c3ee       ?SetOccDialogInfo@CWnd@@MAEHPAU_AFX_OCC_DIALOG_INFO@@@Z 0041d3ee f   nafxcw:wincore.obj
 0001:0001c3ee       ?OnContextHelp@CMFCToolBarButton@@UAEHPAVCWnd@@@Z 0041d3ee f   nafxcw:afxcolorbar.obj
 0001:0001c3ee       ?OnKey@CMFCToolBar@@MAEHI@Z 0041d3ee f   nafxcw:afxtoolbar.obj
 0001:0001c3ee       ?GetScrollBarCtrl@CWnd@@UBEPAVCScrollBar@@H@Z 0041d3ee f   nafxcw:wincore.obj
 0001:0001c3ee       ?GetConnectionHook@CCmdTarget@@MAEPAUIConnectionPoint@@ABU_GUID@@@Z 0041d3ee f   nafxcw:cmdtarg.obj
 0001:0001c3ee       ?GetInterfaceHook@CCmdTarget@@UAEPAUIUnknown@@PBX@Z 0041d3ee f   nafxcw:cmdtarg.obj
 0001:0001c3ee       ?OnMenuKey@CMFCRibbonBaseElement@@UAEHI@Z 0041d3ee f   nafxcw:afxbaseribbonelement.obj
 0001:0001c3ee       ?CanBeDocked@CBasePane@@UBEHPAV1@@Z 0041d3ee f   nafxcw:afxdocksite.obj
 0001:0001c3ee       ?Release@XEventSink@COleControlSite@@UAGKXZ 0041d3ee f   nafxcw:occsite.obj
 0001:0001c3ee       ?GetExtraConnectionPoints@CCmdTarget@@MAEHPAVCPtrArray@@@Z 0041d3ee f   nafxcw:cmdtarg.obj
 0001:0001c3ee       ?DiscardUndoState@XOleIPSite@COleControlSite@@UAGJXZ 0041d3ee f   nafxcw:occsite.obj
 0001:0001c3ee       ?IsSelected@CView@@UBEHPBVCObject@@@Z 0041d3ee f   nafxcw:viewcore.obj
 0001:0001c3ee       ?NotifyCommand@CMFCToolBarButton@@UAEHH@Z 0041d3ee f   nafxcw:afxcolorbar.obj
 0001:0001c3ee       ?CanAcceptPane@CBasePane@@UBEHPBV1@@Z 0041d3ee f   nafxcw:afxcolorbar.obj
 0001:0001c3ee       ?CompareItem@CListBox@@UAEHPAUtagCOMPAREITEMSTRUCT@@@Z 0041d3ee f   nafxcw:winctrl1.obj
 0001:0001c3f3       ?Cancelled@XNotifyDBEvents@COleControlSite@@UAGJKKQAUtagDBNOTIFYREASON@@@Z 0041d3f3 f   nafxcw:occsite.obj
 0001:0001c431       ?Close@?$CRowset@VCAccessorBase@ATL@@@ATL@@QAEXXZ 0041d431 f i nafxcw:occsite.obj
 0001:0001c49c       ?Close@CDynamicAccessor@ATL@@QAEXXZ 0041d49c f i nafxcw:occsite.obj
 0001:0001c4d8       ?ConnectSink@COleControlSite@@IAEKABU_GUID@@PAUIUnknown@@@Z 0041d4d8 f   nafxcw:occsite.obj
 0001:0001c542       ?CopyColumnID@CDataSourceControl@@QAEHPAUtagDBCOLUMNID@@PBU2@@Z 0041d542 f   nafxcw:occsite.obj
 0001:0001c5c4       ?CreateAccessor@CManualAccessor@ATL@@QAEJHPAXK@Z 0041d5c4 f i nafxcw:occsite.obj
 0001:0001c624       ?CreateControl@COleControlSite@@QAEJPAVCWnd@@ABVCControlCreationInfo@@KPBUtagPOINT@@PBUtagSIZE@@I@Z 0041d624 f   nafxcw:occsite.obj
 0001:0001c650       ?CreateControl@COleControlSite@@UAEJPAVCWnd@@ABU_GUID@@PBDKABUtagRECT@@IPAVCFile@@HPA_W@Z 0041d650 f   nafxcw:occsite.obj
 0001:0001c6da       ?CreateControl@COleControlSite@@UAEJPAVCWnd@@ABU_GUID@@PBDKPBUtagPOINT@@PBUtagSIZE@@IPAVCFile@@HPA_W@Z 0041d6da f   nafxcw:occsite.obj
 0001:0001c753       ?CreateControlCommon@COleControlSite@@MAEJPAVCWnd@@ABU_GUID@@ABVCControlCreationInfo@@PBDKPBUtagPOINT@@PBUtagSIZE@@IPAVCFile@@HPA_W@Z 0041d753 f   nafxcw:occsite.obj
 0001:0001ca30       ?CreateOrLoad@COleControlSite@@MAEJABU_GUID@@PAVCFile@@HPA_W@Z 0041da30 f   nafxcw:occsite.obj
 0001:0001cd42       ?CreateOrLoad@COleControlSite@@MAEJABVCControlCreationInfo@@@Z 0041dd42 f   nafxcw:occsite.obj
 0001:0001cd4a       ?DeactivateAndUndo@XOleIPSite@COleControlSite@@UAGJXZ 0041dd4a f   nafxcw:occsite.obj
 0001:0001cd69       ?DestroyControl@COleControlSite@@UAEHXZ 0041dd69 f   nafxcw:occsite.obj
 0001:0001cded       ?DetachWindow@COleControlSite@@QAEXXZ 0041dded f   nafxcw:occsite.obj
 0001:0001ce3b       ?DidEvent@XNotifyDBEvents@COleControlSite@@UAGJKKQAUtagDBNOTIFYREASON@@@Z 0041de3b f   nafxcw:occsite.obj
 0001:0001cea3       ?DisconnectSink@COleControlSite@@IAEXABU_GUID@@K@Z 0041dea3 f   nafxcw:occsite.obj
 0001:0001cf03       ?DoVerb@COleControlSite@@UAEJJPAUtagMSG@@@Z 0041df03 f   nafxcw:occsite.obj
 0001:0001cf47       ?EnableDSC@COleControlSite@@UAEXXZ 0041df47 f   nafxcw:occsite.obj
 0001:0001cf92       ?EnableWindow@COleControlSite@@UAEHH@Z 0041df92 f   nafxcw:occsite.obj
 0001:0001d02b       ?FailedToDo@XNotifyDBEvents@COleControlSite@@UAGJKKQAUtagDBNOTIFYREASON@@@Z 0041e02b f   nafxcw:occsite.obj
 0001:0001d069       ?FireEvent@XNotifyDBEvents@COleControlSite@@QAEJKKQAUtagDBNOTIFYREASON@@W4DSCSTATE@@@Z 0041e069 f   nafxcw:occsite.obj
 0001:0001d14c       ?FreeRecordMemory@CDynamicAccessor@ATL@@QAEXPAUIRowset@@@Z 0041e14c f i nafxcw:occsite.obj
 0001:0001d213       ?FreeType@CAccessorBase@ATL@@SAXGPAEPAUIRowset@@@Z 0041e213 f i nafxcw:occsite.obj
 0001:0001d2c3       ?FreezeEvents@COleControlSite@@QAEXH@Z 0041e2c3 f   nafxcw:occsite.obj
 0001:0001d309       ?GetAlignment@CDynamicAccessor@ATL@@SAIG@Z 0041e309 f i nafxcw:occsite.obj
 0001:0001d3c1       ?GetBoundClientRow@CDataSourceControl@@QAEJXZ 0041e3c1 f   nafxcw:occsite.obj
 0001:0001d41c       ?GetCapture@XOleIPSite@COleControlSite@@UAGJXZ 0041e41c f   nafxcw:occsite.obj
 0001:0001d450       ?GetColumnName@CDynamicAccessor@ATL@@QBEPA_WK@Z 0041e450 f i nafxcw:occsite.obj
 0001:0001d476       ?GetColumnType@CDynamicAccessor@ATL@@QBE_NKPAG@Z 0041e476 f i nafxcw:occsite.obj
 0001:0001d4aa       ?GetContainer@XOleClientSite@COleControlSite@@UAGJPAPAUIOleContainer@@@Z 0041e4aa f   nafxcw:occsite.obj
 0001:0001d4c7       ?GetControlInfo@COleControlSite@@IAEXXZ 0041e4c7 f   nafxcw:occsite.obj
 0001:0001d521       ?GetCursor@CDataBoundProperty@@QAEPAUIUnknown@@XZ 0041e521 f   nafxcw:occsite.obj
 0001:0001d556       ?GetCursor@CDataSourceControl@@UAEPAUIUnknown@@XZ 0041e556 f   nafxcw:occsite.obj
 0001:0001d5bf       ?GetCursor@COleControlSite@@IAEJJPAPAUIUnknown@@PAPAX@Z 0041e5bf f   nafxcw:occsite.obj
 0001:0001d5f7       ?GetCursor@XBoundObjectSite@COleControlSite@@UAGJJPAPAUICursor@@PAPAX@Z 0041e5f7 f   nafxcw:occsite.obj
 0001:0001d631       ?GetDC@XOleIPSite@COleControlSite@@UAGJPBUtagRECT@@KPAPAUHDC__@@@Z 0041e631 f   nafxcw:occsite.obj
 0001:0001d758       ?GetData@?$CRowset@VCAccessorBase@ATL@@@ATL@@QAEJH@Z 0041e758 f i nafxcw:occsite.obj
 0001:0001d789       ?GetData@?$CRowset@VCAccessorBase@ATL@@@ATL@@QAEJXZ 0041e789 f i nafxcw:occsite.obj
 0001:0001d7cd       ?GetDefBtnCode@COleControlSite@@QAEKXZ 0041e7cd f   nafxcw:occsite.obj
 0001:0001d7ec       ?GetDlgCtrlID@COleControlSite@@UBEHXZ 0041e7ec f   nafxcw:occsite.obj
 0001:0001d7f0       ?GetEventIID@COleControlSite@@QAEHPAU_GUID@@@Z 0041e7f0 f   nafxcw:occsite.obj
 0001:0001d96f       ?GetExStyle@COleControlSite@@UBEKXZ 0041e96f f   nafxcw:occsite.obj
 0001:0001d9cf       ?GetFocus@XOleIPSite@COleControlSite@@UAGJXZ 0041e9cf f   nafxcw:occsite.obj
 0001:0001d9f4       ?GetInterfaceMap@COleControlSite@@MBEPBUAFX_INTERFACEMAP@@XZ 0041e9f4 f   nafxcw:occsite.obj
 0001:0001d9fa       ?GetMetaData@CDataSourceControl@@QAEJXZ 0041e9fa f   nafxcw:occsite.obj
 0001:0001dd55       ?GetNext@CDataBoundProperty@@QAEPAV1@XZ 0041ed55 f   nafxcw:occsite.obj
 0001:0001dd59       ?GetProperty@COleControlSite@@UBEXJGPAX@Z 0041ed59 f   nafxcw:occsite.obj
 0001:0001dd76       ?GetRowsetProperties@CDynamicAccessor@ATL@@QAEJPAUIUnknown@@PAKPAHK@Z 0041ed76 f i nafxcw:occsite.obj
 0001:0001de70       ?GetStatus@CDynamicAccessor@ATL@@QBE_NKPAK@Z 0041ee70 f i nafxcw:occsite.obj
 0001:0001dec7       ?GetStyle@COleControlSite@@UBEKXZ 0041eec7 f   nafxcw:occsite.obj
 0001:0001df87       ?GetValue@CDynamicAccessor@ATL@@QBEPAXK@Z 0041ef87 f i nafxcw:occsite.obj
 0001:0001dfb1       ?GetWindow@XOleIPSite@COleControlSite@@UAGJPAPAUHWND__@@@Z 0041efb1 f   nafxcw:occsite.obj
 0001:0001dfde       ?GetWindowContext@XOleIPSite@COleControlSite@@UAGJPAPAUIOleInPlaceFrame@@PAPAUIOleInPlaceUIWindow@@PAUtagRECT@@2PAUtagOIFI@@@Z 0041efde f   nafxcw:occsite.obj
 0001:0001e066       ?GetWindowTextA@COleControlSite@@UBEXAAV?$CStringT@DV?$StrTraitMFC@DV?$ChTraitsCRT@D@ATL@@@@@ATL@@@Z 0041f066 f   nafxcw:occsite.obj
 0001:0001e0c9       ?Initialize@CDataSourceControl@@QAEJXZ 0041f0c9 f   nafxcw:occsite.obj
 0001:0001e2be       ?InvalidateRect@XOleIPSite@COleControlSite@@UAGJPBUtagRECT@@H@Z 0041f2be f   nafxcw:occsite.obj
 0001:0001e367       ?InvalidateRgn@CWnd@@QAEXPAVCRgn@@H@Z 0041f367 f i nafxcw:occsite.obj
 0001:0001e385       ?InvalidateRgn@XOleIPSite@COleControlSite@@UAGJPAUHRGN__@@H@Z 0041f385 f   nafxcw:occsite.obj
 0001:0001e45e       ?Invoke@XAmbientProps@COleControlSite@@UAGJJABU_GUID@@KGPAUtagDISPPARAMS@@PAUtagVARIANT@@PAUtagEXCEPINFO@@PAI@Z 0041f45e f   nafxcw:occsite.obj
 0001:0001e4b6       ?Invoke@XEventSink@COleControlSite@@UAGJJABU_GUID@@KGPAUtagDISPPARAMS@@PAUtagVARIANT@@PAUtagEXCEPINFO@@PAI@Z 0041f4b6 f   nafxcw:occsite.obj
 0001:0001e526       ?InvokeHelper@COleControlSite@@UAAXJGGPAXPBEZZ 0041f526 f   nafxcw:occsite.obj
 0001:0001e546       ?InvokeHelperV@COleControlSite@@UAEXJGGPAXPBEPAD@Z 0041f546 f   nafxcw:occsite.obj
 0001:0001e5a0       ?IsAutoAccessor@CAccessorBase@ATL@@QBE_NK@Z 0041f5a0 f i nafxcw:occsite.obj
 0001:0001e5bd       ?IsDefaultButton@COleControlSite@@QAEHXZ 0041f5bd f   nafxcw:occsite.obj
 0001:0001e5d3       ?IsMatchingMnemonic@COleControlSite@@QAEHPAUtagMSG@@@Z 0041f5d3 f   nafxcw:occsite.obj
 0001:0001e681       ?IsWindowEnabled@COleControlSite@@UBEHXZ 0041f681 f   nafxcw:occsite.obj
 0001:0001e6d5       ?ModifyStyle@COleControlSite@@UAEHKKI@Z 0041f6d5 f   nafxcw:occsite.obj
 0001:0001e771       ?ModifyStyleEx@COleControlSite@@UAEHKKI@Z 0041f771 f   nafxcw:occsite.obj
 0001:0001e7cd       ?MoveFirst@?$CRowset@VCAccessorBase@ATL@@@ATL@@QAEJXZ 0041f7cd f i nafxcw:occsite.obj
 0001:0001e7f0       ?MoveNext@?$CRowset@VCAccessorBase@ATL@@@ATL@@QAEJJ_N@Z 0041f7f0 f i nafxcw:occsite.obj
 0001:0001e84f       ?MoveWindow@COleControlSite@@UAEXHHHH@Z 0041f84f f   nafxcw:occsite.obj
 0001:0001e8e0       ?Notify@CDataBoundProperty@@QAEXXZ 0041f8e0 f   nafxcw:occsite.obj
 0001:0001e971       ?OKToDo@XNotifyDBEvents@COleControlSite@@UAGJKKQAUtagDBNOTIFYREASON@@@Z 0041f971 f   nafxcw:occsite.obj
 0001:0001e9e9       ?OnChanged@XPropertyNotifySink@COleControlSite@@UAGJJ@Z 0041f9e9 f   nafxcw:occsite.obj
 0001:0001eb38       ?OnControlInfoChanged@XOleControlSite@COleControlSite@@UAGJXZ 0041fb38 f   nafxcw:occsite.obj
 0001:0001eb4f       ?OnEvent@COleControlSite@@IAEHPAUAFX_EVENT@@@Z 0041fb4f f   nafxcw:occsite.obj
 0001:0001eb9c       ?OnFieldChange@XRowsetNotify@COleControlSite@@UAGJPAUIRowset@@KKQAKKKH@Z 0041fb9c f   nafxcw:occsite.obj
 0001:0001ec54       ?OnInPlaceActivateEx@XOleIPSite@COleControlSite@@UAGJPAHK@Z 0041fc54 f   nafxcw:occsite.obj
 0001:0001eca9       ?OnInPlaceDeactivate@XOleIPSite@COleControlSite@@UAGJXZ 0041fca9 f   nafxcw:occsite.obj
 0001:0001ecf8       ?OnInPlaceDeactivateEx@XOleIPSite@COleControlSite@@UAGJH@Z 0041fcf8 f   nafxcw:occsite.obj
 0001:0001ed08       ?OnPosRectChange@XOleIPSite@COleControlSite@@UAGJPBUtagRECT@@@Z 0041fd08 f   nafxcw:occsite.obj
 0001:0001ed94       ?OnRequestEdit@XPropertyNotifySink@COleControlSite@@UAGJJ@Z 0041fd94 f   nafxcw:occsite.obj
 0001:0001ee01       ?OnRowChange@XRowsetNotify@COleControlSite@@UAGJPAUIRowset@@KQBKKKH@Z 0041fe01 f   nafxcw:occsite.obj
 0001:0001ef35       ?OnRowsetChange@XRowsetNotify@COleControlSite@@UAGJPAUIRowset@@KKH@Z 0041ff35 f   nafxcw:occsite.obj
 0001:0001efd9       ?OnUIActivate@XOleIPSite@COleControlSite@@UAGJXZ 0041ffd9 f   nafxcw:occsite.obj
 0001:0001effe       ?OnUIDeactivate@XOleIPSite@COleControlSite@@UAGJH@Z 0041fffe f   nafxcw:occsite.obj
 0001:0001f019       ?QueryInterface@XAmbientProps@COleControlSite@@UAGJABU_GUID@@PAPAX@Z 00420019 f   nafxcw:occsite.obj
 0001:0001f034       ?QueryInterface@XBoundObjectSite@COleControlSite@@UAGJABU_GUID@@PAPAX@Z 00420034 f   nafxcw:occsite.obj
 0001:0001f06b       ?QueryInterface@XEventSink@COleControlSite@@UAGJABU_GUID@@PAPAX@Z 0042006b f   nafxcw:occsite.obj
 0001:0001f0cc       ?QueryInterface@XNotifyDBEvents@COleControlSite@@UAGJABU_GUID@@PAPAX@Z 004200cc f   nafxcw:occsite.obj
 0001:0001f116       ?QueryInterface@XOleClientSite@COleControlSite@@UAGJABU_GUID@@PAPAX@Z 00420116 f   nafxcw:occsite.obj
 0001:0001f131       ?QueryInterface@XOleControlSite@COleControlSite@@UAGJABU_GUID@@PAPAX@Z 00420131 f   nafxcw:occsite.obj
 0001:0001f14c       ?QueryInterface@XOleIPSite@COleControlSite@@UAGJABU_GUID@@PAPAX@Z 0042014c f   nafxcw:occsite.obj
 0001:0001f167       ?QueryInterface@XPropertyNotifySink@COleControlSite@@UAGJABU_GUID@@PAPAX@Z 00420167 f   nafxcw:occsite.obj
 0001:0001f1b1       ?QueryInterface@XRowsetNotify@COleControlSite@@UAGJABU_GUID@@PAPAX@Z 004201b1 f   nafxcw:occsite.obj
 0001:0001f1fb       ?QuickActivate@COleControlSite@@UAEHXZ 004201fb f   nafxcw:occsite.obj
 0001:0001f3b2       ?Release@XAmbientProps@COleControlSite@@UAGKXZ 004203b2 f   nafxcw:occsite.obj
 0001:0001f3c7       ?Release@XBoundObjectSite@COleControlSite@@UAGKXZ 004203c7 f   nafxcw:occsite.obj
 0001:0001f3f8       ?Release@XOleClientSite@COleControlSite@@UAGKXZ 004203f8 f   nafxcw:occsite.obj
 0001:0001f40d       ?Release@XOleControlSite@COleControlSite@@UAGKXZ 0042040d f   nafxcw:occsite.obj
 0001:0001f422       ?Release@XOleIPSite@COleControlSite@@UAGKXZ 00420422 f   nafxcw:occsite.obj
 0001:0001f437       ?ReleaseAccessors@CAccessorBase@ATL@@QAEJPAUIUnknown@@@Z 00420437 f i nafxcw:occsite.obj
 0001:0001f4c6       ?ReleaseDC@XOleIPSite@COleControlSite@@UAGJPAUHDC__@@@Z 004204c6 f   nafxcw:occsite.obj
 0001:0001f506       ?ReleaseRows@?$CRowset@VCAccessorBase@ATL@@@ATL@@QAEJXZ 00420506 f i nafxcw:occsite.obj
 0001:0001f526       ?CanWindowlessActivate@XOleIPSite@COleControlSite@@UAGJXZ 00420526 f   nafxcw:occsite.obj
 0001:0001f526       ?RequestUIActivate@XOleIPSite@COleControlSite@@UAGJXZ 00420526 f   nafxcw:occsite.obj
 0001:0001f548       ?SafeSetProperty@COleControlSite@@UAAHJGZZ 00420548 f   nafxcw:occsite.obj
 0001:0001f58e       ?LoadState@CMFCOutlookBarToolBar@@UAEHPBDHI@Z 0042058e f   nafxcw:afxoutlookbartabctrl.obj
 0001:0001f58e       ?SaveState@CMFCOutlookBarToolBar@@UAEHPBDHI@Z 0042058e f   nafxcw:afxoutlookbartabctrl.obj
 0001:0001f58e       ?Scroll@XOleIPSite@COleControlSite@@UAGJUtagSIZE@@@Z 0042058e f   nafxcw:occsite.obj
 0001:0001f58e       ?accHitTest@CMFCBaseAccessibleObject@@UAEJJJPAUtagVARIANT@@@Z 0042058e f   nafxcw:afxbaseribbonelement.obj
 0001:0001f594       ?OnDefWindowMessage@XOleIPSite@COleControlSite@@UAGJIIJPAJ@Z 00420594 f   nafxcw:occsite.obj
 0001:0001f594       ?ScrollRect@XOleIPSite@COleControlSite@@UAGJHHPBUtagRECT@@0@Z 00420594 f   nafxcw:occsite.obj
 0001:0001f5b9       ?SendMnemonic@COleControlSite@@QAEXPAUtagMSG@@@Z 004205b9 f   nafxcw:occsite.obj
 0001:0001f614       ?SetCapture@XOleIPSite@COleControlSite@@UAGJH@Z 00420614 f   nafxcw:occsite.obj
 0001:0001f668       ?SetClientSite@CDataBoundProperty@@QAEXPAVCOleControlSite@@@Z 00420668 f   nafxcw:occsite.obj
 0001:0001f674       ?SetDSCSite@CDataBoundProperty@@QAEXPAVCOleControlSite@@@Z 00420674 f   nafxcw:occsite.obj
 0001:0001f68b       ?SetData@?$CRowset@VCAccessorBase@ATL@@@ATL@@QBEJH@Z 0042068b f i nafxcw:occsite.obj
 0001:0001f6c6       ?SetData@?$CRowset@VCAccessorBase@ATL@@@ATL@@QBEJXZ 004206c6 f i nafxcw:occsite.obj
 0001:0001f6f2       ?SetDateTime@COleDateTime@ATL@@QAEHHHHHHH@Z 004206f2 f i nafxcw:occsite.obj
 0001:0001f762       ?SetDefaultButton@COleControlSite@@QAEXH@Z 00420762 f   nafxcw:occsite.obj
 0001:0001f7c8       ?SetDlgCtrlID@COleControlSite@@UAEHH@Z 004207c8 f   nafxcw:occsite.obj
 0001:0001f7d8       ?SetExtent@COleControlSite@@IAEHXZ 004207d8 f   nafxcw:occsite.obj
 0001:0001f883       ?SetFocus@COleControlSite@@UAEPAVCWnd@@PAUtagMSG@@@Z 00420883 f   nafxcw:occsite.obj
 0001:0001f8df       ?SetFocus@COleControlSite@@UAEPAVCWnd@@XZ 004208df f   nafxcw:occsite.obj
 0001:0001f934       ?SetFocus@XOleIPSite@COleControlSite@@UAGJH@Z 00420934 f   nafxcw:occsite.obj
 0001:0001f978       ?SetProperty@COleControlSite@@UAAXJGZZ 00420978 f   nafxcw:occsite.obj
 0001:0001f98f       ?SetPropertyV@COleControlSite@@UAEXJGPAD@Z 0042098f f   nafxcw:occsite.obj
 0001:0001f9f2       ?SetWindowPos@COleControlSite@@UAEHPBVCWnd@@HHHHI@Z 004209f2 f   nafxcw:occsite.obj
 0001:0001faa1       ?SetWindowTextA@COleControlSite@@UAEXPBD@Z 00420aa1 f   nafxcw:occsite.obj
 0001:0001fae2       ?SetupOptionalRowsetInterfaces@?$CRowset@VCAccessorBase@ATL@@@ATL@@QAEXXZ 00420ae2 f i nafxcw:occsite.obj
 0001:0001faf9       ?ShowObject@XOleClientSite@COleControlSite@@UAGJXZ 00420af9 f   nafxcw:occsite.obj
 0001:0001fb28       ?ShowWindow@COleControlSite@@UAEHH@Z 00420b28 f   nafxcw:occsite.obj
 0001:0001fb68       ?SyncAfter@XNotifyDBEvents@COleControlSite@@UAGJKKQAUtagDBNOTIFYREASON@@@Z 00420b68 f   nafxcw:occsite.obj
 0001:0001fbe9       ?SyncBefore@XNotifyDBEvents@COleControlSite@@UAGJKKQAUtagDBNOTIFYREASON@@@Z 00420be9 f   nafxcw:occsite.obj
 0001:0001fc4d       ?ToVariant@CDataSourceControl@@QAE?AVCOleVariant@@H@Z 00420c4d f   nafxcw:occsite.obj
 0001:0002018c       ?TransformCoords@XOleControlSite@COleControlSite@@UAGJPAU_POINTL@@PAUtagPOINTF@@K@Z 0042118c f   nafxcw:occsite.obj
 0001:00020292       ?TranslateColumnNo@CDynamicAccessor@ATL@@QBE_NAAK@Z 00421292 f i nafxcw:occsite.obj
 0001:000202e6       ?UpdateControls@CDataSourceControl@@UAEJXZ 004212e6 f   nafxcw:occsite.obj
 0001:00020481       ?UpdateCursor@CDataSourceControl@@UAEJXZ 00421481 f   nafxcw:occsite.obj
 0001:00020af0       ?_AfxCoCreateInstanceLic@@YGJABU_GUID@@PAUIUnknown@@K0PAPAXPA_W@Z 00421af0 f   nafxcw:occsite.obj
 0001:00020b87       ?GetDefBtnCode@COccManager@@SAKPAVCWnd@@@Z 00421b87 f   nafxcw:occdlg.obj
 0001:00020bad       ?GetNextDlgGroupItem@CWnd@@QBEPAV1@PAV1@H@Z 00421bad f i nafxcw:occdlg.obj
 0001:00020bd1       ?IsDialogMessageA@COccManager@@UAEHPAVCWnd@@PAUtagMSG@@@Z 00421bd1 f   nafxcw:occdlg.obj
 0001:000210a1       ?IsLabelControl@COccManager@@SAHPAUCOleControlSiteOrWnd@@@Z 004220a1 f   nafxcw:occdlg.obj
 0001:000210f3       ?IsMatchingMnemonic@COccManager@@SAHPAUCOleControlSiteOrWnd@@PAUtagMSG@@@Z 004220f3 f   nafxcw:occdlg.obj
 0001:00021115       ?SetDefaultButton@COccManager@@SAXPAVCWnd@@H@Z 00422115 f   nafxcw:occdlg.obj
 0001:00021162       ?UIActivateControl@COccManager@@KAXPAVCWnd@@@Z 00422162 f   nafxcw:occdlg.obj
 0001:000211d3       ?UIDeactivateIfNecessary@COccManager@@KAXPAVCWnd@@0@Z 004221d3 f   nafxcw:occdlg.obj
 0001:00021256       ?_AfxCheckDefPushButton@@YGXPAVCWnd@@00@Z 00422256 f   nafxcw:occdlg.obj
 0001:00021333       ?_AfxDlgSetFocus@@YGXPAVCWnd@@@Z 00422333 f   nafxcw:occdlg.obj
 0001:00021364       ?_AfxFindDlgItem@@YGPAVCWnd@@PAV1@K@Z 00422364 f   nafxcw:occdlg.obj
 0001:000213c1       ?_AfxFindNextMnem@@YGPAUCOleControlSiteOrWnd@@PAVCWnd@@PAU1@PAUtagMSG@@@Z 004223c1 f   nafxcw:occdlg.obj
 0001:00021511       ?_AfxFindSiteOrWnd@@YGPAUCOleControlSiteOrWnd@@PAVCWnd@@0@Z 00422511 f   nafxcw:occdlg.obj
 0001:00021569       ?_AfxGetChildControl@@YGPAVCWnd@@PAV1@0@Z 00422569 f   nafxcw:occdlg.obj
 0001:000215c0       ?_AfxGetDlgCode@@YGKPAVCWnd@@PAUtagMSG@@@Z 004225c0 f   nafxcw:occdlg.obj
 0001:000215f0       ?_AfxGetNextMnem@@YGPAUCOleControlSiteOrWnd@@PAVCWnd@@0PAUtagMSG@@@Z 004225f0 f   nafxcw:occdlg.obj
 0001:000216e9       ?_AfxNextControl@@YGPAVCWnd@@PAV1@0I@Z 004226e9 f   nafxcw:occdlg.obj
 0001:000217ba       ?_AfxOriginalDefButton@@YGHPAVCWnd@@@Z 004227ba f   nafxcw:occdlg.obj
 0001:000217ed       ?_AfxRemoveDefaultButton@@YGXPAVCWnd@@0@Z 004227ed f   nafxcw:occdlg.obj
 0001:00021851       ??0CPtrList@@QAE@H@Z       00422851 f   nafxcw:list_p.obj
 0001:00021877       ??1CPtrList@@UAE@XZ        00422877 f   nafxcw:list_p.obj
 0001:00021882       ??_GCPtrList@@UAEPAXI@Z    00422882 f i nafxcw:list_p.obj
 0001:00021882       ??_ECPtrList@@UAEPAXI@Z    00422882 f i nafxcw:list_p.obj
 0001:000218a7       ?GetRuntimeClass@CPtrList@@UBEPAUCRuntimeClass@@XZ 004228a7 f   nafxcw:list_p.obj
 0001:000218ad       ?InsertBefore@CPtrList@@QAEPAU__POSITION@@PAU2@PAX@Z 004228ad f   nafxcw:list_p.obj
 0001:000218ad       ?InsertBefore@CObList@@QAEPAU__POSITION@@PAU2@PAVCObject@@@Z 004228ad f   nafxcw:list_o.obj
 0001:000218eb       ?RemoveAll@CObList@@QAEXXZ 004228eb f   nafxcw:list_o.obj
 0001:000218eb       ?RemoveAll@CPtrList@@QAEXXZ 004228eb f   nafxcw:list_p.obj
 0001:0002190b       ??0CMapPtrToPtr@@QAE@H@Z   0042290b f   nafxcw:map_pp.obj
 0001:0002193c       ??1CMapPtrToPtr@@UAE@XZ    0042293c f   nafxcw:map_pp.obj
 0001:00021947       ??ACMapPtrToPtr@@QAEAAPAXPAX@Z 00422947 f   nafxcw:map_pp.obj
 0001:000219a0       ??_GCMapPtrToPtr@@UAEPAXI@Z 004229a0 f i nafxcw:map_pp.obj
 0001:000219a0       ??_ECMapPtrToPtr@@UAEPAXI@Z 004229a0 f i nafxcw:map_pp.obj
 0001:000219c5       ?FreeAssoc@CMapPtrToPtr@@IAEXPAUCAssoc@1@@Z 004229c5 f   nafxcw:map_pp.obj
 0001:000219e1       ?GetAssocAt@CMapPtrToPtr@@IBEPAUCAssoc@1@PAXAAI1@Z 004229e1 f   nafxcw:map_pp.obj
 0001:00021a1f       ?GetNextAssoc@CMapPtrToPtr@@QBEXAAPAU__POSITION@@AAPAX1@Z 00422a1f f   nafxcw:map_pp.obj
 0001:00021aa0       ?GetRuntimeClass@CMapPtrToPtr@@UBEPAUCRuntimeClass@@XZ 00422aa0 f   nafxcw:map_pp.obj
 0001:00021aa6       ?GetValueAt@CMapPtrToPtr@@QBEPAXPAX@Z 00422aa6 f   nafxcw:map_pp.obj
 0001:00021aed       ?Lookup@CMapPtrToPtr@@QBEHPAXAAPAX@Z 00422aed f   nafxcw:map_pp.obj
 0001:00021b17       ?NewAssoc@CMapPtrToPtr@@IAEPAUCAssoc@1@XZ 00422b17 f   nafxcw:map_pp.obj
 0001:00021b62       ?RemoveKey@CMapPtrToPtr@@QAEHPAX@Z 00422b62 f   nafxcw:map_pp.obj
 0001:00021bb1       ?AfxUnregisterWndClasses@@YGXXZ 00422bb1 f   nafxcw:appterm.obj
 0001:00021c56       ?AfxWinTerm@@YGXXZ         00422c56 f   nafxcw:appterm.obj
 0001:00021cca       ?AfxWingdixTerm@@YAXXZ     00422cca f   nafxcw:wingdix.obj
 0001:00021cd5       ?CombineRgn@CRgn@@QAEHPBV1@0H@Z 00422cd5 f i nafxcw:wingdix.obj
 0001:00021d08       ?DPtoHIMETRIC@CDC@@QBEXPAUtagSIZE@@@Z 00422d08 f   nafxcw:wingdix.obj
 0001:00021d98       ?Draw3dRect@CDC@@QAEXHHHHKK@Z 00422d98 f   nafxcw:wingdix.obj
 0001:00021e02       ?Draw3dRect@CDC@@QAEXPBUtagRECT@@KK@Z 00422e02 f   nafxcw:wingdix.obj
 0001:00021e29       ?DrawDragRect@CDC@@QAEXPBUtagRECT@@UtagSIZE@@01PAVCBrush@@2@Z 00422e29 f   nafxcw:wingdix.obj
 0001:000220ee       ?FillSolidRect@CDC@@QAEXHHHHK@Z 004230ee f   nafxcw:wingdix.obj
 0001:00022150       ?FillSolidRect@CDC@@QAEXPBUtagRECT@@K@Z 00423150 f   nafxcw:wingdix.obj
 0001:00022192       ?GetHalftoneBrush@CDC@@SGPAVCBrush@@XZ 00423192 f   nafxcw:wingdix.obj
 0001:00022238       ?HIMETRICtoDP@CDC@@QBEXPAUtagSIZE@@@Z 00423238 f   nafxcw:wingdix.obj
 0001:000222cb       ??0CMFCControlContainer@@QAE@PAVCWnd@@@Z 004232cb f   nafxcw:afxctrlcontainer.obj
 0001:00022308       ??1CMFCControlContainer@@UAE@XZ 00423308 f   nafxcw:afxctrlcontainer.obj
 0001:00022350       ??_GCMFCControlContainer@@UAEPAXI@Z 00423350 f i nafxcw:afxctrlcontainer.obj
 0001:00022350       ??_ECMFCControlContainer@@UAEPAXI@Z 00423350 f i nafxcw:afxctrlcontainer.obj
 0001:0002236f       ?AfxDoRegisterMFCControlClass@@YAXPBD0@Z 0042336f f   nafxcw:afxctrlcontainer.obj
 0001:000223c6       ?ClearControlData@CMFCControlContainer@@QAEXXZ 004233c6 f   nafxcw:afxctrlcontainer.obj
 0001:00022416       ?CreateDlgControl@CMFCControlContainer@@IAEPAVCWnd@@PBD@Z 00423416 f   nafxcw:afxctrlcontainer.obj
 0001:0002269d       ?FreeSubclassedControls@CMFCControlContainer@@QAEXXZ 0042369d f   nafxcw:afxctrlcontainer.obj
 0001:000226e3       ?GetControlData@CMFCControlContainer@@QAEHGAAKAAPAE@Z 004236e3 f   nafxcw:afxctrlcontainer.obj
 0001:00022722       ?IsSubclassedFeaturePackControl@CMFCControlContainer@@QAEHPAUHWND__@@@Z 00423722 f   nafxcw:afxctrlcontainer.obj
 0001:00022766       ?ReSubclassControl@CMFCControlContainer@@QAEHPAUHWND__@@GAAVCWnd@@@Z 00423766 f   nafxcw:afxctrlcontainer.obj
 0001:00022848       ?SetControlData@CMFCControlContainer@@QAEXGKPAE@Z 00423848 f   nafxcw:afxctrlcontainer.obj
 0001:000228bb       ?DDX_CBIndex@@YGXPAVCDataExchange@@HAAH@Z 004238bb f   nafxcw:dlgdata.obj
 0001:00022910       ?DDX_CBString@@YGXPAVCDataExchange@@HAAV?$CStringT@DV?$StrTraitMFC@DV?$ChTraitsCRT@D@ATL@@@@@ATL@@@Z 00423910 f   nafxcw:dlgdata.obj
 0001:000229c5       ?DDX_Check@@YGXPAVCDataExchange@@HAAH@Z 004239c5 f   nafxcw:dlgdata.obj
 0001:00022a26       ?DDX_Text@@YGXPAVCDataExchange@@HAAH@Z 00423a26 f   nafxcw:dlgdata.obj
 0001:00022a55       ?DDX_Text@@YGXPAVCDataExchange@@HAAI@Z 00423a55 f   nafxcw:dlgdata.obj
 0001:00022a84       ?DDX_Text@@YGXPAVCDataExchange@@HAAV?$CStringT@DV?$StrTraitMFC@DV?$ChTraitsCRT@D@ATL@@@@@ATL@@@Z 00423a84 f   nafxcw:dlgdata.obj
 0001:00022add       ?Fail@CDataExchange@@QAEXXZ 00423add f   nafxcw:dlgdata.obj
 0001:00022b2f       ?PrepareCtrl@CDataExchange@@QAEPAUHWND__@@H@Z 00423b2f f   nafxcw:dlgdata.obj
 0001:00022b73       ?_Afx_DDX_TextWithFormat@@YAXPAVCDataExchange@@HPBDIZZ 00423b73 f   nafxcw:dlgdata.obj
 0001:00022c43       ?AfxIsValidAddress@@YGHPBXIH@Z 00423c43 f   nafxcw:validadd.obj
 0001:00022c52       ?AfxIsValidString@@YGHPBDH@Z 00423c52 f   nafxcw:validadd.obj
 0001:00022c61       ?CreateObject@CMenu@@SGPAVCObject@@XZ 00423c61 f   nafxcw:winmenu.obj
 0001:00022c7b       ??0CChevronOwnerDrawMenu@@QAE@XZ 00423c7b f   nafxcw:winmenu.obj
 0001:00022cfe       ??1CChevronOwnerDrawMenu@@UAE@XZ 00423cfe f i nafxcw:winmenu.obj
 0001:00022d38       ??1CMenu@@UAE@XZ           00423d38 f i nafxcw:winmenu.obj
 0001:00022d43       ??_GCChevronOwnerDrawMenu@@UAEPAXI@Z 00423d43 f i nafxcw:winmenu.obj
 0001:00022d43       ??_ECChevronOwnerDrawMenu@@UAEPAXI@Z 00423d43 f i nafxcw:winmenu.obj
 0001:00022d62       ??_ECMenu@@UAEPAXI@Z       00423d62 f i nafxcw:winmenu.obj
 0001:00022d62       ??_GCMenu@@UAEPAXI@Z       00423d62 f i nafxcw:winmenu.obj
 0001:00022d87       ?Attach@CMenu@@QAEHPAUHMENU__@@@Z 00423d87 f   nafxcw:winmenu.obj
 0001:00022db3       ?Construct@?$ConstructDestruct@VCMenu@@@@SGXPAVCObject@@@Z 00423db3 f i nafxcw:winmenu.obj
 0001:00022dcb       ?DestroyMenu@CMenu@@QAEHXZ 00423dcb f   nafxcw:winmenu.obj
 0001:00022de1       ?Detach@CMenu@@QAEPAUHMENU__@@XZ 00423de1 f   nafxcw:winmenu.obj
 0001:00022e0b       ?DrawItem@CChevronOwnerDrawMenu@@UAEXPAUtagDRAWITEMSTRUCT@@@Z 00423e0b f   nafxcw:winmenu.obj
 0001:00023304       ?FromHandle@CMenu@@SGPAV1@PAUHMENU__@@@Z 00424304 f   nafxcw:winmenu.obj
 0001:00023316       ?FromHandlePermanent@CMenu@@SGPAV1@PAUHMENU__@@@Z 00424316 f   nafxcw:winmenu.obj
 0001:0002333a       ?GetMenuStringA@CMenu@@QBEHIAAV?$CStringT@DV?$StrTraitMFC@DV?$ChTraitsCRT@D@ATL@@@@@ATL@@I@Z 0042433a f   nafxcw:winmenu.obj
 0001:00023392       ?GetRuntimeClass@CMenu@@UBEPAUCRuntimeClass@@XZ 00424392 f   nafxcw:winmenu.obj
 0001:00023398       ?GetTextExtent@CDC@@QBE?AVCSize@@ABV?$CStringT@DV?$StrTraitMFC@DV?$ChTraitsCRT@D@ATL@@@@@ATL@@@Z 00424398 f i nafxcw:winmenu.obj
 0001:000233c7       ?MeasureItem@CChevronOwnerDrawMenu@@UAEXPAUtagMEASUREITEMSTRUCT@@@Z 004243c7 f   nafxcw:winmenu.obj
 0001:0002351c       ?afxMapHMENU@@YGPAVCHandleMap@@H@Z 0042451c f   nafxcw:winmenu.obj
 0001:0002358d       ??0CSyncObject@@QAE@PBD@Z  0042458d f   nafxcw:mtcore.obj
 0001:0002359c       ??1CSyncObject@@UAE@XZ     0042459c f   nafxcw:mtcore.obj
 0001:000235ba       ??_ECSyncObject@@UAEPAXI@Z 004245ba f i nafxcw:mtcore.obj
 0001:000235ba       ??_GCSyncObject@@UAEPAXI@Z 004245ba f i nafxcw:mtcore.obj
 0001:000235d9       ?GetRuntimeClass@CCriticalSection@@UBEPAUCRuntimeClass@@XZ 004245d9 f   nafxcw:mtcore.obj
 0001:000235df       ?GetRuntimeClass@CSyncObject@@UBEPAUCRuntimeClass@@XZ 004245df f   nafxcw:mtcore.obj
 0001:000235e5       ?Lock@CSyncObject@@UAEHK@Z 004245e5 f   nafxcw:mtcore.obj
 0001:0002360a       ?_AfxInitDBCS@@YGHXZ       0042460a f   nafxcw:afxdbcs.obj
 0001:00023643       ??0?$CStringT@_WV?$StrTraitMFC@_WV?$ChTraitsCRT@_W@ATL@@@@@ATL@@QAE@PBDPAUIAtlStringMgr@1@@Z 00424643 f i nafxcw:ctlreg.obj
 0001:00023682       ?AfxBSTR2ABSTR@@YGPA_WPA_W@Z 00424682 f   nafxcw:olecnvrt.obj
 0001:000236de       ?AfxBSTR2CString@@YGXPAV?$CStringT@DV?$StrTraitMFC@DV?$ChTraitsCRT@D@ATL@@@@@ATL@@PA_W@Z 004246de f   nafxcw:olecnvrt.obj
 0001:00023732       ??0?$CFixedStringT@V?$CStringT@_WV?$StrTraitMFC@_WV?$ChTraitsCRT@_W@ATL@@@@@ATL@@$0BAA@@ATL@@QAE@PBD@Z 00424732 f i nafxcw:olevar.obj
 0001:00023779       ??0CFixedStringMgr@ATL@@QAE@PAUCStringData@1@HPAUIAtlStringMgr@1@@Z 00424779 f i nafxcw:olevar.obj
 0001:000237b8       ??0COleVariant@@QAE@FG@Z   004247b8 f   nafxcw:olevar.obj
 0001:000237eb       ??0COleVariant@@QAE@JG@Z   004247eb f   nafxcw:olevar.obj
 0001:0002384f       ??0COleVariant@@QAE@PBDG@Z 0042484f f   nafxcw:olevar.obj
 0001:000238c2       ??0COleVariant@@QAE@PBUtagVARIANT@@@Z 004248c2 f   nafxcw:olevar.obj
 0001:000238c2       ??0COleVariant@@QAE@ABUtagVARIANT@@@Z 004248c2 f   nafxcw:olevar.obj
 0001:000238c2       ??0COleVariant@@QAE@ABV0@@Z 004248c2 f   nafxcw:olevar.obj
 0001:000238e5       ??1?$CFixedStringT@V?$CStringT@_WV?$StrTraitMFC@_WV?$ChTraitsCRT@_W@ATL@@@@@ATL@@$0BAA@@ATL@@UAE@XZ 004248e5 f i nafxcw:olevar.obj
 0001:0002390b       ??1CFixedStringMgr@ATL@@UAE@XZ 0042490b f i nafxcw:olevar.obj
 0001:00023912       ??4COleVariant@@QAEABV0@ABUtagVARIANT@@@Z 00424912 f   nafxcw:olevar.obj
 0001:00023912       ??4COleVariant@@QAEABV0@ABV0@@Z 00424912 f   nafxcw:olevar.obj
 0001:00023934       ??4COleVariant@@QAEABV0@J@Z 00424934 f   nafxcw:olevar.obj
 0001:0002397b       ??5CArchive@@QAEAAV0@AAJ@Z 0042497b f i nafxcw:olevar.obj
 0001:0002397b       ??5CArchive@@QAEAAV0@AAK@Z 0042497b f i nafxcw:arccore.obj
 0001:000239c0       ??6CArchive@@QAEAAV0@J@Z   004249c0 f i nafxcw:olevar.obj
 0001:000239c0       ??6CArchive@@QAEAAV0@K@Z   004249c0 f i nafxcw:arccore.obj
 0001:000239fd       ??_E?$CFixedStringT@V?$CStringT@_WV?$StrTraitMFC@_WV?$ChTraitsCRT@_W@ATL@@@@@ATL@@$0BAA@@ATL@@UAEPAXI@Z 004249fd f i nafxcw:olevar.obj
 0001:000239fd       ??_G?$CFixedStringT@V?$CStringT@_WV?$StrTraitMFC@_WV?$ChTraitsCRT@_W@ATL@@@@@ATL@@$0BAA@@ATL@@UAEPAXI@Z 004249fd f i nafxcw:olevar.obj
 0001:00023a1c       ??_GCFixedStringMgr@ATL@@UAEPAXI@Z 00424a1c f i nafxcw:olevar.obj
 0001:00023a1c       ??_ECFixedStringMgr@ATL@@UAEPAXI@Z 00424a1c f i nafxcw:olevar.obj
 0001:00023a3c       ?AfxCheckError@@YGXJ@Z     00424a3c f   nafxcw:olevar.obj
 0001:00023a5f       ?AfxVariantInit@@YGXPAUtagVARIANT@@@Z 00424a5f f   nafxcw:olevar.obj
 0001:00023a75       ?AllocSysString@?$CStringT@_WV?$StrTraitMFC@_WV?$ChTraitsCRT@_W@ATL@@@@@ATL@@QBEPA_WXZ 00424a75 f i nafxcw:olevar.obj
 0001:00023a8a       ?Allocate@CFixedStringMgr@ATL@@UAEPAUCStringData@2@HH@Z 00424a8a f i nafxcw:olevar.obj
 0001:00023ae5       ?ChangeType@COleVariant@@QAEXGPAUtagVARIANT@@@Z 00424ae5 f   nafxcw:olevar.obj
 0001:00023b12       ?Format@COleDateTime@ATL@@QBE?AV?$CStringT@DV?$StrTraitMFC@DV?$ChTraitsCRT@D@ATL@@@@@2@KK@Z 00424b12 f i nafxcw:olevar.obj
 0001:00023c78       ?Free@CFixedStringMgr@ATL@@UAEXPAUCStringData@2@@Z 00424c78 f i nafxcw:olevar.obj
 0001:00023cb0       ?Reallocate@CFixedStringMgr@ATL@@UAEPAUCStringData@2@PAU32@HH@Z 00424cb0 f i nafxcw:olevar.obj
 0001:00023d4b       ?CreateObject@CObArray@@SGPAVCObject@@XZ 00424d4b f   nafxcw:array_o.obj
 0001:00023d61       ??0CObArray@@QAE@XZ        00424d61 f   nafxcw:array_o.obj
 0001:00023d78       ??1CObArray@@UAE@XZ        00424d78 f   nafxcw:array_o.obj
 0001:00023d88       ?GetAt@CObArray@@QBEPAVCObject@@H@Z 00424d88 f i nafxcw:array_o.obj
 0001:00023d88       ?GetAt@CPtrArray@@QBEPAXH@Z 00424d88 f i nafxcw:arcobj.obj
 0001:00023da7       ?GetRuntimeClass@CObArray@@UBEPAUCRuntimeClass@@XZ 00424da7 f   nafxcw:array_o.obj
 0001:00023dad       ?Serialize@CObArray@@UAEXAAVCArchive@@@Z 00424dad f   nafxcw:array_o.obj
 0001:00023e25       ?SetAtGrow@CObArray@@QAEXHPAVCObject@@@Z 00424e25 f   nafxcw:array_o.obj
 0001:00023e25       ?SetAtGrow@CUIntArray@@QAEXHI@Z 00424e25 f   nafxcw:array_u.obj
 0001:00023e25       ?SetAtGrow@CPtrArray@@QAEXHPAX@Z 00424e25 f   nafxcw:array_p.obj
 0001:00023e58       ?SetSize@CPtrArray@@QAEXHH@Z 00424e58 f   nafxcw:array_p.obj
 0001:00023e58       ?SetSize@CUIntArray@@QAEXHH@Z 00424e58 f   nafxcw:array_u.obj
 0001:00023e58       ?SetSize@CObArray@@QAEXHH@Z 00424e58 f   nafxcw:array_o.obj
 0001:00023f7f       ??0CMFCShellListCtrl@@QAE@XZ 00424f7f f   nafxcw:afxshelllistctrl.obj
 0001:00023fc5       ??4COleDateTime@ATL@@QAEAAV01@AB_J@Z 00424fc5 f i nafxcw:afxshelllistctrl.obj
 0001:00024023       ??MCTime@ATL@@QBE_NV01@@Z  00425023 f i nafxcw:afxshelllistctrl.obj
 0001:00024042       ??OCTime@ATL@@QBE_NV01@@Z  00425042 f i nafxcw:afxshelllistctrl.obj
 0001:00024061       ??_ECMFCShellListCtrl@@UAEPAXI@Z 00425061 f i nafxcw:afxshelllistctrl.obj
 0001:00024061       ??_GCMFCShellListCtrl@@UAEPAXI@Z 00425061 f i nafxcw:afxshelllistctrl.obj
 0001:00024086       ?DisplayFolder@CMFCShellListCtrl@@UAEJPAU_AFX_SHELLITEMINFO@@@Z 00425086 f   nafxcw:afxshelllistctrl.obj
 0001:000241c6       ?DisplayFolder@CMFCShellListCtrl@@UAEJPBD@Z 004251c6 f   nafxcw:afxshelllistctrl.obj
 0001:00024255       ?DisplayParentFolder@CMFCShellListCtrl@@UAEJXZ 00425255 f   nafxcw:afxshelllistctrl.obj
 0001:000242ee       ?DoDefault@CMFCShellListCtrl@@MAEXH@Z 004252ee f   nafxcw:afxshelllistctrl.obj
 0001:000244b5       ?EnumObjects@CMFCShellListCtrl@@MAEJPAUIShellFolder@@PAU_ITEMIDLIST@@@Z 004254b5 f   nafxcw:afxshelllistctrl.obj
 0001:00024697       ?GetAsSystemTime@CTime@ATL@@QBE_NAAU_SYSTEMTIME@@@Z 00425697 f i nafxcw:afxshelllistctrl.obj
 0001:00024714       ?GetHeaderCtrl@CMFCListCtrl@@UAEAAVCMFCHeaderCtrl@@XZ 00425714 f i nafxcw:afxshelllistctrl.obj
 0001:00024718       ?GetLocalTm@CTime@ATL@@QBEPAUtm@@PAU3@@Z 00425718 f i nafxcw:afxshelllistctrl.obj
 0001:00024770       ?GetMessageMap@CMFCShellListCtrl@@MBEPBUAFX_MSGMAP@@XZ 00425770 f   nafxcw:afxshelllistctrl.obj
 0001:00024776       ?GetRelatedTree@CMFCShellListCtrl@@IBEPAVCMFCShellTreeCtrl@@XZ 00425776 f   nafxcw:afxshelllistctrl.obj
 0001:00024795       ?GetRuntimeClass@CMFCShellListCtrl@@UBEPAUCRuntimeClass@@XZ 00425795 f   nafxcw:afxshelllistctrl.obj
 0001:0002479b       ?GetShellImageList@CMFCShellListCtrl@@IAEPAU_IMAGELIST@@H@Z 0042579b f   nafxcw:afxshelllistctrl.obj
 0001:00024801       ?InitList@CMFCShellListCtrl@@IAEHXZ 00425801 f   nafxcw:afxshelllistctrl.obj
 0001:000248a6       ?LockCurrentFolder@CMFCShellListCtrl@@IAEJPAU_AFX_SHELLITEMINFO@@@Z 004258a6 f   nafxcw:afxshelllistctrl.obj
 0001:0002492c       ?MakeUpper@?$CStringT@DV?$StrTraitMFC@DV?$ChTraitsCRT@D@ATL@@@@@ATL@@QAEAAV12@XZ 0042592c f i nafxcw:afxshelllistctrl.obj
 0001:00024954       ?OnCompareItems@CMFCShellListCtrl@@UAEHJJH@Z 00425954 f   nafxcw:afxshelllistctrl.obj
 0001:00024b79       ?OnContextMenu@CMFCShellListCtrl@@IAEXPAVCWnd@@VCPoint@@@Z 00425b79 f   nafxcw:afxshelllistctrl.obj
 0001:00024f18       ?OnCreate@CMFCShellListCtrl@@IAEHPAUtagCREATESTRUCTA@@@Z 00425f18 f   nafxcw:afxshelllistctrl.obj
 0001:00024f42       ?OnDblClk@CMFCShellListCtrl@@IAEXPAUtagNMHDR@@PAJ@Z 00425f42 f   nafxcw:afxshelllistctrl.obj
 0001:00024f42       ?OnReturn@CMFCShellListCtrl@@IAEXPAUtagNMHDR@@PAJ@Z 00425f42 f   nafxcw:afxshelllistctrl.obj
 0001:00024f75       ?OnDeleteitem@CMFCShellListCtrl@@IAEXPAUtagNMHDR@@PAJ@Z 00425f75 f   nafxcw:afxshelllistctrl.obj
 0001:00024fc6       ?OnDestroy@CMFCShellListCtrl@@IAEXXZ 00425fc6 f   nafxcw:afxshelllistctrl.obj
 0001:00024fe5       ?OnFormatFileDate@CMFCShellListCtrl@@UAEXABVCTime@ATL@@AAV?$CStringT@DV?$StrTraitMFC@DV?$ChTraitsCRT@D@ATL@@@@@3@@Z 00425fe5 f   nafxcw:afxshelllistctrl.obj
 0001:00025047       ?OnFormatFileSize@CMFCShellListCtrl@@UAEX_JAAV?$CStringT@DV?$StrTraitMFC@DV?$ChTraitsCRT@D@ATL@@@@@ATL@@@Z 00426047 f   nafxcw:afxshelllistctrl.obj
 0001:00025095       ?OnGetCellBkColor@CMFCListCtrl@@UAEKHH@Z 00426095 f i nafxcw:afxshelllistctrl.obj
 0001:000250aa       ?OnGetCellTextColor@CMFCListCtrl@@UAEKHH@Z 004260aa f i nafxcw:afxshelllistctrl.obj
 0001:000250bf       ?OnGetItemIcon@CMFCShellListCtrl@@UAEHHPAU_AFX_SHELLITEMINFO@@@Z 004260bf f   nafxcw:afxshelllistctrl.obj
 0001:0002511b       ?OnGetItemText@CMFCShellListCtrl@@UAE?AV?$CStringT@DV?$StrTraitMFC@DV?$ChTraitsCRT@D@ATL@@@@@ATL@@HHPAU_AFX_SHELLITEMINFO@@@Z 0042611b f   nafxcw:afxshelllistctrl.obj
 0001:000252a0       ?OnInitControl@CMFCShellListCtrl@@IAEJIJ@Z 004262a0 f   nafxcw:afxshelllistctrl.obj
 0001:0002535c       ?OnSetColumns@CMFCShellListCtrl@@UAEXXZ 0042635c f   nafxcw:afxshelllistctrl.obj
 0001:00025423       ?PreSubclassWindow@CMFCShellListCtrl@@MAEXXZ 00426423 f   nafxcw:afxshelllistctrl.obj
 0001:00025440       ?Refresh@CMFCShellListCtrl@@UAEJXZ 00426440 f   nafxcw:afxshelllistctrl.obj
 0001:0002544b       ?ReleaseCurrFolder@CMFCShellListCtrl@@IAEXXZ 0042644b f   nafxcw:afxshelllistctrl.obj
 0001:0002547f       ?SetImageList@CListCtrl@@QAEPAVCImageList@@PAV2@H@Z 0042647f f i nafxcw:afxshelllistctrl.obj
 0001:000254a8       ?StringUppercase@?$ChTraitsCRT@D@ATL@@SAPADPADI@Z 004264a8 f i nafxcw:afxshelllistctrl.obj
 0001:000254c4       ?WindowProc@CMFCShellListCtrl@@MAEJIIJ@Z 004264c4 f   nafxcw:afxshelllistctrl.obj
 0001:0002550b       ??0CFixedAllocNoSync@@QAE@II@Z 0042650b f   nafxcw:fixalloc.obj
 0001:00025537       ??1CFixedAllocNoSync@@QAE@XZ 00426537 f   nafxcw:fixalloc.obj
 0001:0002553c       ?Alloc@CFixedAllocNoSync@@QAEPAXXZ 0042653c f   nafxcw:fixalloc.obj
 0001:0002557e       ?FreeAll@CFixedAllocNoSync@@QAEXXZ 0042657e f   nafxcw:fixalloc.obj
 0001:00025593       ?CreateObject@CObList@@SGPAVCObject@@XZ 00426593 f   nafxcw:list_o.obj
 0001:000255ac       ??0CObList@@QAE@H@Z        004265ac f   nafxcw:list_o.obj
 0001:000255d2       ??1CObList@@UAE@XZ         004265d2 f   nafxcw:list_o.obj
 0001:000255dd       ??_ECObList@@UAEPAXI@Z     004265dd f i nafxcw:list_o.obj
 0001:000255dd       ??_GCObList@@UAEPAXI@Z     004265dd f i nafxcw:list_o.obj
 0001:00025602       ?AddHead@CObList@@QAEPAU__POSITION@@PAVCObject@@@Z 00426602 f   nafxcw:list_o.obj
 0001:00025602       ?AddHead@CPtrList@@QAEPAU__POSITION@@PAX@Z 00426602 f   nafxcw:list_p.obj
 0001:0002562f       ?AddTail@CObList@@QAEPAU__POSITION@@PAVCObject@@@Z 0042662f f   nafxcw:list_o.obj
 0001:0002562f       ?AddTail@CPtrList@@QAEPAU__POSITION@@PAX@Z 0042662f f   nafxcw:list_p.obj
 0001:0002565b       ?AddTail@CObList@@QAEXPAV1@@Z 0042665b f   nafxcw:list_o.obj
 0001:00025699       ?Find@CPtrList@@QBEPAU__POSITION@@PAXPAU2@@Z 00426699 f   nafxcw:list_p.obj
 0001:00025699       ?Find@CObList@@QBEPAU__POSITION@@PAVCObject@@PAU2@@Z 00426699 f   nafxcw:list_o.obj
 0001:000256c2       ?FreeNode@CPtrList@@IAEXPAUCNode@1@@Z 004266c2 f   nafxcw:list_p.obj
 0001:000256c2       ?FreeNode@CObList@@IAEXPAUCNode@1@@Z 004266c2 f   nafxcw:list_o.obj
 0001:000256e8       ?GetPrev@CObList@@QAEAAPAVCObject@@AAPAU__POSITION@@@Z 004266e8 f i nafxcw:list_o.obj
 0001:000256e8       ?GetPrev@CPtrList@@QAEAAPAXAAPAU__POSITION@@@Z 004266e8 f i nafxcw:winocc.obj
 0001:00025706       ?GetRuntimeClass@CObList@@UBEPAUCRuntimeClass@@XZ 00426706 f   nafxcw:list_o.obj
 0001:0002570c       ?InsertAfter@CObList@@QAEPAU__POSITION@@PAU2@PAVCObject@@@Z 0042670c f   nafxcw:list_o.obj
 0001:00025748       ?NewNode@CObList@@IAEPAUCNode@1@PAU21@0@Z 00426748 f   nafxcw:list_o.obj
 0001:00025748       ?NewNode@CPtrList@@IAEPAUCNode@1@PAU21@0@Z 00426748 f   nafxcw:list_p.obj
 0001:000257a0       ?RemoveAt@CObList@@QAEXPAU__POSITION@@@Z 004267a0 f   nafxcw:list_o.obj
 0001:000257a0       ?RemoveAt@CPtrList@@QAEXPAU__POSITION@@@Z 004267a0 f   nafxcw:list_p.obj
 0001:000257e3       ?RemoveHead@CObList@@QAEPAVCObject@@XZ 004267e3 f   nafxcw:list_o.obj
 0001:000257e3       ?RemoveHead@CPtrList@@QAEPAXXZ 004267e3 f   nafxcw:list_p.obj
 0001:00025815       ?RemoveTail@CObList@@QAEPAVCObject@@XZ 00426815 f   nafxcw:list_o.obj
 0001:00025839       ?Serialize@CObList@@UAEXAAVCArchive@@@Z 00426839 f   nafxcw:list_o.obj
 0001:00025894       ?AfxThrowFileException@@YGXHJPBD@Z 00426894 f   nafxcw:filex.obj
 0001:000258da       ?GetErrorMessage@CFileException@@UBEHPADIPAI@Z 004268da f   nafxcw:filex.obj
 0001:000259a6       ?GetRuntimeClass@CFileException@@UBEPAUCRuntimeClass@@XZ 004269a6 f   nafxcw:filex.obj
 0001:000259ac       ?OsErrorToException@CFileException@@SGHJ@Z 004269ac f   nafxcw:filex.obj
 0001:00025c40       ?ThrowOsError@CFileException@@SGXJPBD@Z 00426c40 f   nafxcw:filex.obj
 0001:00025c5f       ?AfxGetFileName@@YGIPBDPADI@Z 00426c5f f   nafxcw:appinit.obj
 0001:00025ca4       ?AfxWinInit@@YGHPAUHINSTANCE__@@0PADH@Z 00426ca4 f   nafxcw:appinit.obj
 0001:00025d00       ?SetCurrentHandles@CWinApp@@QAEXXZ 00426d00 f   nafxcw:appinit.obj
 0001:00025ec0       ??0CTime@ATL@@QAE@ABU_FILETIME@@H@Z 00426ec0 f i nafxcw:filest.obj
 0001:00025f36       ??0CTime@ATL@@QAE@ABU_SYSTEMTIME@@H@Z 00426f36 f i nafxcw:filest.obj
 0001:00025f90       ??0CTime@ATL@@QAE@HHHHHHH@Z 00426f90 f i nafxcw:filest.obj
 0001:00026041       ?GetFileAttributesExA@CAtlTransactionManager@ATL@@QAEHPBDW4_GET_FILEEX_INFO_LEVELS@@PAX@Z 00427041 f i nafxcw:filest.obj
 0001:00026095       ?GetFileName@CFile@@UBE?AV?$CStringT@DV?$StrTraitMFC@DV?$ChTraitsCRT@D@ATL@@@@@ATL@@XZ 00427095 f   nafxcw:filest.obj
 0001:00026130       ?GetFilePath@CFile@@UBE?AV?$CStringT@DV?$StrTraitMFC@DV?$ChTraitsCRT@D@ATL@@@@@ATL@@XZ 00427130 f   nafxcw:filest.obj
 0001:000261a0       ?GetFileTitle@CFile@@UBE?AV?$CStringT@DV?$StrTraitMFC@DV?$ChTraitsCRT@D@ATL@@@@@ATL@@XZ 004271a0 f   nafxcw:filest.obj
 0001:0002623b       ?GetStatus@CFile@@QBEHAAUCFileStatus@@@Z 0042723b f   nafxcw:filest.obj
 0001:000263c6       ?GetStatus@CFile@@SGHPBDAAUCFileStatus@@PAVCAtlTransactionManager@ATL@@@Z 004273c6 f   nafxcw:filest.obj
 0001:00026529       ?IsValidFILETIME@CTime@ATL@@SGHABU_FILETIME@@@Z 00427529 f i nafxcw:filest.obj
 0001:0002656f       ?CreateObject@CStringList@@SGPAVCObject@@XZ 0042756f f   nafxcw:list_s.obj
 0001:00026588       ??0CStringList@@QAE@H@Z    00427588 f   nafxcw:list_s.obj
 0001:000265ae       ??1CStringList@@UAE@XZ     004275ae f   nafxcw:list_s.obj
 0001:000265b9       ??_GCStringList@@UAEPAXI@Z 004275b9 f i nafxcw:list_s.obj
 0001:000265b9       ??_ECStringList@@UAEPAXI@Z 004275b9 f i nafxcw:list_s.obj
 0001:000265de       ?AddHead@CStringList@@QAEPAU__POSITION@@ABV?$CStringT@DV?$StrTraitMFC@DV?$ChTraitsCRT@D@ATL@@@@@ATL@@@Z 004275de f   nafxcw:list_s.obj
 0001:00026616       ?AddTail@CStringList@@QAEPAU__POSITION@@ABV?$CStringT@DV?$StrTraitMFC@DV?$ChTraitsCRT@D@ATL@@@@@ATL@@@Z 00427616 f   nafxcw:list_s.obj
 0001:0002664d       ?AddTail@CStringList@@QAEPAU__POSITION@@PBD@Z 0042764d f   nafxcw:list_s.obj
 0001:00026689       ?Find@CStringList@@QBEPAU__POSITION@@PBDPAU2@@Z 00427689 f   nafxcw:list_s.obj
 0001:000266b9       ?FindIndex@CObList@@QBEPAU__POSITION@@H@Z 004276b9 f   nafxcw:list_o.obj
 0001:000266b9       ?FindIndex@?$CList@KK@@QBEPAU__POSITION@@H@Z 004276b9 f   nafxcw:afxtoolbarcomboboxbutton.obj
 0001:000266b9       ?FindIndex@CStringList@@QBEPAU__POSITION@@H@Z 004276b9 f   nafxcw:list_s.obj
 0001:000266da       ?FreeNode@CStringList@@IAEXPAUCNode@1@@Z 004276da f   nafxcw:list_s.obj
 0001:00026719       ?GetRuntimeClass@CStringList@@UBEPAUCRuntimeClass@@XZ 00427719 f   nafxcw:list_s.obj
 0001:0002671f       ?InsertBefore@CStringList@@QAEPAU__POSITION@@PAU2@ABV?$CStringT@DV?$StrTraitMFC@DV?$ChTraitsCRT@D@ATL@@@@@ATL@@@Z 0042771f f   nafxcw:list_s.obj
 0001:00026768       ?InsertBefore@CStringList@@QAEPAU__POSITION@@PAU2@PBD@Z 00427768 f   nafxcw:list_s.obj
 0001:000267a7       ?NewNode@CStringList@@IAEPAUCNode@1@PAU21@0@Z 004277a7 f   nafxcw:list_s.obj
 0001:00026819       ?RemoveAll@CStringList@@QAEXXZ 00427819 f   nafxcw:list_s.obj
 0001:00026859       ?RemoveHead@CStringList@@QAE?AV?$CStringT@DV?$StrTraitMFC@DV?$ChTraitsCRT@D@ATL@@@@@ATL@@XZ 00427859 f   nafxcw:list_s.obj
 0001:000268ca       ?Serialize@CStringList@@UAEXAAVCArchive@@@Z 004278ca f   nafxcw:list_s.obj
 0001:0002694f       ??0?$CStringT@_WV?$StrTraitMFC@_WV?$ChTraitsCRT@_W@ATL@@@@@ATL@@QAE@PB_W@Z 0042794f f i nafxcw:dlgfile.obj
 0001:00026993       ??0CFileDialog@@QAE@HPBD0K0PAVCWnd@@KH@Z 00427993 f   nafxcw:dlgfile.obj
 0001:00026c50       ??1CFileDialog@@UAE@XZ     00427c50 f   nafxcw:dlgfile.obj
 0001:00026ce8       ??A?$CSimpleStringT@_W$0A@@ATL@@QBE_WH@Z 00427ce8 f i nafxcw:dlgfile.obj
 0001:00026d0c       ??_ECFileDialog@@UAEPAXI@Z 00427d0c f i nafxcw:dlgfile.obj
 0001:00026d0c       ??_GCFileDialog@@UAEPAXI@Z 00427d0c f i nafxcw:dlgfile.obj
 0001:00026d2b       ?AddRef@XFileDialogControlEvents@CFileDialog@@UAGKXZ 00427d2b f   nafxcw:dlgfile.obj
 0001:00026d5c       ?AddRef@XFileDialogEvents@CFileDialog@@UAGKXZ 00427d5c f   nafxcw:dlgfile.obj
 0001:00026d8d       ?ApplyOFNToShellDialog@CFileDialog@@QAEXXZ 00427d8d f   nafxcw:dlgfile.obj
 0001:00027316       ?DoModal@CFileDialog@@UAEHXZ 00428316 f   nafxcw:dlgfile.obj
 0001:00027458       ?GetIFileSaveDialog@CFileDialog@@QAEPAUIFileSaveDialog@@XZ 00428458 f   nafxcw:dlgfile.obj
 0001:00027485       ?GetInterfaceMap@CFileDialog@@MBEPBUAFX_INTERFACEMAP@@XZ 00428485 f   nafxcw:dlgfile.obj
 0001:0002748b       ?GetOFN@CFileDialog@@QAEAAUtagOFNA@@XZ 0042848b f   nafxcw:dlgfile.obj
 0001:00027492       ?GetPathName@CFileDialog@@QBE?AV?$CStringT@DV?$StrTraitMFC@DV?$ChTraitsCRT@D@ATL@@@@@ATL@@XZ 00428492 f   nafxcw:dlgfile.obj
 0001:00027661       ?GetRuntimeClass@CFileDialog@@UBEPAUCRuntimeClass@@XZ 00428661 f   nafxcw:dlgfile.obj
 0001:00027667       ?OnButtonClicked@XFileDialogControlEvents@CFileDialog@@UAGJPAUIFileDialogCustomize@@K@Z 00428667 f   nafxcw:dlgfile.obj
 0001:000276a0       ?OnCheckButtonToggled@XFileDialogControlEvents@CFileDialog@@UAGJPAUIFileDialogCustomize@@KH@Z 004286a0 f   nafxcw:dlgfile.obj
 0001:000276dc       ?OnControlActivating@XFileDialogControlEvents@CFileDialog@@UAGJPAUIFileDialogCustomize@@K@Z 004286dc f   nafxcw:dlgfile.obj
 0001:00027715       ?OnFileOk@XFileDialogEvents@CFileDialog@@UAGJPAUIFileDialog@@@Z 00428715 f   nafxcw:dlgfile.obj
 0001:00027763       ?OnFolderChange@XFileDialogEvents@CFileDialog@@UAGJPAUIFileDialog@@@Z 00428763 f   nafxcw:dlgfile.obj
 0001:00027799       ?OnFolderChanging@XFileDialogEvents@CFileDialog@@UAGJPAUIFileDialog@@PAUIShellItem@@@Z 00428799 f   nafxcw:dlgfile.obj
 0001:000277bb       ?OnHelp@XFileDialogEvents@CFileDialog@@UAGJPAUIFileDialog@@@Z 004287bb f   nafxcw:dlgfile.obj
 0001:000277dd       ?OnInitDone@CFileDialog@@MAEXXZ 004287dd f   nafxcw:dlgfile.obj
 0001:000277f6       ?OnItemSelected@XFileDialogControlEvents@CFileDialog@@UAGJPAUIFileDialogCustomize@@KK@Z 004287f6 f   nafxcw:dlgfile.obj
 0001:00027832       ?OnNotify@CFileDialog@@MAEHIJPAJ@Z 00428832 f   nafxcw:dlgfile.obj
 0001:00027911       ?OnOverwrite@XFileDialogEvents@CFileDialog@@UAGJPAUIFileDialog@@PAUIShellItem@@PAW4FDE_OVERWRITE_RESPONSE@@@Z 00428911 f   nafxcw:dlgfile.obj
 0001:00027933       ?OnSelectionChange@XFileDialogEvents@CFileDialog@@UAGJPAUIFileDialog@@@Z 00428933 f   nafxcw:dlgfile.obj
 0001:00027969       ?OnShareViolation@XFileDialogEvents@CFileDialog@@UAGJPAUIFileDialog@@PAUIShellItem@@PAW4FDE_SHAREVIOLATION_RESPONSE@@@Z 00428969 f   nafxcw:dlgfile.obj
 0001:00027a08       ?OnTypeChange@XFileDialogEvents@CFileDialog@@UAGJPAUIFileDialog@@@Z 00428a08 f   nafxcw:dlgfile.obj
 0001:00027a61       ?QueryInterface@XFileDialogControlEvents@CFileDialog@@UAGJABU_GUID@@PAPAX@Z 00428a61 f   nafxcw:dlgfile.obj
 0001:00027aa4       ?QueryInterface@XFileDialogEvents@CFileDialog@@UAGJABU_GUID@@PAPAX@Z 00428aa4 f   nafxcw:dlgfile.obj
 0001:00027adb       ?Release@XFileDialogControlEvents@CFileDialog@@UAGKXZ 00428adb f   nafxcw:dlgfile.obj
 0001:00027b0c       ?Release@XFileDialogEvents@CFileDialog@@UAGKXZ 00428b0c f   nafxcw:dlgfile.obj
 0001:00027b3d       ?SetString@?$CSimpleStringT@_W$0A@@ATL@@QAEXPB_W@Z 00428b3d f i nafxcw:dlgfile.obj
 0001:00027b66       ?UpdateOFNFromShellDialog@CFileDialog@@UAEXXZ 00428b66 f   nafxcw:dlgfile.obj
 0001:00027f8f       _IsolationAwareGetOpenFileNameA@4 00428f8f f i nafxcw:dlgfile.obj
 0001:00028034       _IsolationAwareGetSaveFileNameA@4 00429034 f i nafxcw:dlgfile.obj
 0001:000280d9       ?RecurseDeleteKey@CRegKey@ATL@@QAEJPBD@Z 004290d9 f i nafxcw:olereg.obj
 0001:0002819d       ?CreateObject@CFrameWnd@@SGPAVCObject@@XZ 0042919d f   nafxcw:winfrm.obj
 0001:000281cd       ??0?$CList@PAUHWND__@@PAU1@@@QAE@H@Z 004291cd f i nafxcw:winfrm.obj
 0001:000281f3       ??0CFrameWnd@@QAE@XZ       004291f3 f   nafxcw:winfrm.obj
 0001:00028307       ??0CPushRoutingFrame@@QAE@PAVCFrameWnd@@@Z 00429307 f i nafxcw:winfrm.obj
 0001:0002833f       ??1?$CArray@PAUHWND__@@PAU1@@@UAE@XZ 0042933f f i nafxcw:winfrm.obj
 0001:00028355       ??1?$CList@PAUHWND__@@PAU1@@@UAE@XZ 00429355 f i nafxcw:winfrm.obj
 0001:00028360       ??1?$CTypedPtrArray@VCObArray@@PAVCBitmap@@@@UAE@XZ 00429360 f i nafxcw:winfrm.obj
 0001:00028365       ??1CFrameWnd@@UAE@XZ       00429365 f   nafxcw:winfrm.obj
 0001:000284c5       ??1CPushRoutingFrame@@QAE@XZ 004294c5 f i nafxcw:winfrm.obj
 0001:000284e1       ??_E?$CArray@PAUHWND__@@PAU1@@@UAEPAXI@Z 004294e1 f i nafxcw:winfrm.obj
 0001:000284e1       ??_G?$CArray@PAUHWND__@@PAU1@@@UAEPAXI@Z 004294e1 f i nafxcw:winfrm.obj
 0001:00028500       ??_G?$CList@PAUHWND__@@PAU1@@@UAEPAXI@Z 00429500 f i nafxcw:winfrm.obj
 0001:00028500       ??_E?$CList@PAUHWND__@@PAU1@@@UAEPAXI@Z 00429500 f i nafxcw:winfrm.obj
 0001:00028525       ??_E?$CTypedPtrArray@VCObArray@@PAVCBitmap@@@@UAEPAXI@Z 00429525 f i nafxcw:winfrm.obj
 0001:00028525       ??_GCObArray@@UAEPAXI@Z    00429525 f i nafxcw:array_o.obj
 0001:00028525       ??_G?$CTypedPtrArray@VCObArray@@PAVCMFCCaptionButton@@@@UAEPAXI@Z 00429525 f i nafxcw:afxdockablepane.obj
 0001:00028525       ??_ECObArray@@UAEPAXI@Z    00429525 f i nafxcw:array_o.obj
 0001:00028525       ??_E?$CTypedPtrArray@VCObArray@@PAVCMFCCaptionButton@@@@UAEPAXI@Z 00429525 f i nafxcw:afxdockablepane.obj
 0001:00028525       ??_G?$CTypedPtrArray@VCObArray@@PAVCBitmap@@@@UAEPAXI@Z 00429525 f i nafxcw:winfrm.obj
 0001:00028544       ??_ECMDIChildWnd@@UAEPAXI@Z 00429544 f i nafxcw:winmdi.obj
 0001:00028544       ??_ECMDIFrameWnd@@UAEPAXI@Z 00429544 f i nafxcw:winmdi.obj
 0001:00028544       ??_ECFrameWnd@@UAEPAXI@Z   00429544 f i nafxcw:winfrm.obj
 0001:00028544       ??_GCMDIChildWnd@@UAEPAXI@Z 00429544 f i nafxcw:winmdi.obj
 0001:00028544       ??_GCMDIFrameWnd@@UAEPAXI@Z 00429544 f i nafxcw:winmdi.obj
 0001:00028544       ??_GCFrameWnd@@UAEPAXI@Z   00429544 f i nafxcw:winfrm.obj
 0001:00028563       ?ActivateFrame@CFrameWnd@@UAEXH@Z 00429563 f   nafxcw:winfrm.obj
 0001:000285b7       ?AddFrameWnd@CFrameWnd@@IAEXXZ 004295b7 f   nafxcw:winfrm.obj
 0001:000285e1       ?AfxIsDescendant@@YGHPAUHWND__@@0@Z 004295e1 f   nafxcw:winfrm.obj
 0001:000285ff       ?BeginModalState@CFrameWnd@@UAEXXZ 004295ff f   nafxcw:winfrm.obj
 0001:0002871f       ?BringToTop@CFrameWnd@@IAEXH@Z 0042971f f   nafxcw:winfrm.obj
 0001:00028751       ?Create@CFrameWnd@@UAEHPBD0KABUtagRECT@@PAVCWnd@@0KPAUCCreateContext@@@Z 00429751 f   nafxcw:winfrm.obj
 0001:000287e8       ?CreateView@CFrameWnd@@QAEPAVCWnd@@PAUCCreateContext@@I@Z 004297e8 f   nafxcw:winfrm.obj
 0001:00028879       ?DelayUpdateFrameMenu@CFrameWnd@@UAEXPAUHMENU__@@@Z 00429879 f   nafxcw:winfrm.obj
 0001:00028890       ?DestroyDockBars@CFrameWnd@@QAEXXZ 00429890 f   nafxcw:winfrm.obj
 0001:0002899b       ?Draw@CImageList@@QAEHPAVCDC@@HUtagPOINT@@I@Z 0042999b f i nafxcw:winfrm.obj
 0001:000289c1       ?EndModalState@CFrameWnd@@UAEXXZ 004299c1 f   nafxcw:winfrm.obj
 0001:00028a38       ?ExitHelpMode@CFrameWnd@@UAEXXZ 00429a38 f   nafxcw:winfrm.obj
 0001:00028aba       ?GetActiveDocument@CFrameWnd@@UAEPAVCDocument@@XZ 00429aba f   nafxcw:winfrm.obj
 0001:00028acb       ?GetControlBar@CFrameWnd@@QAEPAVCControlBar@@I@Z 00429acb f   nafxcw:winfrm.obj
 0001:00028b1d       ?GetDefaultAccelerator@CFrameWnd@@UAEPAUHACCEL__@@XZ 00429b1d f   nafxcw:winfrm.obj
 0001:00028b44       ?GetDockingFrame@CControlBar@@QBEPAVCFrameWnd@@XZ 00429b44 f   nafxcw:winfrm.obj
 0001:00028b58       ?GetIconWndClass@CFrameWnd@@IAEPBDKI@Z 00429b58 f   nafxcw:winfrm.obj
 0001:00028bdf       ?GetImageList@CToolBarCtrl@@QBEPAVCImageList@@XZ 00429bdf f i nafxcw:winfrm.obj
 0001:00028bf8       ?GetMenu@CFrameWnd@@UBEPAVCMenu@@XZ 00429bf8 f   nafxcw:winfrm.obj
 0001:00028c24       ?GetMenuBarState@CFrameWnd@@UBEKXZ 00429c24 f   nafxcw:winfrm.obj
 0001:00028c2b       ?GetMenuBarVisibility@CFrameWnd@@UBEKXZ 00429c2b f   nafxcw:winfrm.obj
 0001:00028c2b       ?IsAlwaysLargeImage@CMFCRibbonBaseElement@@UBEHXZ 00429c2b f   nafxcw:afxbaseribbonelement.obj
 0001:00028c32       ?GetMessageBar@CFrameWnd@@UAEPAVCWnd@@XZ 00429c32 f   nafxcw:winfrm.obj
 0001:00028c42       ?GetMessageString@CFrameWnd@@UBEXIAAV?$CStringT@DV?$StrTraitMFC@DV?$ChTraitsCRT@D@ATL@@@@@ATL@@@Z 00429c42 f   nafxcw:winfrm.obj
 0001:00028c87       ?GetRuntimeClass@CFrameWnd@@UBEPAUCRuntimeClass@@XZ 00429c87 f   nafxcw:winfrm.obj
 0001:00028c8d       ?GetThisMessageMap@CFrameWnd@@KGPBUAFX_MSGMAP@@XZ 00429c8d f   nafxcw:winfrm.obj
 0001:00028c8d       ?GetMessageMap@CFrameWnd@@MBEPBUAFX_MSGMAP@@XZ 00429c8d f   nafxcw:winfrm.obj
 0001:00028c93       ?IsFloating@CControlBar@@QBEHXZ 00429c93 f   nafxcw:winfrm.obj
 0001:00028cc1       ?IsRectNull@CRect@@QBEHXZ  00429cc1 f i nafxcw:winfrm.obj
 0001:00028cd8       ?LoadAccelTable@CFrameWnd@@QAEHPBD@Z 00429cd8 f   nafxcw:winfrm.obj
 0001:00028d04       ?LoadFrame@CFrameWnd@@UAEHIKPAVCWnd@@PAUCCreateContext@@@Z 00429d04 f   nafxcw:winfrm.obj
 0001:00028e28       ?NegotiateBorderSpace@CFrameWnd@@UAEHIPAUtagRECT@@@Z 00429e28 f   nafxcw:winfrm.obj
 0001:00028e9d       ?NotifyFloatingWindows@CFrameWnd@@QAEXK@Z 00429e9d f   nafxcw:winfrm.obj
 0001:00028f5b       ?OnActivate@CFrameWnd@@IAEXIPAVCWnd@@H@Z 00429f5b f   nafxcw:winfrm.obj
 0001:00029055       ?OnActivateTopLevel@CFrameWnd@@IAEJIJ@Z 0042a055 f   nafxcw:winfrm.obj
 0001:000290e6       ?OnBarCheck@CFrameWnd@@QAEHI@Z 0042a0e6 f   nafxcw:winfrm.obj
 0001:00029122       ?OnChevronPushed@CFrameWnd@@IAEHIPAUtagNMHDR@@PAJ@Z 0042a122 f   nafxcw:winfrm.obj
 0001:000297b2       ?OnClose@CFrameWnd@@IAEXXZ 0042a7b2 f   nafxcw:winfrm.obj
 0001:00029902       ?OnCmdMsg@CFrameWnd@@UAEHIHPAXPAUAFX_CMDHANDLERINFO@@@Z 0042a902 f   nafxcw:winfrm.obj
 0001:0002998a       ?OnCommand@CFrameWnd@@MAEHIJ@Z 0042a98a f   nafxcw:winfrm.obj
 0001:00029a12       ?OnCommandHelp@CFrameWnd@@IAEJIJ@Z 0042aa12 f   nafxcw:winfrm.obj
 0001:00029a6f       ?OnCreate@CFrameWnd@@IAEHPAUtagCREATESTRUCTA@@@Z 0042aa6f f   nafxcw:winfrm.obj
 0001:00029a8b       ?OnCreateClient@CFrameWnd@@MAEHPAUtagCREATESTRUCTA@@PAUCCreateContext@@@Z 0042aa8b f   nafxcw:winfrm.obj
 0001:00029ab0       ?OnCreateHelper@CFrameWnd@@IAEHPAUtagCREATESTRUCTA@@PAUCCreateContext@@@Z 0042aab0 f   nafxcw:winfrm.obj
 0001:00029b01       ?OnDDEExecute@CFrameWnd@@IAEXPAVCWnd@@PAX@Z 0042ab01 f   nafxcw:winfrm.obj
 0001:00029c1f       ?OnDDEInitiate@CFrameWnd@@IAEXPAVCWnd@@II@Z 0042ac1f f   nafxcw:winfrm.obj
 0001:00029d1c       ?OnDDETerminate@CFrameWnd@@IAEXPAVCWnd@@@Z 0042ad1c f   nafxcw:winfrm.obj
 0001:00029d43       ?OnDestroy@CFrameWnd@@IAEXXZ 0042ad43 f   nafxcw:winfrm.obj
 0001:00029d9b       ?OnDropFiles@CFrameWnd@@IAEXPAUHDROP__@@@Z 0042ad9b f   nafxcw:winfrm.obj
 0001:00029e2e       ?OnEnable@CFrameWnd@@IAEXH@Z 0042ae2e f   nafxcw:winfrm.obj
 0001:00029f12       ?OnEndSession@CFrameWnd@@IAEXH@Z 0042af12 f   nafxcw:winfrm.obj
 0001:00029f71       ?OnEnterIdle@CFrameWnd@@IAEXIPAVCWnd@@@Z 0042af71 f   nafxcw:winfrm.obj
 0001:00029fa3       ?OnEraseBkgnd@CFrameWnd@@IAEHPAVCDC@@@Z 0042afa3 f   nafxcw:winfrm.obj
 0001:00029fb9       ?OnHScroll@CFrameWnd@@IAEXIIPAVCScrollBar@@@Z 0042afb9 f   nafxcw:winfrm.obj
 0001:00029fe1       ?OnHelpHitTest@CFrameWnd@@IAEJIJ@Z 0042afe1 f   nafxcw:winfrm.obj
 0001:00029ff7       ?OnHelpPromptAddr@CFrameWnd@@IAEJIJ@Z 0042aff7 f   nafxcw:winfrm.obj
 0001:0002a000       ?OnIdleUpdateCmdUI@CFrameWnd@@IAEXXZ 0042b000 f   nafxcw:winfrm.obj
 0001:0002a07a       ?OnInitMenu@CFrameWnd@@IAEXPAVCMenu@@@Z 0042b07a f   nafxcw:winfrm.obj
 0001:0002a09e       ?OnInitMenuPopup@CFrameWnd@@IAEXPAVCMenu@@IH@Z 0042b09e f   nafxcw:winfrm.obj
 0001:0002a25e       ?OnMenuChar@CFrameWnd@@IAEJIIPAVCMenu@@@Z 0042b25e f   nafxcw:winfrm.obj
 0001:0002a28f       ?OnMenuSelect@CFrameWnd@@IAEXIIPAUHMENU__@@@Z 0042b28f f   nafxcw:winfrm.obj
 0001:0002a441       ?OnNcActivate@CFrameWnd@@IAEHH@Z 0042b441 f   nafxcw:winfrm.obj
 0001:0002a479       ?OnPaletteChanged@CFrameWnd@@IAEXPAVCWnd@@@Z 0042b479 f   nafxcw:winfrm.obj
 0001:0002a499       ?OnPopMessageString@CFrameWnd@@IAEJIJ@Z 0042b499 f   nafxcw:winfrm.obj
 0001:0002a4be       ?OnQueryEndSession@CFrameWnd@@IAEHXZ 0042b4be f   nafxcw:winfrm.obj
 0001:0002a4f6       ?OnQueryNewPalette@CFrameWnd@@IAEHXZ 0042b4f6 f   nafxcw:winfrm.obj
 0001:0002a519       ?OnSetCursor@CFrameWnd@@IAEHPAVCWnd@@II@Z 0042b519 f   nafxcw:winfrm.obj
 0001:0002a550       ?OnNcLButtonDblClk@CPaneFrameWnd@@IAEXIVCPoint@@@Z 0042b550 f i nafxcw:afxpaneframewnd.obj
 0001:0002a550       ?OnSetCursor@CWnd@@IAEHPAV1@II@Z 0042b550 f i nafxcw:winfrm.obj
 0001:0002a550       ?OnSize@CPaneDivider@@IAEXIHH@Z 0042b550 f i nafxcw:afxpanedivider.obj
 0001:0002a550       ?OnNcLButtonDown@CWnd@@IAEXIVCPoint@@@Z 0042b550 f i nafxcw:afxvslistbox.obj
 0001:0002a550       ?OnSize@CDockSite@@IAEXIHH@Z 0042b550 f i nafxcw:afxdocksite.obj
 0001:0002a558       ?OnSetFocus@CFrameWnd@@IAEXPAVCWnd@@@Z 0042b558 f   nafxcw:winfrm.obj
 0001:0002a576       ?OnSetMessageString@CFrameWnd@@IAEJIJ@Z 0042b576 f   nafxcw:winfrm.obj
 0001:0002a633       ?OnSetPreviewMode@CFrameWnd@@UAEXHPAUCPrintPreviewState@@@Z 0042b633 f   nafxcw:winfrm.obj
 0001:0002a8b8       ?OnSize@CFrameWnd@@IAEXIHH@Z 0042b8b8 f   nafxcw:winfrm.obj
 0001:0002a8da       ?OnSysCommand@CFrameWnd@@IAEXIJ@Z 0042b8da f   nafxcw:winfrm.obj
 0001:0002a982       ?OnToolTipText@CFrameWnd@@IAEHIPAUtagNMHDR@@PAJ@Z 0042b982 f   nafxcw:winfrm.obj
 0001:0002aa9b       ?OnUpdateContextHelp@CFrameWnd@@IAEXPAVCCmdUI@@@Z 0042ba9b f   nafxcw:winfrm.obj
 0001:0002aada       ?OnUpdateControlBarMenu@CFrameWnd@@QAEXPAVCCmdUI@@@Z 0042bada f   nafxcw:winfrm.obj
 0001:0002ab1c       ?OnUpdateFrameMenu@CFrameWnd@@UAEXPAUHMENU__@@@Z 0042bb1c f   nafxcw:winfrm.obj
 0001:0002ab6d       ?OnUpdateFrameTitle@CFrameWnd@@UAEXH@Z 0042bb6d f   nafxcw:winfrm.obj
 0001:0002abb9       ?OnUpdateKeyIndicator@CFrameWnd@@IAEXPAVCCmdUI@@@Z 0042bbb9 f   nafxcw:winfrm.obj
 0001:0002ac15       ?OnVScroll@CFrameWnd@@IAEXIIPAVCScrollBar@@@Z 0042bc15 f   nafxcw:winfrm.obj
 0001:0002ac3d       ?Pop@CPushRoutingFrame@@QAEXXZ 0042bc3d f i nafxcw:winfrm.obj
 0001:0002ac63       ?PreCreateWindow@CFrameWnd@@MAEHAAUtagCREATESTRUCTA@@@Z 0042bc63 f   nafxcw:winfrm.obj
 0001:0002ac9f       ?PreTranslateMessage@CFrameWnd@@UAEHPAUtagMSG@@@Z 0042bc9f f   nafxcw:winfrm.obj
 0001:0002ae37       ?RecalcLayout@CFrameWnd@@UAEXH@Z 0042be37 f   nafxcw:winfrm.obj
 0001:0002af40       ?RemoveControlBar@CFrameWnd@@QAEXPAVCControlBar@@@Z 0042bf40 f   nafxcw:winfrm.obj
 0001:0002af67       ?RemoveFrameWnd@CFrameWnd@@IAEXXZ 0042bf67 f   nafxcw:winfrm.obj
 0001:0002af91       ?SetActiveView@CFrameWnd@@QAEXPAVCView@@H@Z 0042bf91 f   nafxcw:winfrm.obj
 0001:0002afed       ?SetMenu@CFrameWnd@@UAEHPAVCMenu@@@Z 0042bfed f   nafxcw:winfrm.obj
 0001:0002b033       ?SetMenuBarState@CFrameWnd@@UAEHK@Z 0042c033 f   nafxcw:winfrm.obj
 0001:0002b0a1       ?SetMenuBarVisibility@CFrameWnd@@UAEXK@Z 0042c0a1 f   nafxcw:winfrm.obj
 0001:0002b0f2       ?SetMessageText@CFrameWnd@@QAEXI@Z 0042c0f2 f   nafxcw:winfrm.obj
 0001:0002b10c       ?ShowControlBar@CFrameWnd@@QAEXPAVCControlBar@@HH@Z 0042c10c f   nafxcw:winfrm.obj
 0001:0002b216       ?ShowOwnedWindows@CFrameWnd@@QAEXH@Z 0042c216 f   nafxcw:winfrm.obj
 0001:0002b2c0       ?UpdateFrameTitleForDocument@CFrameWnd@@QAEXPBD@Z 0042c2c0 f   nafxcw:winfrm.obj
 0001:0002b3b7       ?_mbstowcsz@ATL@@YAHPA_WPBDK@Z 0042c3b7 f i nafxcw:winfrm.obj
 0001:0002b405       _IsolationAwareImageList_Draw@24 0042c405 f i nafxcw:winfrm.obj
 0001:0002b4b9       _IsolationAwareImageList_GetImageInfo@12 0042c4b9 f i nafxcw:winfrm.obj
 0001:0002b564       ?AfxFormatString1@@YGXAAV?$CStringT@DV?$StrTraitMFC@DV?$ChTraitsCRT@D@ATL@@@@@ATL@@IPBD@Z 0042c564 f   nafxcw:apphelp.obj
 0001:0002b57c       ?AfxFormatStrings@@YGXAAV?$CStringT@DV?$StrTraitMFC@DV?$ChTraitsCRT@D@ATL@@@@@ATL@@IPBQBDH@Z 0042c57c f   nafxcw:apphelp.obj
 0001:0002b5dd       ?AfxFormatStrings@@YGXAAV?$CStringT@DV?$StrTraitMFC@DV?$ChTraitsCRT@D@ATL@@@@@ATL@@PBDPBQBDH@Z 0042c5dd f   nafxcw:apphelp.obj
 0001:0002b729       ??$SerializeElements@VCVariantBoolPair@@@@YGXAAVCArchive@@PAVCVariantBoolPair@@H@Z 0042c729 f i nafxcw:oledisp1.obj
 0001:0002b7c2       ??0?$CArray@VCVariantBoolPair@@ABV1@@@QAE@XZ 0042c7c2 f i nafxcw:oledisp1.obj
 0001:0002b7d9       ??0COleDispatchException@@QAE@PBDIG@Z 0042c7d9 f   nafxcw:oledisp1.obj
 0001:0002b873       ??1?$CArray@VCVariantBoolPair@@ABV1@@@UAE@XZ 0042c873 f i nafxcw:oledisp1.obj
 0001:0002b8af       ??1COleDispatchException@@UAE@XZ 0042c8af f   nafxcw:oledisp1.obj
 0001:0002b8da       ??1CVariantBoolConverter@@QAE@XZ 0042c8da f i nafxcw:oledisp1.obj
 0001:0002b8df       ??1CVariantBoolPair@@QAE@XZ 0042c8df f i nafxcw:oledisp1.obj
 0001:0002b8ee       ??4CVariantBoolPair@@QAEAAV0@ABV0@@Z 0042c8ee f i nafxcw:oledisp1.obj
 0001:0002b917       ??_E?$CArray@VCVariantBoolPair@@ABV1@@@UAEPAXI@Z 0042c917 f i nafxcw:oledisp1.obj
 0001:0002b917       ??_G?$CArray@VCVariantBoolPair@@ABV1@@@UAEPAXI@Z 0042c917 f i nafxcw:oledisp1.obj
 0001:0002b936       ??_ECOleDispatchException@@UAEPAXI@Z 0042c936 f i nafxcw:oledisp1.obj
 0001:0002b936       ??_GCOleDispatchException@@UAEPAXI@Z 0042c936 f i nafxcw:oledisp1.obj
 0001:0002b955       ??_GCVariantBoolPair@@QAEPAXI@Z 0042c955 f i nafxcw:oledisp1.obj
 0001:0002b97d       ?AddRef@COleDispatchImpl@@UAGKXZ 0042c97d f   nafxcw:oledisp1.obj
 0001:0002b98f       ?CallMemberFunc@CCmdTarget@@IAEJPBUAFX_DISPMAP_ENTRY@@GPAUtagVARIANT@@PAUtagDISPPARAMS@@PAI@Z 0042c98f f   nafxcw:oledisp1.obj
 0001:0002bcff       ?CopyBOOLsIntoVarBools@CVariantBoolConverter@@QAEXXZ 0042ccff f i nafxcw:oledisp1.obj
 0001:0002bd56       ?Disconnect@COleDispatchImpl@@UAEXXZ 0042cd56 f   nafxcw:oledisp1.obj
 0001:0002bd5e       ?ElementAt@?$CArray@VCVariantBoolPair@@ABV1@@@QAEAAVCVariantBoolPair@@H@Z 0042cd5e f i nafxcw:oledisp1.obj
 0001:0002bd7d       ?EnableAutomation@CCmdTarget@@QAEXXZ 0042cd7d f   nafxcw:oledisp1.obj
 0001:0002bd85       ?GetDispEntry@CCmdTarget@@IAGPBUAFX_DISPMAP_ENTRY@@J@Z 0042cd85 f   nafxcw:oledisp1.obj
 0001:0002be4b       ?GetEntryCount@CCmdTarget@@KGIPBUAFX_DISPMAP@@@Z 0042ce4b f   nafxcw:oledisp1.obj
 0001:0002be78       ?GetErrorMessage@COleDispatchException@@UBEHPADIPAI@Z 0042ce78 f   nafxcw:oledisp1.obj
 0001:0002bea5       ?GetIDispatch@CCmdTarget@@QAEPAUIDispatch@@H@Z 0042cea5 f   nafxcw:oledisp1.obj
 0001:0002bec7       ?GetIDsOfNames@COleDispatchImpl@@UAGJABU_GUID@@PAPA_WIKPAJ@Z 0042cec7 f   nafxcw:oledisp1.obj
 0001:0002bfb6       ?GetRuntimeClass@COleDispatchException@@UBEPAUCRuntimeClass@@XZ 0042cfb6 f   nafxcw:oledisp1.obj
 0001:0002bfbc       ?GetStackSize@CCmdTarget@@KGIPBEG@Z 0042cfbc f   nafxcw:oledisp1.obj
 0001:0002c01d       ?GetStandardProp@CCmdTarget@@IAEXPBUAFX_DISPMAP_ENTRY@@PAUtagVARIANT@@PAI@Z 0042d01d f   nafxcw:oledisp1.obj
 0001:0002c109       ?GetTypeInfo@COleDispatchImpl@@UAGJIKPAPAUITypeInfo@@@Z 0042d109 f   nafxcw:oledisp1.obj
 0001:0002c161       ?GetTypeInfoCount@COleDispatchImpl@@UAGJPAI@Z 0042d161 f   nafxcw:oledisp1.obj
 0001:0002c17a       ?Invoke@COleDispatchImpl@@UAGJJABU_GUID@@KGPAUtagDISPPARAMS@@PAUtagVARIANT@@PAUtagEXCEPINFO@@PAI@Z 0042d17a f   nafxcw:oledisp1.obj
 0001:0002c655       ?MemberIDFromName@CCmdTarget@@KGJPBUAFX_DISPMAP@@PBD@Z 0042d655 f   nafxcw:oledisp1.obj
 0001:0002c6d2       ?Process@COleDispatchException@@SGXPAUtagEXCEPINFO@@PBVCException@@@Z 0042d6d2 f   nafxcw:oledisp1.obj
 0001:0002c85b       ?PushStackArgs@CCmdTarget@@IAEJPAEPBEPAXGPAUtagDISPPARAMS@@PAIPAUtagVARIANT@@PAVCVariantBoolConverter@@@Z 0042d85b f   nafxcw:oledisp1.obj
 0001:0002cb63       ?QueryInterface@COleDispatchImpl@@UAGJABU_GUID@@PAPAX@Z 0042db63 f   nafxcw:oledisp1.obj
 0001:0002cb7b       ?Release@COleDispatchImpl@@UAGKXZ 0042db7b f   nafxcw:oledisp1.obj
 0001:0002cb8d       ?Serialize@?$CArray@VCVariantBoolPair@@ABV1@@@UAEXAAVCArchive@@@Z 0042db8d f i nafxcw:oledisp1.obj
 0001:0002cbcd       ?SetAtGrow@?$CArray@VCVariantBoolPair@@ABV1@@@QAEXHABVCVariantBoolPair@@@Z 0042dbcd f i nafxcw:oledisp1.obj
 0001:0002cc05       ?SetSize@?$CArray@VCVariantBoolPair@@ABV1@@@QAEXHH@Z 0042dc05 f i nafxcw:oledisp1.obj
 0001:0002ce19       ?SetStandardProp@CCmdTarget@@IAEJPBUAFX_DISPMAP_ENTRY@@PAUtagDISPPARAMS@@PAI@Z 0042de19 f   nafxcw:oledisp1.obj
 0001:0002cfad       ??0COleDispatchDriver@@QAE@XZ 0042dfad f   nafxcw:oledisp2.obj
 0001:0002cfba       ??1COleDispParams@@QAE@XZ  0042dfba f i nafxcw:oledisp2.obj
 0001:0002cfcf       ?AttachDispatch@COleDispatchDriver@@QAEXPAUIDispatch@@H@Z 0042dfcf f   nafxcw:oledisp2.obj
 0001:0002cfea       ?CopyVarBoolsIntoBOOLs@CVariantBoolConverter@@QAEXXZ 0042dfea f i nafxcw:oledisp2.obj
 0001:0002d044       ?InvokeHelperV@COleDispatchDriver@@QAEXJGGPAXPBEPAD@Z 0042e044 f   nafxcw:oledisp2.obj
 0001:0002d634       ?ReleaseDispatch@COleDispatchDriver@@QAEXXZ 0042e634 f   nafxcw:oledisp2.obj
 0001:0002d64e       ??0CEnumArray@@QAE@IPBXIH@Z 0042e64e f   nafxcw:oleenum.obj
 0001:0002d68d       ??1CEnumArray@@UAE@XZ      0042e68d f   nafxcw:oleenum.obj
 0001:0002d6d4       ??_GCEnumArray@@UAEPAXI@Z  0042e6d4 f i nafxcw:oleenum.obj
 0001:0002d6d4       ??_ECEnumArray@@UAEPAXI@Z  0042e6d4 f i nafxcw:oleenum.obj
 0001:0002d6f3       ?AddRef@XEnumVOID@CEnumArray@@UAGKXZ 0042e6f3 f   nafxcw:oleenum.obj
 0001:0002d705       ?Clone@XEnumVOID@CEnumArray@@UAGJPAPAUIEnumVOID@@@Z 0042e705 f   nafxcw:oleenum.obj
 0001:0002d78d       ?Next@XEnumVOID@CEnumArray@@UAGJKPAXPAK@Z 0042e78d f   nafxcw:oleenum.obj
 0001:0002d825       ?OnClone@CEnumArray@@MAEPAV1@XZ 0042e825 f   nafxcw:oleenum.obj
 0001:0002d868       ?OnNext@CEnumArray@@MAEHPAX@Z 0042e868 f   nafxcw:oleenum.obj
 0001:0002d8a0       ?OnReset@CEnumArray@@MAEXXZ 0042e8a0 f   nafxcw:oleenum.obj
 0001:0002d8a5       ?OnSkip@CEnumArray@@MAEHXZ 0042e8a5 f   nafxcw:oleenum.obj
 0001:0002d8bc       ?QueryInterface@XEnumVOID@CEnumArray@@UAGJABU_GUID@@PAPAX@Z 0042e8bc f   nafxcw:oleenum.obj
 0001:0002d8d4       ?Release@XEnumVOID@CEnumArray@@UAGKXZ 0042e8d4 f   nafxcw:oleenum.obj
 0001:0002d8e6       ?Reset@XEnumVOID@CEnumArray@@UAGJXZ 0042e8e6 f   nafxcw:oleenum.obj
 0001:0002d910       ?Skip@XEnumVOID@CEnumArray@@UAGJK@Z 0042e910 f   nafxcw:oleenum.obj
 0001:0002d97a       ??0OLE_DATA@@QAE@XZ        0042e97a f   nafxcw:oleinit.obj
 0001:0002da00       ?AfxOleInit@@YGHXZ         0042ea00 f   nafxcw:oleinit.obj
 0001:0002da93       ?AfxOleTerm@@YGXH@Z        0042ea93 f   nafxcw:oleinit.obj
 0001:0002daf1       ?AfxOleTermOrFreeLib@@YGXHH@Z 0042eaf1 f   nafxcw:oleinit.obj
 0001:0002db42       ??0CArchiveStream@@QAE@PAVCArchive@@@Z 0042eb42 f   nafxcw:arcstrm.obj
 0001:0002db57       ?QueryInterface@CArchiveStream@@UAGJABU_GUID@@PAPAX@Z 0042eb57 f   nafxcw:arcstrm.obj
 0001:0002dba6       ?Read@CArchiveStream@@UAGJPAXKPAK@Z 0042eba6 f   nafxcw:arcstrm.obj
 0001:0002dbf3       ?Revert@CArchiveStream@@UAGJXZ 0042ebf3 f   nafxcw:arcstrm.obj
 0001:0002dbf3       ?RequestNewObjectLayout@XOleClientSite@COleControlSite@@UAGJXZ 0042ebf3 f   nafxcw:occsite.obj
 0001:0002dbf3       ?SaveObject@XOleClientSite@COleControlSite@@UAGJXZ 0042ebf3 f   nafxcw:occsite.obj
 0001:0002dbf3       ?ShowPropertyFrame@XOleControlSite@COleControlSite@@UAGJXZ 0042ebf3 f   nafxcw:occsite.obj
 0001:0002dbfb       ?Seek@CArchiveStream@@UAGJT_LARGE_INTEGER@@KPAT_ULARGE_INTEGER@@@Z 0042ebfb f   nafxcw:arcstrm.obj
 0001:0002dc63       ?SetSize@CArchiveStream@@UAGJT_ULARGE_INTEGER@@@Z 0042ec63 f   nafxcw:arcstrm.obj
 0001:0002dc63       ?TranslateAcceleratorA@XOleControlSite@COleControlSite@@UAGJPAUtagMSG@@K@Z 0042ec63 f   nafxcw:occsite.obj
 0001:0002dc63       ?InsertMenus@XOleIPFrame@COleControlContainer@@UAGJPAUHMENU__@@PAUtagOleMenuGroupWidths@@@Z 0042ec63 f   nafxcw:occcont.obj
 0001:0002dc63       ?Stat@CArchiveStream@@UAGJPAUtagSTATSTG@@K@Z 0042ec63 f   nafxcw:arcstrm.obj
 0001:0002dc63       ?TranslateAcceleratorA@XOleIPFrame@COleControlContainer@@UAGJPAUtagMSG@@G@Z 0042ec63 f   nafxcw:occcont.obj
 0001:0002dc6b       ?Write@CArchiveStream@@UAGJPBXKPAK@Z 0042ec6b f   nafxcw:arcstrm.obj
 0001:0002dcb9       ?CreateObject@CByteArray@@SGPAVCObject@@XZ 0042ecb9 f   nafxcw:array_b.obj
 0001:0002dccf       ??0CByteArray@@QAE@XZ      0042eccf f   nafxcw:array_b.obj
 0001:0002dce6       ??1CByteArray@@UAE@XZ      0042ece6 f   nafxcw:array_b.obj
 0001:0002dcf6       ??_ECByteArray@@UAEPAXI@Z  0042ecf6 f i nafxcw:array_b.obj
 0001:0002dcf6       ??_GCByteArray@@UAEPAXI@Z  0042ecf6 f i nafxcw:array_b.obj
 0001:0002dd15       ?GetRuntimeClass@CByteArray@@UBEPAUCRuntimeClass@@XZ 0042ed15 f   nafxcw:array_b.obj
 0001:0002dd1b       ?Serialize@CByteArray@@UAEXAAVCArchive@@@Z 0042ed1b f   nafxcw:array_b.obj
 0001:0002ddc6       ?SetSize@CByteArray@@QAEXHH@Z 0042edc6 f   nafxcw:array_b.obj
 0001:0002dee2       ?CreateObject@CMapWordToOb@@SGPAVCObject@@XZ 0042eee2 f   nafxcw:map_wo.obj
 0001:0002defb       ??$HashKey@G@@YGIG@Z       0042eefb f i nafxcw:map_wo.obj
 0001:0002df2d       ??0CMapWordToOb@@QAE@H@Z   0042ef2d f   nafxcw:map_wo.obj
 0001:0002df5e       ??1CMapWordToOb@@UAE@XZ    0042ef5e f   nafxcw:map_wo.obj
 0001:0002df69       ??ACMapWordToOb@@QAEAAPAVCObject@@G@Z 0042ef69 f   nafxcw:map_wo.obj
 0001:0002dfc3       ??_ECMapWordToOb@@UAEPAXI@Z 0042efc3 f i nafxcw:map_wo.obj
 0001:0002dfc3       ??_GCMapWordToOb@@UAEPAXI@Z 0042efc3 f i nafxcw:map_wo.obj
 0001:0002dfe8       ?GetAssocAt@CMapWordToOb@@IBEPAUCAssoc@1@GAAI0@Z 0042efe8 f   nafxcw:map_wo.obj
 0001:0002e027       ?GetNextAssoc@CMapWordToOb@@QBEXAAPAU__POSITION@@AAGAAPAVCObject@@@Z 0042f027 f   nafxcw:map_wo.obj
 0001:0002e0ac       ?GetRuntimeClass@CMapWordToOb@@UBEPAUCRuntimeClass@@XZ 0042f0ac f   nafxcw:map_wo.obj
 0001:0002e0b2       ?InitHashTable@CMapPtrToPtr@@QAEXIH@Z 0042f0b2 f   nafxcw:map_pp.obj
 0001:0002e0b2       ?InitHashTable@CMapWordToOb@@QAEXIH@Z 0042f0b2 f   nafxcw:map_wo.obj
 0001:0002e0b2       ?InitHashTable@CMapStringToPtr@@QAEXIH@Z 0042f0b2 f   nafxcw:map_sp.obj
 0001:0002e10f       ?Lookup@CMapWordToOb@@QBEHGAAPAVCObject@@@Z 0042f10f f   nafxcw:map_wo.obj
 0001:0002e139       ?NewAssoc@CMapWordToOb@@IAEPAUCAssoc@1@XZ 0042f139 f   nafxcw:map_wo.obj
 0001:0002e185       ?RemoveAll@CMapWordToOb@@QAEXXZ 0042f185 f   nafxcw:map_wo.obj
 0001:0002e185       ?RemoveAll@CMapPtrToPtr@@QAEXXZ 0042f185 f   nafxcw:map_pp.obj
 0001:0002e1b0       ?Serialize@CMapWordToOb@@UAEXAAVCArchive@@@Z 0042f1b0 f   nafxcw:map_wo.obj
 0001:0002e258       ?CreateObject@CMFCButton@@SGPAVCObject@@XZ 0042f258 f   nafxcw:afxbutton.obj
 0001:0002e288       ??0CMFCButton@@QAE@XZ      0042f288 f   nafxcw:afxbutton.obj
 0001:0002e3f9       ??1CMFCButton@@UAE@XZ      0042f3f9 f   nafxcw:afxbutton.obj
 0001:0002e526       ?CheckNextPrevRadioButton@CMFCButton@@IAEHH@Z 0042f526 f   nafxcw:afxbutton.obj
 0001:0002e61f       ?CleanUp@CMFCButton@@UAEXXZ 0042f61f f   nafxcw:afxbutton.obj
 0001:0002e681       ?ClearImages@CMFCButton@@IAEXH@Z 0042f681 f   nafxcw:afxbutton.obj
 0001:0002e6ed       ?DrawBorder@CMFCButton@@IAEXPAVCDC@@AAVCRect@@I@Z 0042f6ed f   nafxcw:afxbutton.obj
 0001:0002e876       ?DrawItem@CMFCButton@@UAEXPAUtagDRAWITEMSTRUCT@@@Z 0042f876 f   nafxcw:afxbutton.obj
 0001:0002e938       ?EnableFullTextTooltip@CMFCButton@@QAEXH@Z 0042f938 f   nafxcw:afxbutton.obj
 0001:0002e94e       ?GetGlobalData@@YAPAUAFX_GLOBAL_DATA@@XZ 0042f94e f i nafxcw:afxbutton.obj
 0001:0002e972       ?GetImageHorzMargin@CMFCButton@@MBEHXZ 0042f972 f   nafxcw:afxbutton.obj
 0001:0002e976       ?GetInstance@CMFCVisualManager@@SGPAV1@XZ 0042f976 f i nafxcw:afxbutton.obj
 0001:0002e9e4       ?GetThisMessageMap@CMFCButton@@KGPBUAFX_MSGMAP@@XZ 0042f9e4 f   nafxcw:afxbutton.obj
 0001:0002e9e4       ?GetMessageMap@CMFCButton@@MBEPBUAFX_MSGMAP@@XZ 0042f9e4 f   nafxcw:afxbutton.obj
 0001:0002e9ea       ?GetRuntimeClass@CMFCButton@@UBEPAUCRuntimeClass@@XZ 0042f9ea f   nafxcw:afxbutton.obj
 0001:0002e9f0       ?GetVertMargin@CMFCButton@@MBEHXZ 0042f9f0 f   nafxcw:afxbutton.obj
 0001:0002e9f4       ?InitStyle@CMFCButton@@IAEXK@Z 0042f9f4 f   nafxcw:afxbutton.obj
 0001:0002ea9a       ?OnCancelMode@CMFCButton@@IAEXXZ 0042fa9a f   nafxcw:afxbutton.obj
 0001:0002eaff       ?OnDestroy@CMFCButton@@IAEXXZ 0042faff f   nafxcw:afxbutton.obj
 0001:0002eb16       ?OnDraw@CMFCButton@@MAEXPAVCDC@@ABVCRect@@I@Z 0042fb16 f   nafxcw:afxbutton.obj
 0001:0002ef97       ?OnDrawBorder@CMFCButton@@MAEXPAVCDC@@AAVCRect@@I@Z 0042ff97 f   nafxcw:afxbutton.obj
 0001:0002efa0       ?OnDrawFocusRect@CMFCButton@@MAEXPAVCDC@@ABVCRect@@@Z 0042ffa0 f   nafxcw:afxbutton.obj
 0001:0002f035       ?OnDrawParentBackground@CMFCButton@@UAEXPAVCDC@@VCRect@@@Z 00430035 f   nafxcw:afxbutton.obj
 0001:0002f051       ?OnDrawText@CMFCButton@@MAEXPAVCDC@@ABVCRect@@ABV?$CStringT@DV?$StrTraitMFC@DV?$ChTraitsCRT@D@ATL@@@@@ATL@@II@Z 00430051 f   nafxcw:afxbutton.obj
 0001:0002f097       ?OnEnable@CMFCButton@@IAEXH@Z 00430097 f   nafxcw:afxbutton.obj
 0001:0002f0e8       ?OnFillBackground@CMFCButton@@MAEXPAVCDC@@ABVCRect@@@Z 004300e8 f   nafxcw:afxbutton.obj
 0001:0002f1a2       ?OnGetCheck@CMFCButton@@IAEJIJ@Z 004301a2 f   nafxcw:afxbutton.obj
 0001:0002f1c6       ?OnGetFont@CMFCButton@@IAEPAUHFONT__@@XZ 004301c6 f   nafxcw:afxbutton.obj
 0001:0002f1cd       ?OnGetImage@CMFCButton@@IAEJIJ@Z 004301cd f   nafxcw:afxbutton.obj
 0001:0002f1f8       ?OnInitControl@CMFCButton@@IAEJIJ@Z 004301f8 f   nafxcw:afxbutton.obj
 0001:0002f548       ?OnKillFocus@CMFCButton@@IAEXPAVCWnd@@@Z 00430548 f   nafxcw:afxbutton.obj
 0001:0002f599       ?OnLButtonDblClk@CMFCButton@@IAEXIVCPoint@@@Z 00430599 f   nafxcw:afxbutton.obj
 0001:0002f5d9       ?OnLButtonDown@CMFCButton@@IAEXIVCPoint@@@Z 004305d9 f   nafxcw:afxbutton.obj
 0001:0002f689       ?OnLButtonUp@CMFCButton@@IAEXIVCPoint@@@Z 00430689 f   nafxcw:afxbutton.obj
 0001:0002f7cf       ?OnMouseMove@CMFCButton@@IAEXIVCPoint@@@Z 004307cf f   nafxcw:afxbutton.obj
 0001:0002f956       ?OnSetCheck@CMFCButton@@IAEJIJ@Z 00430956 f   nafxcw:afxbutton.obj
 0001:0002f9c1       ?OnSetCursor@CMFCButton@@IAEHPAVCWnd@@II@Z 004309c1 f   nafxcw:afxbutton.obj
 0001:0002fa53       ?OnSetFont@CMFCButton@@IAEXPAVCFont@@H@Z 00430a53 f   nafxcw:afxbutton.obj
 0001:0002fa8a       ?OnSetImage@CMFCButton@@IAEJIJ@Z 00430a8a f   nafxcw:afxbutton.obj
 0001:0002fabc       ?OnSize@CMFCButton@@IAEXIHH@Z 00430abc f   nafxcw:afxbutton.obj
 0001:0002fad0       ?OnTimer@CMFCButton@@IAEXI@Z 00430ad0 f   nafxcw:afxbutton.obj
 0001:0002fb33       ?OnUpdateToolTips@CMFCButton@@IAEJIJ@Z 00430b33 f   nafxcw:afxbutton.obj
 0001:0002fba8       ?PreCreateWindow@CMFCButton@@MAEHAAUtagCREATESTRUCTA@@@Z 00430ba8 f   nafxcw:afxbutton.obj
 0001:0002fbd4       ?PreSubclassWindow@CMFCButton@@MAEXXZ 00430bd4 f   nafxcw:afxbutton.obj
 0001:0002fbf9       ?PreTranslateMessage@CMFCButton@@UAEHPAUtagMSG@@@Z 00430bf9 f   nafxcw:afxbutton.obj
 0001:0002fd4c       ?SelectFont@CMFCButton@@MAEPAVCFont@@PAVCDC@@@Z 00430d4c f   nafxcw:afxbutton.obj
 0001:0002fda3       ?SelectObject@CDC@@QAEPAXPAX@Z 00430da3 f i nafxcw:afxbutton.obj
 0001:0002fdc0       ?SetAutorepeatMode@CMFCButton@@QAEXH@Z 00430dc0 f   nafxcw:afxbutton.obj
 0001:0002fdd0       ?SetImage@CMFCButton@@QAEXIII@Z 00430dd0 f   nafxcw:afxbutton.obj
 0001:0002fde7       ?SetImageInternal@CMFCButton@@IAEXIIHI@Z 00430de7 f   nafxcw:afxbutton.obj
 0001:0002fe31       ?SetImageInternal@CMFCButton@@IAEXPAUHBITMAP__@@H0HH0@Z 00430e31 f   nafxcw:afxbutton.obj
 0001:0002ffb6       ?SetImageInternal@CMFCButton@@IAEXPAUHICON__@@H0H0H@Z 00430fb6 f   nafxcw:afxbutton.obj
 0001:000301cd       ?SetMouseCursorHand@CMFCButton@@QAEXXZ 004311cd f   nafxcw:afxbutton.obj
 0001:000301e4       ?SetStdImage@CMFCButton@@QAEXW4IMAGES_IDS@CMenuImages@@W4IMAGE_STATE@3@0@Z 004311e4 f   nafxcw:afxbutton.obj
 0001:00030230       ?SetTooltip@CMFCButton@@QAEXPBD@Z 00431230 f   nafxcw:afxbutton.obj
 0001:000302c0       ?SetTransparentColor@CMFCToolBarImages@@QAEKK@Z 004312c0 f i nafxcw:afxbutton.obj
 0001:000302f2       ?SizeToContent@CMFCButton@@UAE?AVCSize@@H@Z 004312f2 f   nafxcw:afxbutton.obj
 0001:000304db       ?UncheckRadioButtonsInGroup@CMFCButton@@IAEXXZ 004314db f   nafxcw:afxbutton.obj
 0001:000305ba       ?get_accState@CMFCButton@@UAEJUtagVARIANT@@PAU2@@Z 004315ba f   nafxcw:afxbutton.obj
 0001:00030610       ??0?$CArray@KK@@QAE@XZ     00431610 f i nafxcw:afxcolorbutton.obj
 0001:00030627       ??0?$CList@KK@@QAE@H@Z     00431627 f i nafxcw:afxcolorbutton.obj
 0001:0003064d       ??0CMFCColorButton@@QAE@XZ 0043164d f   nafxcw:afxcolorbutton.obj
 0001:000306e1       ??0CMFCColorPopupMenu@@QAE@PAVCMFCColorButton@@ABV?$CArray@KK@@KPBD22AAV?$CList@KK@@HK@Z 004316e1 f i nafxcw:afxcolorbutton.obj
 0001:0003073e       ??1?$CArray@KK@@UAE@XZ     0043173e f i nafxcw:afxcolorbutton.obj
 0001:00030754       ??1?$CList@KK@@UAE@XZ      00431754 f i nafxcw:afxcolorbutton.obj
 0001:0003075f       ??1CMFCColorButton@@UAE@XZ 0043175f f   nafxcw:afxcolorbutton.obj
 0001:000307e9       ??1CPalette@@UAE@XZ        004317e9 f i nafxcw:afxcolorbutton.obj
 0001:000307f4       ??_G?$CArray@KK@@UAEPAXI@Z 004317f4 f i nafxcw:afxcolorbutton.obj
 0001:000307f4       ??_E?$CArray@KK@@UAEPAXI@Z 004317f4 f i nafxcw:afxcolorbutton.obj
 0001:00030813       ??_G?$CList@KK@@UAEPAXI@Z  00431813 f i nafxcw:afxcolorbutton.obj
 0001:00030813       ??_E?$CList@KK@@UAEPAXI@Z  00431813 f i nafxcw:afxcolorbutton.obj
 0001:00030838       ??_ECMFCColorButton@@UAEPAXI@Z 00431838 f i nafxcw:afxcolorbutton.obj
 0001:00030838       ??_GCMFCColorButton@@UAEPAXI@Z 00431838 f i nafxcw:afxcolorbutton.obj
 0001:00030857       ??_GCMFCColorPopupMenu@@UAEPAXI@Z 00431857 f i nafxcw:afxcolorbutton.obj
 0001:00030857       ??_ECMFCColorPopupMenu@@UAEPAXI@Z 00431857 f i nafxcw:afxcolorbutton.obj
 0001:00030876       ??_ECPalette@@UAEPAXI@Z    00431876 f i nafxcw:afxcolorbutton.obj
 0001:00030876       ??_GCPalette@@UAEPAXI@Z    00431876 f i nafxcw:afxcolorbutton.obj
 0001:0003089b       ?EnableAutomaticButton@CMFCColorButton@@QAEXPBDKH@Z 0043189b f   nafxcw:afxcolorbutton.obj
 0001:000308cd       ?EnableOtherButton@CMFCColorButton@@QAEXPBDHH@Z 004318cd f   nafxcw:afxcolorbutton.obj
 0001:000308ff       ?GetEntryCount@CPalette@@QAEHXZ 004318ff f i nafxcw:afxcolorbutton.obj
 0001:0003091a       ?GetMenuBar@CMFCColorPopupMenu@@UAEPAVCMFCPopupMenuBar@@XZ 0043191a f i nafxcw:afxcolorbutton.obj
 0001:0003091a       ?GetMenuBar@CMFCRibbonPanelMenu@@UAEPAVCMFCPopupMenuBar@@XZ 0043191a f i nafxcw:afxribbonminitoolbar.obj
 0001:00030921       ?GetMessageMap@CMFCColorButton@@MBEPBUAFX_MSGMAP@@XZ 00431921 f   nafxcw:afxcolorbutton.obj
 0001:00030927       ?GetRuntimeClass@CMFCColorButton@@UBEPAUCRuntimeClass@@XZ 00431927 f   nafxcw:afxcolorbutton.obj
 0001:0003092d       ?InCommand@CMFCPopupMenu@@UAEHXZ 0043192d f i nafxcw:afxcolorbutton.obj
 0001:00030941       ?IsDrawXPTheme@CMFCColorButton@@IBEHXZ 00431941 f   nafxcw:afxcolorbutton.obj
 0001:00030961       ?IsIdle@CMFCPopupMenu@@UBEHXZ 00431961 f i nafxcw:afxcolorbutton.obj
 0001:00030975       ?OnDraw@CMFCColorButton@@MAEXPAVCDC@@ABVCRect@@I@Z 00431975 f   nafxcw:afxcolorbutton.obj
 0001:00030c4b       ?OnDrawBorder@CMFCColorButton@@MAEXPAVCDC@@AAVCRect@@I@Z 00431c4b f   nafxcw:afxcolorbutton.obj
 0001:00030cfb       ?OnDrawFocusRect@CMFCColorButton@@MAEXPAVCDC@@ABVCRect@@@Z 00431cfb f   nafxcw:afxcolorbutton.obj
 0001:00030d50       ?OnFillBackground@CMFCColorButton@@MAEXPAVCDC@@ABVCRect@@@Z 00431d50 f   nafxcw:afxcolorbutton.obj
 0001:00030d89       ?OnInitControl@CMFCColorButton@@IAEJIJ@Z 00431d89 f   nafxcw:afxcolorbutton.obj
 0001:00030e9e       ?OnKeyDown@CMFCColorButton@@IAEXIII@Z 00431e9e f   nafxcw:afxcolorbutton.obj
 0001:00030ec0       ?OnLButtonDown@CMFCColorButton@@IAEXIVCPoint@@@Z 00431ec0 f   nafxcw:afxcolorbutton.obj
 0001:00030ed6       ?OnMouseMove@CMFCColorButton@@IAEXIVCPoint@@@Z 00431ed6 f   nafxcw:afxcolorbutton.obj
 0001:00030f09       ?OnShowColorPopup@CMFCColorButton@@MAEXXZ 00431f09 f   nafxcw:afxcolorbutton.obj
 0001:00031093       ?OnSysColorChange@CMFCColorButton@@IAEXXZ 00432093 f   nafxcw:afxcolorbutton.obj
 0001:000310bc       ?RebuildPalette@CMFCColorButton@@IAEXPAVCPalette@@@Z 004320bc f   nafxcw:afxcolorbutton.obj
 0001:000311a1       ?SetColor@CMFCColorButton@@QAEXK@Z 004321a1 f   nafxcw:afxcolorbutton.obj
 0001:000311d1       ?SizeToContent@CMFCMenuButton@@UAE?AVCSize@@H@Z 004321d1 f   nafxcw:afxmenubutton.obj
 0001:000311d1       ?SizeToContent@CMFCColorButton@@UAE?AVCSize@@H@Z 004321d1 f   nafxcw:afxcolorbutton.obj
 0001:00031216       ?UpdateColor@CMFCColorButton@@MAEXK@Z 00432216 f   nafxcw:afxcolorbutton.obj
 0001:0003125f       ??0CMFCEditBrowseCtrl@@QAE@XZ 0043225f f   nafxcw:afxeditbrowsectrl.obj
 0001:00031327       ??1CMFCEditBrowseCtrl@@UAE@XZ 00432327 f   nafxcw:afxeditbrowsectrl.obj
 0001:0003138b       ??_GCMFCEditBrowseCtrl@@UAEPAXI@Z 0043238b f i nafxcw:afxeditbrowsectrl.obj
 0001:0003138b       ??_ECMFCEditBrowseCtrl@@UAEPAXI@Z 0043238b f i nafxcw:afxeditbrowsectrl.obj
 0001:000313aa       ?EnableBrowseButton@CMFCEditBrowseCtrl@@QAEXH@Z 004323aa f   nafxcw:afxeditbrowsectrl.obj
 0001:000313f6       ?EnableFileBrowseButton@CMFCEditBrowseCtrl@@QAEXPBD0@Z 004323f6 f   nafxcw:afxeditbrowsectrl.obj
 0001:0003145d       ?EnableFolderBrowseButton@CMFCEditBrowseCtrl@@QAEXPBDI@Z 0043245d f   nafxcw:afxeditbrowsectrl.obj
 0001:000314bd       ?GetRuntimeClass@CMFCEditBrowseCtrl@@UBEPAUCRuntimeClass@@XZ 004324bd f   nafxcw:afxeditbrowsectrl.obj
 0001:000314c3       ?GetThisMessageMap@CMFCEditBrowseCtrl@@KGPBUAFX_MSGMAP@@XZ 004324c3 f   nafxcw:afxeditbrowsectrl.obj
 0001:000314c3       ?GetMessageMap@CMFCEditBrowseCtrl@@MBEPBUAFX_MSGMAP@@XZ 004324c3 f   nafxcw:afxeditbrowsectrl.obj
 0001:000314c9       ?Is32BitIcons@AFX_GLOBAL_DATA@@QBEHXZ 004324c9 f i nafxcw:afxeditbrowsectrl.obj
 0001:000314ee       ?OnAfterUpdate@CMFCEditBrowseCtrl@@UAEXXZ 004324ee f   nafxcw:afxeditbrowsectrl.obj
 0001:00031561       ?OnBrowse@CMFCEditBrowseCtrl@@UAEXXZ 00432561 f   nafxcw:afxeditbrowsectrl.obj
 0001:00031905       ?OnCancelMode@CMFCEditBrowseCtrl@@IAEXXZ 00432905 f   nafxcw:afxeditbrowsectrl.obj
 0001:0003193e       ?OnChangeLayout@CMFCEditBrowseCtrl@@UAEXXZ 0043293e f   nafxcw:afxeditbrowsectrl.obj
 0001:000319b4       ?OnDrawBrowseButton@CMFCEditBrowseCtrl@@UAEXPAVCDC@@VCRect@@HH@Z 004329b4 f   nafxcw:afxeditbrowsectrl.obj
 0001:00031b76       ?OnIllegalFileName@CMFCEditBrowseCtrl@@UAEHAAV?$CStringT@DV?$StrTraitMFC@DV?$ChTraitsCRT@D@ATL@@@@@ATL@@@Z 00432b76 f   nafxcw:afxeditbrowsectrl.obj
 0001:00031c04       ?OnInitControl@CMFCEditBrowseCtrl@@IAEJIJ@Z 00432c04 f   nafxcw:afxeditbrowsectrl.obj
 0001:00031cd5       ?OnLButtonDown@CMFCEditBrowseCtrl@@IAEXIVCPoint@@@Z 00432cd5 f   nafxcw:afxeditbrowsectrl.obj
 0001:00031d3d       ?OnLButtonUp@CMFCEditBrowseCtrl@@IAEXIVCPoint@@@Z 00432d3d f   nafxcw:afxeditbrowsectrl.obj
 0001:00031d9e       ?OnMouseMove@CMFCEditBrowseCtrl@@IAEXIVCPoint@@@Z 00432d9e f   nafxcw:afxeditbrowsectrl.obj
 0001:00031e1e       ?OnNcCalcSize@CMFCEditBrowseCtrl@@IAEXHPAUtagNCCALCSIZE_PARAMS@@@Z 00432e1e f   nafxcw:afxeditbrowsectrl.obj
 0001:00031e40       ?OnNcHitTest@CMFCEditBrowseCtrl@@IAEJVCPoint@@@Z 00432e40 f   nafxcw:afxeditbrowsectrl.obj
 0001:00031e94       ?OnNcMouseMove@CMFCEditBrowseCtrl@@IAEXIVCPoint@@@Z 00432e94 f   nafxcw:afxeditbrowsectrl.obj
 0001:00031f0b       ?OnNcPaint@CMFCEditBrowseCtrl@@IAEXXZ 00432f0b f   nafxcw:afxeditbrowsectrl.obj
 0001:00032071       ?OnRButtonUp@CMFCEditBrowseCtrl@@IAEXIVCPoint@@@Z 00433071 f   nafxcw:afxeditbrowsectrl.obj
 0001:00032071       ?OnRButtonDown@CMFCEditBrowseCtrl@@IAEXIVCPoint@@@Z 00433071 f   nafxcw:afxeditbrowsectrl.obj
 0001:000320a3       ?PreTranslateMessage@CMFCEditBrowseCtrl@@UAEHPAUtagMSG@@@Z 004330a3 f   nafxcw:afxeditbrowsectrl.obj
 0001:000320de       ?SetInternalImage@CMFCEditBrowseCtrl@@IAEXXZ 004330de f   nafxcw:afxeditbrowsectrl.obj
 0001:000321d9       ?TrimLeft@?$CStringT@DV?$StrTraitMFC@DV?$ChTraitsCRT@D@ATL@@@@@ATL@@QAEAAV12@XZ 004331d9 f i nafxcw:afxeditbrowsectrl.obj
 0001:00032240       ?TrimRight@?$CStringT@DV?$StrTraitMFC@DV?$ChTraitsCRT@D@ATL@@@@@ATL@@QAEAAV12@XZ 00433240 f i nafxcw:afxeditbrowsectrl.obj
 0001:00032292       _IsolationAwareImageList_AddMasked@12 00433292 f i nafxcw:afxeditbrowsectrl.obj
 0001:00032346       _IsolationAwareImageList_ReplaceIcon@12 00433346 f i nafxcw:afxeditbrowsectrl.obj
 0001:000323fa       ??0CMFCFontComboBox@@QAE@XZ 004333fa f   nafxcw:afxfontcombobox.obj
 0001:0003242e       ??0CMFCFontInfo@@QAE@ABV0@@Z 0043342e f i nafxcw:afxfontcombobox.obj
 0001:0003248e       ??1CMFCFontComboBox@@UAE@XZ 0043348e f   nafxcw:afxfontcombobox.obj
 0001:000324c2       ??1CMFCFontInfo@@UAE@XZ    004334c2 f i nafxcw:afxfontcombobox.obj
 0001:000324dc       ??_ECMFCFontComboBox@@UAEPAXI@Z 004334dc f i nafxcw:afxfontcombobox.obj
 0001:000324dc       ??_GCMFCFontComboBox@@UAEPAXI@Z 004334dc f i nafxcw:afxfontcombobox.obj
 0001:000324fb       ??_GCMFCFontInfo@@UAEPAXI@Z 004334fb f i nafxcw:afxfontcombobox.obj
 0001:000324fb       ??_ECMFCFontInfo@@UAEPAXI@Z 004334fb f i nafxcw:afxfontcombobox.obj
 0001:0003251a       ?CleanUp@CMFCFontComboBox@@IAEXXZ 0043351a f   nafxcw:afxfontcombobox.obj
 0001:00032590       ?CompareItem@CMFCFontComboBox@@UAEHPAUtagCOMPAREITEMSTRUCT@@@Z 00433590 f   nafxcw:afxfontcombobox.obj
 0001:00032627       ?CreateSolidBrush@CBrush@@QAEHK@Z 00433627 f i nafxcw:afxfontcombobox.obj
 0001:00032643       ?DrawItem@CMFCFontComboBox@@UAEXPAUtagDRAWITEMSTRUCT@@@Z 00433643 f   nafxcw:afxfontcombobox.obj
 0001:00032875       ?GetMessageMap@CMFCFontComboBox@@MBEPBUAFX_MSGMAP@@XZ 00433875 f   nafxcw:afxfontcombobox.obj
 0001:0003287b       ?Init@CMFCFontComboBox@@IAEXXZ 0043387b f   nafxcw:afxfontcombobox.obj
 0001:000328ae       ?MeasureItem@CMFCFontComboBox@@UAEXPAUtagMEASUREITEMSTRUCT@@@Z 004338ae f   nafxcw:afxfontcombobox.obj
 0001:00032921       ?OnCreate@CMFCFontComboBox@@IAEHPAUtagCREATESTRUCTA@@@Z 00433921 f   nafxcw:afxfontcombobox.obj
 0001:0003293f       ?OnDestroy@CMFCFontComboBox@@IAEXXZ 0043393f f   nafxcw:afxfontcombobox.obj
 0001:0003294f       ?OnInitControl@CMFCFontComboBox@@IAEJIJ@Z 0043394f f   nafxcw:afxfontcombobox.obj
 0001:00032a36       ?PreSubclassWindow@CMFCFontComboBox@@MAEXXZ 00433a36 f   nafxcw:afxfontcombobox.obj
 0001:00032a53       ?PreTranslateMessage@CMFCFontComboBox@@UAEHPAUtagMSG@@@Z 00433a53 f   nafxcw:afxfontcombobox.obj
 0001:00032b43       ?Setup@CMFCFontComboBox@@QAEHHEE@Z 00433b43 f   nafxcw:afxfontcombobox.obj
 0001:00032cab       ??0CMFCLinkCtrl@@QAE@XZ    00433cab f   nafxcw:afxlinkctrl.obj
 0001:00032d39       ??1CMFCLinkCtrl@@UAE@XZ    00433d39 f   nafxcw:afxlinkctrl.obj
 0001:00032d66       ??9CPoint@@QBEHUtagPOINT@@@Z 00433d66 f i nafxcw:afxvslistbox.obj
 0001:00032d66       ??9CSize@@QBEHUtagSIZE@@@Z 00433d66 f i nafxcw:afxlinkctrl.obj
 0001:00032d83       ??_GCMFCLinkCtrl@@UAEPAXI@Z 00433d83 f i nafxcw:afxlinkctrl.obj
 0001:00032d83       ??_ECMFCLinkCtrl@@UAEPAXI@Z 00433d83 f i nafxcw:afxlinkctrl.obj
 0001:00032da2       ?GetMessageMap@CMFCLinkCtrl@@MBEPBUAFX_MSGMAP@@XZ 00433da2 f   nafxcw:afxlinkctrl.obj
 0001:00032da8       ?GetRuntimeClass@CMFCLinkCtrl@@UBEPAUCRuntimeClass@@XZ 00433da8 f   nafxcw:afxlinkctrl.obj
 0001:00032dae       ?MapWindowPoints@CWnd@@QBEXPAV1@PAUtagRECT@@@Z 00433dae f i nafxcw:afxlinkctrl.obj
 0001:00032dce       ?OnClicked@CMFCLinkCtrl@@IAEHXZ 00433dce f   nafxcw:afxlinkctrl.obj
 0001:00032ec2       ?OnDraw@CMFCLinkCtrl@@MAEXPAVCDC@@ABVCRect@@I@Z 00433ec2 f   nafxcw:afxlinkctrl.obj
 0001:00032fc6       ?OnDrawFocusRect@CMFCLinkCtrl@@MAEXPAVCDC@@ABVCRect@@@Z 00433fc6 f   nafxcw:afxlinkctrl.obj
 0001:00033004       ?OnInitControl@CMFCLinkCtrl@@IAEJIJ@Z 00434004 f   nafxcw:afxlinkctrl.obj
 0001:00033178       ?PreTranslateMessage@CMFCLinkCtrl@@MAEHPAUtagMSG@@@Z 00434178 f   nafxcw:afxlinkctrl.obj
 0001:000331b7       ?SetURL@CMFCLinkCtrl@@QAEXPBD@Z 004341b7 f   nafxcw:afxlinkctrl.obj
 0001:000331db       ?SetURLPrefix@CMFCLinkCtrl@@QAEXPBD@Z 004341db f   nafxcw:afxlinkctrl.obj
 0001:000331f6       ?SizeToContent@CMFCLinkCtrl@@UAE?AVCSize@@HH@Z 004341f6 f   nafxcw:afxlinkctrl.obj
 0001:000333b8       ??0?$CStringT@DV?$StrTraitMFC@DV?$ChTraitsCRT@D@ATL@@@@@ATL@@QAE@DH@Z 004343b8 f i nafxcw:afxmaskededit.obj
 0001:0003340c       ??0CMFCMaskedEdit@@QAE@XZ  0043440c f   nafxcw:afxmaskededit.obj
 0001:00033482       ??1CMFCMaskedEdit@@UAE@XZ  00434482 f   nafxcw:afxmaskededit.obj
 0001:000334c2       ??_GCMFCMaskedEdit@@UAEPAXI@Z 004344c2 f i nafxcw:afxmaskededit.obj
 0001:000334c2       ??_ECMFCMaskedEdit@@UAEPAXI@Z 004344c2 f i nafxcw:afxmaskededit.obj
 0001:000334e1       ?CheckChar@CMFCMaskedEdit@@AAEHDH@Z 004344e1 f   nafxcw:afxmaskededit.obj
 0001:00033574       ?DisableMask@CMFCMaskedEdit@@QAEXXZ 00434574 f   nafxcw:afxmaskededit.obj
 0001:00033588       ?DoUpdate@CMFCMaskedEdit@@AAEHHHH@Z 00434588 f   nafxcw:afxmaskededit.obj
 0001:00033641       ?EnableMask@CMFCMaskedEdit@@QAEXPBD0D0@Z 00434641 f   nafxcw:afxmaskededit.obj
 0001:000336a3       ?GetGroupBounds@CMFCMaskedEdit@@AAEXAAH0HH@Z 004346a3 f   nafxcw:afxmaskededit.obj
 0001:000337c5       ?GetMaskedValue@CMFCMaskedEdit@@IBE?BV?$CStringT@DV?$StrTraitMFC@DV?$ChTraitsCRT@D@ATL@@@@@ATL@@H@Z 004347c5 f   nafxcw:afxmaskededit.obj
 0001:00033871       ?GetMessageMap@CMFCMaskedEdit@@MBEPBUAFX_MSGMAP@@XZ 00434871 f   nafxcw:afxmaskededit.obj
 0001:00033877       ?GetRuntimeClass@CMFCMaskedEdit@@UBEPAUCRuntimeClass@@XZ 00434877 f   nafxcw:afxmaskededit.obj
 0001:0003387d       ?GetValue@CMFCMaskedEdit@@IBE?BV?$CStringT@DV?$StrTraitMFC@DV?$ChTraitsCRT@D@ATL@@@@@ATL@@XZ 0043487d f i nafxcw:afxmaskededit.obj
 0001:000338a0       ?IsMaskedChar@CMFCMaskedEdit@@MBEHDD@Z 004348a0 f   nafxcw:afxmaskededit.obj
 0001:0003395f       ?OnChar@CMFCMaskedEdit@@IAEXIII@Z 0043495f f   nafxcw:afxmaskededit.obj
 0001:000339db       ?OnCharBackspace@CMFCMaskedEdit@@AAEXIII@Z 004349db f   nafxcw:afxmaskededit.obj
 0001:00033e12       ?OnCharDelete@CMFCMaskedEdit@@AAEXIII@Z 00434e12 f   nafxcw:afxmaskededit.obj
 0001:00034208       ?OnCharPrintchar@CMFCMaskedEdit@@AAEXIII@Z 00435208 f   nafxcw:afxmaskededit.obj
 0001:00034606       ?OnCreate@CMFCMaskedEdit@@IAEHPAUtagCREATESTRUCTA@@@Z 00435606 f   nafxcw:afxmaskededit.obj
 0001:00034627       ?OnClear@CMFCMaskedEdit@@IAEXXZ 00435627 f   nafxcw:afxmaskededit.obj
 0001:00034627       ?OnCut@CMFCMaskedEdit@@IAEXXZ 00435627 f   nafxcw:afxmaskededit.obj
 0001:000346da       ?OnGetText@CMFCMaskedEdit@@IAEHHPAD@Z 004356da f   nafxcw:afxmaskededit.obj
 0001:00034791       ?OnGetTextLength@CMFCMaskedEdit@@IAEIXZ 00435791 f   nafxcw:afxmaskededit.obj
 0001:00034811       ?OnInitControl@CMFCMaskedEdit@@IAEJIJ@Z 00435811 f   nafxcw:afxmaskededit.obj
 0001:000349ee       ?OnKeyDown@CMFCMaskedEdit@@IAEXIII@Z 004359ee f   nafxcw:afxmaskededit.obj
 0001:00034ded       ?OnLButtonUp@CMFCMaskedEdit@@IAEXIVCPoint@@@Z 00435ded f   nafxcw:afxmaskededit.obj
 0001:00034eb8       ?OnPaste@CMFCMaskedEdit@@IAEXXZ 00435eb8 f   nafxcw:afxmaskededit.obj
 0001:000350ef       ?OnSetFocusR@CMFCMaskedEdit@@IAEXXZ 004360ef f   nafxcw:afxmaskededit.obj
 0001:0003512c       ?OnSetText@CMFCMaskedEdit@@IAEHPBD@Z 0043612c f   nafxcw:afxmaskededit.obj
 0001:000351d0       ?SetSel@CEdit@@QAEXHHH@Z   004361d0 f i nafxcw:afxmaskededit.obj
 0001:00035207       ?SetValidChars@CMFCMaskedEdit@@QAEXPBD@Z 00436207 f   nafxcw:afxmaskededit.obj
 0001:0003522b       ?SetValue@CMFCMaskedEdit@@IAEHPBDH@Z 0043622b f   nafxcw:afxmaskededit.obj
 0001:0003548c       ??0CMFCMenuButton@@QAE@XZ  0043648c f   nafxcw:afxmenubutton.obj
 0001:000354d4       ??1CMFCMenuButton@@UAE@XZ  004364d4 f   nafxcw:afxmenubutton.obj
 0001:000354df       ??_GCMFCMenuButton@@UAEPAXI@Z 004364df f i nafxcw:afxmenubutton.obj
 0001:000354df       ??_ECMFCMenuButton@@UAEPAXI@Z 004364df f i nafxcw:afxmenubutton.obj
 0001:00035504       ?GetMessageMap@CMFCMenuButton@@MBEPBUAFX_MSGMAP@@XZ 00436504 f   nafxcw:afxmenubutton.obj
 0001:0003550a       ?GetRuntimeClass@CMFCMenuButton@@UBEPAUCRuntimeClass@@XZ 0043650a f   nafxcw:afxmenubutton.obj
 0001:00035510       ?OnDraw@CMFCMenuButton@@MAEXPAVCDC@@ABVCRect@@I@Z 00436510 f   nafxcw:afxmenubutton.obj
 0001:0003561b       ?OnInitControl@CMFCMenuButton@@IAEJIJ@Z 0043661b f   nafxcw:afxmenubutton.obj
 0001:00035730       ?OnKeyDown@CMFCMenuButton@@IAEXIII@Z 00436730 f   nafxcw:afxmenubutton.obj
 0001:0003575c       ?OnKillFocus@CMFCMenuButton@@IAEXPAVCWnd@@@Z 0043675c f   nafxcw:afxmenubutton.obj
 0001:000357b2       ?OnLButtonDblClk@CMFCMenuButton@@IAEXIVCPoint@@@Z 004367b2 f   nafxcw:afxmenubutton.obj
 0001:000357f1       ?OnLButtonDown@CMFCMenuButton@@IAEXIVCPoint@@@Z 004367f1 f   nafxcw:afxmenubutton.obj
 0001:000358b9       ?OnLButtonUp@CMFCMenuButton@@IAEXIVCPoint@@@Z 004368b9 f   nafxcw:afxmenubutton.obj
 0001:00035917       ?OnShowMenu@CMFCMenuButton@@MAEXXZ 00436917 f   nafxcw:afxmenubutton.obj
 0001:00035a78       ?PreTranslateMessage@CMFCMenuButton@@UAEHPAUtagMSG@@@Z 00436a78 f   nafxcw:afxmenubutton.obj
 0001:00035ab7       ??0?$CList@PAVCMFCPropertyGridProperty@@PAV1@@@QAE@H@Z 00436ab7 f i nafxcw:afxpropertygridctrl.obj
 0001:00035add       ??0CMFCPropertyGridCtrl@@QAE@XZ 00436add f   nafxcw:afxpropertygridctrl.obj
 0001:00035d05       ??1?$CList@PAVCMFCPropertyGridProperty@@PAV1@@@UAE@XZ 00436d05 f i nafxcw:afxpropertygridctrl.obj
 0001:00035d10       ??1CMFCPropertyGridCtrl@@UAE@XZ 00436d10 f   nafxcw:afxpropertygridctrl.obj
 0001:00035de1       ??_G?$CList@PAVCMFCPropertyGridProperty@@PAV1@@@UAEPAXI@Z 00436de1 f i nafxcw:afxpropertygridctrl.obj
 0001:00035de1       ??_E?$CList@PAVCMFCPropertyGridProperty@@PAV1@@@UAEPAXI@Z 00436de1 f i nafxcw:afxpropertygridctrl.obj
 0001:00035e06       ??_ECMFCPropertyGridCtrl@@UAEPAXI@Z 00436e06 f i nafxcw:afxpropertygridctrl.obj
 0001:00035e06       ??_GCMFCPropertyGridCtrl@@UAEPAXI@Z 00436e06 f i nafxcw:afxpropertygridctrl.obj
 0001:00035e25       ?AddTerminalProp@CMFCPropertyGridProperty@@IAEXAAV?$CList@PAVCMFCPropertyGridProperty@@PAV1@@@@Z 00436e25 f   nafxcw:afxpropertygridctrl.obj
 0001:00035eb3       ?AdjustLayout@CMFCPropertyGridCtrl@@UAEXXZ 00436eb3 f   nafxcw:afxpropertygridctrl.obj
 0001:00036116       ?CalcEditMargin@CMFCPropertyGridCtrl@@IAEXXZ 00437116 f   nafxcw:afxpropertygridctrl.obj
 0001:000361f3       ?CloseColorPopup@CMFCPropertyGridCtrl@@UAEXXZ 004371f3 f   nafxcw:afxpropertygridctrl.obj
 0001:00036230       ?CompareProps@CMFCPropertyGridCtrl@@MBEHPBVCMFCPropertyGridProperty@@0@Z 00437230 f   nafxcw:afxpropertygridctrl.obj
 0001:0003624e       ?Create@CMFCPropertyGridCtrl@@UAEHKABUtagRECT@@PAVCWnd@@I@Z 0043724e f   nafxcw:afxpropertygridctrl.obj
 0001:000362a8       ?CreateBoldFont@CMFCPropertyGridCtrl@@IAEXXZ 004372a8 f   nafxcw:afxpropertygridctrl.obj
 0001:00036335       ?EditItem@CMFCPropertyGridCtrl@@UAEHPAVCMFCPropertyGridProperty@@PAUtagPOINT@@@Z 00437335 f   nafxcw:afxpropertygridctrl.obj
 0001:00036394       ?EnableDescriptionArea@CMFCPropertyGridCtrl@@QAEXH@Z 00437394 f   nafxcw:afxpropertygridctrl.obj
 0001:000363c8       ?EnableHeaderCtrl@CMFCPropertyGridCtrl@@QAEXHPBD0@Z 004373c8 f   nafxcw:afxpropertygridctrl.obj
 0001:0003648d       ?EndEditItem@CMFCPropertyGridCtrl@@UAEHH@Z 0043748d f   nafxcw:afxpropertygridctrl.obj
 0001:0003650a       ?EnsureVisible@CMFCPropertyGridCtrl@@QAEXPAVCMFCPropertyGridProperty@@H@Z 0043750a f   nafxcw:afxpropertygridctrl.obj
 0001:00036629       ?Expand@CMFCPropertyGridProperty@@QAEXH@Z 00437629 f   nafxcw:afxpropertygridctrl.obj
 0001:000366aa       ?GetExpandedSubItems@CMFCPropertyGridProperty@@QBEHH@Z 004376aa f   nafxcw:afxpropertygridctrl.obj
 0001:000366eb       ?GetHeaderCtrl@CMFCPropertyGridCtrl@@UAEAAVCMFCHeaderCtrl@@XZ 004376eb f i nafxcw:afxpropertygridctrl.obj
 0001:000366f2       ?GetHierarchyLevel@CMFCPropertyGridProperty@@QBEHXZ 004376f2 f   nafxcw:afxpropertygridctrl.obj
 0001:00036702       ?GetMessageMap@CMFCPropertyGridCtrl@@MBEPBUAFX_MSGMAP@@XZ 00437702 f   nafxcw:afxpropertygridctrl.obj
 0001:00036708       ?GetRibbonImageScale@AFX_GLOBAL_DATA@@QAENXZ 00437708 f i nafxcw:afxpropertygridctrl.obj
 0001:0003671b       ?GetRuntimeClass@CMFCPropertyGridCtrl@@UBEPAUCRuntimeClass@@XZ 0043771b f   nafxcw:afxpropertygridctrl.obj
 0001:00036721       ?GetScrollBarCtrl@CMFCPropertyGridCtrl@@UBEPAVCScrollBar@@H@Z 00437721 f   nafxcw:afxpropertygridctrl.obj
 0001:00036740       ?GetTextColor@CMFCPropertyGridCtrl@@QBEKXZ 00437740 f i nafxcw:afxpropertygridctrl.obj
 0001:00036754       ?GetTotalItems@CMFCPropertyGridCtrl@@IBEHH@Z 00437754 f   nafxcw:afxpropertygridctrl.obj
 0001:000367bd       ?HitTest@CMFCPropertyGridCtrl@@QBEPAVCMFCPropertyGridProperty@@VCPoint@@PAW4ClickArea@2@H@Z 004377bd f   nafxcw:afxpropertygridctrl.obj
 0001:0003688b       ?HitTest@CMFCPropertyGridProperty@@QAEPAV1@VCPoint@@PAW4ClickArea@1@@Z 0043788b f   nafxcw:afxpropertygridctrl.obj
 0001:00036929       ?Init@CMFCPropertyGridCtrl@@MAEXXZ 00437929 f   nafxcw:afxpropertygridctrl.obj
 0001:00036b00       ?InitHeader@CMFCPropertyGridCtrl@@UAEXXZ 00437b00 f   nafxcw:afxpropertygridctrl.obj
 0001:00036b54       ?IsParentExpanded@CMFCPropertyGridProperty@@QBEHXZ 00437b54 f   nafxcw:afxpropertygridctrl.obj
 0001:00036b71       ?MarkModifiedProperties@CMFCPropertyGridCtrl@@QAEXHH@Z 00437b71 f   nafxcw:afxpropertygridctrl.obj
 0001:00036b9f       ?NotifyAccessibility@CMFCPropertyGridCtrl@@MAEXPAVCMFCPropertyGridProperty@@@Z 00437b9f f   nafxcw:afxpropertygridctrl.obj
 0001:00036c00       ?OnCancelMode@CMFCPropertyGridCtrl@@IAEXXZ 00437c00 f   nafxcw:afxpropertygridctrl.obj
 0001:00036c8c       ?OnChar@CMFCPropertyGridCtrl@@IAEXIII@Z 00437c8c f   nafxcw:afxpropertygridctrl.obj
 0001:00036ccb       ?OnClickButton@CMFCPropertyGridCtrl@@UAEXVCPoint@@@Z 00437ccb f   nafxcw:afxpropertygridctrl.obj
 0001:00036d85       ?OnCloseCombo@CMFCPropertyGridCtrl@@IAEXXZ 00437d85 f   nafxcw:afxpropertygridctrl.obj
 0001:00036d95       ?OnComboKillFocus@CMFCPropertyGridCtrl@@IAEXXZ 00437d95 f   nafxcw:afxpropertygridctrl.obj
 0001:00036e0d       ?OnCreate@CMFCPropertyGridCtrl@@IAEHPAUtagCREATESTRUCTA@@@Z 00437e0d f   nafxcw:afxpropertygridctrl.obj
 0001:00036e2e       ?OnCtlColor@CMFCPropertyGridCtrl@@IAEPAUHBRUSH__@@PAVCDC@@PAVCWnd@@I@Z 00437e2e f   nafxcw:afxpropertygridctrl.obj
 0001:00036e8a       ?OnDestroy@CMFCPropertyGridCtrl@@IAEXXZ 00437e8a f   nafxcw:afxpropertygridctrl.obj
 0001:00036edb       ?OnDraw@CMFCPropertyGridCtrl@@MAEXPAVCDC@@@Z 00437edb f   nafxcw:afxpropertygridctrl.obj
 0001:00036ff2       ?OnDrawDescription@CMFCPropertyGridCtrl@@MAEXPAVCDC@@VCRect@@@Z 00437ff2 f   nafxcw:afxpropertygridctrl.obj
 0001:000370f9       ?OnDrawList@CMFCPropertyGridCtrl@@MAEXPAVCDC@@@Z 004380f9 f   nafxcw:afxpropertygridctrl.obj
 0001:000371e5       ?OnDrawProperty@CMFCPropertyGridCtrl@@UBEHPAVCDC@@PAVCMFCPropertyGridProperty@@@Z 004381e5 f   nafxcw:afxpropertygridctrl.obj
 0001:00037675       ?OnEditKillFocus@CMFCPropertyGridCtrl@@IAEXXZ 00438675 f   nafxcw:afxpropertygridctrl.obj
 0001:000376fc       ?OnFillBackground@CMFCPropertyGridCtrl@@MAEXPAVCDC@@VCRect@@@Z 004386fc f   nafxcw:afxpropertygridctrl.obj
 0001:00037740       ?OnGetDlgCode@CMFCPropertyGridCtrl@@IAEIXZ 00438740 f   nafxcw:afxpropertygridctrl.obj
 0001:00037746       ?OnGetFont@CMFCPropertyGridCtrl@@IAEPAUHFONT__@@XZ 00438746 f   nafxcw:afxpropertygridctrl.obj
 0001:00037759       ?OnGetObject@CMFCPropertyGridCtrl@@IAEJIJ@Z 00438759 f   nafxcw:afxpropertygridctrl.obj
 0001:00037783       ?OnHeaderEndTrack@CMFCPropertyGridCtrl@@IAEXPAUtagNMHDR@@PAJ@Z 00438783 f   nafxcw:afxpropertygridctrl.obj
 0001:00037797       ?OnHeaderItemChanged@CMFCPropertyGridCtrl@@IAEXPAUtagNMHDR@@PAJ@Z 00438797 f   nafxcw:afxpropertygridctrl.obj
 0001:0003789b       ?OnHeaderTrack@CMFCPropertyGridCtrl@@IAEXPAUtagNMHDR@@PAJ@Z 0043889b f   nafxcw:afxpropertygridctrl.obj
 0001:000378e9       ?OnInitControl@CMFCPropertyGridCtrl@@IAEJIJ@Z 004388e9 f   nafxcw:afxpropertygridctrl.obj
 0001:00037a55       ?OnKeyDown@CMFCPropertyGridCtrl@@IAEXIII@Z 00438a55 f   nafxcw:afxpropertygridctrl.obj
 0001:00037f37       ?OnKillFocus@CMFCPropertyGridCtrl@@IAEXPAVCWnd@@@Z 00438f37 f   nafxcw:afxpropertygridctrl.obj
 0001:00037fa1       ?OnLButtonDblClk@CMFCPropertyGridCtrl@@IAEXIVCPoint@@@Z 00438fa1 f   nafxcw:afxpropertygridctrl.obj
 0001:0003813e       ?OnLButtonDown@CMFCPropertyGridCtrl@@IAEXIVCPoint@@@Z 0043913e f   nafxcw:afxpropertygridctrl.obj
 0001:0003839a       ?OnLButtonUp@CMFCPropertyGridCtrl@@IAEXIVCPoint@@@Z 0043939a f   nafxcw:afxpropertygridctrl.obj
 0001:0003854b       ?OnMouseMove@CMFCPropertyGridCtrl@@IAEXIVCPoint@@@Z 0043954b f   nafxcw:afxpropertygridctrl.obj
 0001:00038583       ?OnMouseWheel@CMFCPropertyGridCtrl@@IAEHIFVCPoint@@@Z 00439583 f   nafxcw:afxpropertygridctrl.obj
 0001:000385d7       ?OnNcCalcSize@CMFCPropertyGridCtrl@@IAEXHPAUtagNCCALCSIZE_PARAMS@@@Z 004395d7 f   nafxcw:afxpropertygridctrl.obj
 0001:00038603       ?OnNcPaint@CMFCPropertyGridCtrl@@IAEXXZ 00439603 f   nafxcw:afxpropertygridctrl.obj
 0001:00038655       ?OnNeedTipText@CMFCPropertyGridCtrl@@IAEHIPAUtagNMHDR@@PAJ@Z 00439655 f   nafxcw:afxpropertygridctrl.obj
 0001:000387a1       ?OnNotify@CMFCPropertyGridCtrl@@MAEHIJPAJ@Z 004397a1 f   nafxcw:afxpropertygridctrl.obj
 0001:000387ec       ?OnPaint@CMFCPropertyGridCtrl@@IAEXXZ 004397ec f   nafxcw:afxpropertygridctrl.obj
 0001:00038827       ?OnPrintClient@CMFCPropertyGridCtrl@@IAEJPAVCDC@@I@Z 00439827 f   nafxcw:afxpropertygridctrl.obj
 0001:00038841       ?OnPropertyChanged@CMFCPropertyGridCtrl@@UBEXPAVCMFCPropertyGridProperty@@@Z 00439841 f   nafxcw:afxpropertygridctrl.obj
 0001:0003887c       ?OnRButtonDown@CMFCPropertyGridCtrl@@IAEXIVCPoint@@@Z 0043987c f   nafxcw:afxpropertygridctrl.obj
 0001:000389d7       ?OnSelectCombo@CMFCPropertyGridCtrl@@IAEXXZ 004399d7 f   nafxcw:afxpropertygridctrl.obj
 0001:000389e7       ?OnSetCursor@CMFCPropertyGridCtrl@@IAEHPAVCWnd@@II@Z 004399e7 f   nafxcw:afxpropertygridctrl.obj
 0001:00038ad6       ?OnSetFocus@CMFCPropertyGridCtrl@@IAEXPAVCWnd@@@Z 00439ad6 f   nafxcw:afxpropertygridctrl.obj
 0001:00038b11       ?OnSetFont@CMFCPropertyGridCtrl@@IAEXPAVCFont@@H@Z 00439b11 f   nafxcw:afxpropertygridctrl.obj
 0001:00038b42       ?OnSize@CMFCPropertyGridCtrl@@IAEXIHH@Z 00439b42 f   nafxcw:afxpropertygridctrl.obj
 0001:00038b76       ?OnSpinDeltaPos@CMFCPropertyGridCtrl@@IAEXPAUtagNMHDR@@PAJ@Z 00439b76 f   nafxcw:afxpropertygridctrl.obj
 0001:00038b94       ?OnStyleChanged@CMFCPropertyGridCtrl@@IAEXHPAUtagSTYLESTRUCT@@@Z 00439b94 f   nafxcw:afxpropertygridctrl.obj
 0001:00038baa       ?OnUpdateSpin@CMFCPropertyGridCtrl@@IAEJIJ@Z 00439baa f   nafxcw:afxpropertygridctrl.obj
 0001:00038bca       ?OnVScroll@CMFCPropertyGridCtrl@@IAEXIIPAVCScrollBar@@@Z 00439bca f   nafxcw:afxpropertygridctrl.obj
 0001:00038d12       ?PreSubclassWindow@CMFCPropertyGridCtrl@@MAEXXZ 00439d12 f   nafxcw:afxpropertygridctrl.obj
 0001:00038d32       ?PreTranslateMessage@CMFCPropertyGridCtrl@@UAEHPAUtagMSG@@@Z 00439d32 f   nafxcw:afxpropertygridctrl.obj
 0001:0003943b       ?ProcessClipboardAccelerators@CMFCPropertyGridCtrl@@MAEHI@Z 0043a43b f   nafxcw:afxpropertygridctrl.obj
 0001:000394f6       ?Redraw@CMFCPropertyGridProperty@@QAEXXZ 0043a4f6 f   nafxcw:afxpropertygridctrl.obj
 0001:00039572       ?RemoveHead@?$CList@PAVCMFCButton@@PAV1@@@QAEPAVCMFCButton@@XZ 0043a572 f i nafxcw:afxvslistbox.obj
 0001:00039572       ?RemoveHead@?$CList@PAVCPropertyPage@@PAV1@@@QAEPAVCPropertyPage@@XZ 0043a572 f i nafxcw:afxtoolbarscustomizedialog.obj
 0001:00039572       ?RemoveHead@?$CList@PAVCMFCPropertyGridProperty@@PAV1@@@QAEPAVCMFCPropertyGridProperty@@XZ 0043a572 f i nafxcw:afxpropertygridctrl.obj
 0001:000395a0       ?ReposProperties@CMFCPropertyGridCtrl@@IAEXXZ 0043a5a0 f   nafxcw:afxpropertygridctrl.obj
 0001:00039658       ?Reposition@CMFCPropertyGridProperty@@IAEXAAH@Z 0043a658 f   nafxcw:afxpropertygridctrl.obj
 0001:0003985a       ?Serialize@?$CList@KK@@UAEXAAVCArchive@@@Z 0043a85a f i nafxcw:afxcolorbutton.obj
 0001:0003985a       ?Serialize@?$CList@PAUHINSTANCE__@@PAU1@@@UAEXAAVCArchive@@@Z 0043a85a f i nafxcw:afxtoolbarimages.obj
 0001:0003985a       ?Serialize@?$CList@PAVCMDIChildWndEx@@PAV1@@@UAEXAAVCArchive@@@Z 0043a85a f i nafxcw:afxmdiclientareawnd.obj
 0001:0003985a       ?Serialize@?$CList@PAVCPropertyPage@@PAV1@@@UAEXAAVCArchive@@@Z 0043a85a f i nafxcw:afxtoolbarscustomizedialog.obj
 0001:0003985a       ?Serialize@?$CList@PAVCMFCButton@@PAV1@@@UAEXAAVCArchive@@@Z 0043a85a f i nafxcw:afxvslistbox.obj
 0001:0003985a       ?Serialize@?$CList@PAVCFrameWnd@@PAV1@@@UAEXAAVCArchive@@@Z 0043a85a f i nafxcw:afxframeimpl.obj
 0001:0003985a       ?Serialize@?$CList@PAUHWND__@@PAU1@@@UAEXAAVCArchive@@@Z 0043a85a f i nafxcw:winfrm.obj
 0001:0003985a       ?Serialize@?$CList@II@@UAEXAAVCArchive@@@Z 0043a85a f i nafxcw:afxtoolbarimages.obj
 0001:0003985a       ?Serialize@?$CList@PAVCMFCPropertyGridProperty@@PAV1@@@UAEXAAVCArchive@@@Z 0043a85a f i nafxcw:afxpropertygridctrl.obj
 0001:0003985a       ?Serialize@?$CList@PAVIControlSiteFactory@@PAV1@@@UAEXAAVCArchive@@@Z 0043a85a f i nafxcw:occmgr.obj
 0001:0003985a       ?Serialize@?$CList@PAU_ITEMIDLIST@@PAU1@@@UAEXAAVCArchive@@@Z 0043a85a f i nafxcw:afxshelltreectrl.obj
 0001:000398bc       ?SetAlphabeticMode@CMFCPropertyGridCtrl@@QAEXH@Z 0043a8bc f   nafxcw:afxpropertygridctrl.obj
 0001:00039918       ?SetBuddy@CSpinButtonCtrl@@QAEPAVCWnd@@PAV2@@Z 0043a918 f i nafxcw:afxpropertygridctrl.obj
 0001:00039940       ?SetColor@CMFCPropertyGridColorProperty@@QAEXK@Z 0043a940 f   nafxcw:afxpropertygridctrl.obj
 0001:000399ec       ?SetCurSel@CMFCPropertyGridCtrl@@QAEXPAVCMFCPropertyGridProperty@@H@Z 0043a9ec f   nafxcw:afxpropertygridctrl.obj
 0001:00039bf4       ?SetCurrFont@CMFCPropertyGridCtrl@@IAEPAUHFONT__@@PAVCDC@@@Z 0043abf4 f   nafxcw:afxpropertygridctrl.obj
 0001:00039c1f       ?SetDescriptionRows@CMFCPropertyGridCtrl@@QAEXH@Z 0043ac1f f   nafxcw:afxpropertygridctrl.obj
 0001:00039c53       ?SetModifiedFlag@CMFCPropertyGridProperty@@IAEXXZ 0043ac53 f   nafxcw:afxpropertygridctrl.obj
 0001:00039e17       ?SetScrollSizes@CMFCPropertyGridCtrl@@IAEXXZ 0043ae17 f   nafxcw:afxpropertygridctrl.obj
 0001:00039f32       ?SetVSDotNetLook@CMFCPropertyGridCtrl@@QAEXH@Z 0043af32 f   nafxcw:afxpropertygridctrl.obj
 0001:00039f5a       ?SpanExcluding@?$CStringT@DV?$StrTraitMFC@DV?$ChTraitsCRT@D@ATL@@@@@ATL@@QBE?AV12@PBD@Z 0043af5a f i nafxcw:afxpropertygridctrl.obj
 0001:00039f99       ?TrackDescr@CMFCPropertyGridCtrl@@IAEXH@Z 0043af99 f   nafxcw:afxpropertygridctrl.obj
 0001:0003a06f       ?TrackHeader@CMFCPropertyGridCtrl@@IAEXH@Z 0043b06f f   nafxcw:afxpropertygridctrl.obj
 0001:0003a1c6       ?TrackToolTip@CMFCPropertyGridCtrl@@IAEXVCPoint@@@Z 0043b1c6 f   nafxcw:afxpropertygridctrl.obj
 0001:0003a4af       ?UpdateColor@CMFCPropertyGridCtrl@@UAEXK@Z 0043b4af f   nafxcw:afxpropertygridctrl.obj
 0001:0003a52a       ?accHitTest@CMFCPropertyGridCtrl@@UAEJJJPAUtagVARIANT@@@Z 0043b52a f   nafxcw:afxpropertygridctrl.obj
 0001:0003a59e       ?accLocation@CMFCPropertyGridCtrl@@UAEJPAJ000UtagVARIANT@@@Z 0043b59e f   nafxcw:afxpropertygridctrl.obj
 0001:0003a685       ?get_accChild@CMFCPropertyGridCtrl@@UAEJUtagVARIANT@@PAPAUIDispatch@@@Z 0043b685 f   nafxcw:afxpropertygridctrl.obj
 0001:0003a6a2       ?get_accDefaultAction@CMFCPropertyGridCtrl@@UAEJUtagVARIANT@@PAPA_W@Z 0043b6a2 f   nafxcw:afxpropertygridctrl.obj
 0001:0003a6aa       ?get_accDescription@CMFCPropertyGridCtrl@@UAEJUtagVARIANT@@PAPA_W@Z 0043b6aa f   nafxcw:afxpropertygridctrl.obj
 0001:0003a737       ?get_accFocus@CBasePane@@UAEJPAUtagVARIANT@@@Z 0043b737 f   nafxcw:afxbasepane.obj
 0001:0003a737       ?get_accSelection@CBasePane@@UAEJPAUtagVARIANT@@@Z 0043b737 f   nafxcw:afxbasepane.obj
 0001:0003a737       ?get_accSelection@CMFCPropertyGridCtrl@@UAEJPAUtagVARIANT@@@Z 0043b737 f   nafxcw:afxpropertygridctrl.obj
 0001:0003a737       ?get_accFocus@CMFCPropertyGridCtrl@@UAEJPAUtagVARIANT@@@Z 0043b737 f   nafxcw:afxpropertygridctrl.obj
 0001:0003a74f       ?get_accKeyboardShortcut@CMFCPropertyGridCtrl@@UAEJUtagVARIANT@@PAPA_W@Z 0043b74f f   nafxcw:afxpropertygridctrl.obj
 0001:0003a74f       ?put_accValue@CMFCBaseAccessibleObject@@UAEJUtagVARIANT@@PA_W@Z 0043b74f f   nafxcw:afxbaseribbonelement.obj
 0001:0003a74f       ?put_accName@CMFCBaseAccessibleObject@@UAEJUtagVARIANT@@PA_W@Z 0043b74f f   nafxcw:afxbaseribbonelement.obj
 0001:0003a74f       ?get_accHelp@CMFCPropertyGridCtrl@@UAEJUtagVARIANT@@PAPA_W@Z 0043b74f f   nafxcw:afxpropertygridctrl.obj
 0001:0003a74f       ?accSelect@CMFCBaseAccessibleObject@@UAEJJUtagVARIANT@@@Z 0043b74f f   nafxcw:afxbaseribbonelement.obj
 0001:0003a755       ?get_accHelpTopic@CBasePane@@UAEJPAPA_WUtagVARIANT@@PAJ@Z 0043b755 f   nafxcw:afxbasepane.obj
 0001:0003a755       ?accNavigate@CMFCBaseAccessibleObject@@UAEJJUtagVARIANT@@PAU2@@Z 0043b755 f   nafxcw:afxbaseribbonelement.obj
 0001:0003a755       ?get_accHelpTopic@CMFCPropertyGridCtrl@@UAEJPAPA_WUtagVARIANT@@PAJ@Z 0043b755 f   nafxcw:afxpropertygridctrl.obj
 0001:0003a75b       ?get_accName@CMFCPropertyGridCtrl@@UAEJUtagVARIANT@@PAPA_W@Z 0043b75b f   nafxcw:afxpropertygridctrl.obj
 0001:0003a87d       ?get_accRole@CMFCPropertyGridCtrl@@UAEJUtagVARIANT@@PAU2@@Z 0043b87d f   nafxcw:afxpropertygridctrl.obj
 0001:0003a8bc       ?get_accState@CMFCPropertyGridCtrl@@UAEJUtagVARIANT@@PAU2@@Z 0043b8bc f   nafxcw:afxpropertygridctrl.obj
 0001:0003a933       ?get_accValue@CMFCPropertyGridCtrl@@UAEJUtagVARIANT@@PAPA_W@Z 0043b933 f   nafxcw:afxpropertygridctrl.obj
 0001:0003a9a7       ??0?$CList@PAU_ITEMIDLIST@@PAU1@@@QAE@H@Z 0043b9a7 f i nafxcw:afxshelltreectrl.obj
 0001:0003a9cd       ??0CMFCShellTreeCtrl@@QAE@XZ 0043b9cd f   nafxcw:afxshelltreectrl.obj
 0001:0003a9f8       ??1?$CList@PAU_ITEMIDLIST@@PAU1@@@UAE@XZ 0043b9f8 f i nafxcw:afxshelltreectrl.obj
 0001:0003aa03       ??_G?$CList@PAU_ITEMIDLIST@@PAU1@@@UAEPAXI@Z 0043ba03 f i nafxcw:afxshelltreectrl.obj
 0001:0003aa03       ??_E?$CList@PAU_ITEMIDLIST@@PAU1@@@UAEPAXI@Z 0043ba03 f i nafxcw:afxshelltreectrl.obj
 0001:0003aa28       ??_GCMFCShellTreeCtrl@@UAEPAXI@Z 0043ba28 f i nafxcw:afxshelltreectrl.obj
 0001:0003aa28       ??_ECMFCShellTreeCtrl@@UAEPAXI@Z 0043ba28 f i nafxcw:afxshelltreectrl.obj
 0001:0003aa4d       ??_ECTreeCtrl@@UAEPAXI@Z   0043ba4d f i nafxcw:afxshelltreectrl.obj
 0001:0003aa4d       ??_GCTreeCtrl@@UAEPAXI@Z   0043ba4d f i nafxcw:afxshelltreectrl.obj
 0001:0003aa6c       ?AddHead@?$CList@PAVCMFCPropertyGridProperty@@PAV1@@@QAEPAU__POSITION@@PAVCMFCPropertyGridProperty@@@Z 0043ba6c f i nafxcw:afxpropertygridctrl.obj
 0001:0003aa6c       ?AddHead@?$CList@PAU_ITEMIDLIST@@PAU1@@@QAEPAU__POSITION@@PAU_ITEMIDLIST@@@Z 0043ba6c f i nafxcw:afxshelltreectrl.obj
 0001:0003aa6c       ?AddHead@?$CList@PAVIControlSiteFactory@@PAV1@@@QAEPAU__POSITION@@PAVIControlSiteFactory@@@Z 0043ba6c f i nafxcw:occmgr.obj
 0001:0003aa6c       ?AddHead@?$CList@KK@@QAEPAU__POSITION@@K@Z 0043ba6c f i nafxcw:afxtoolbarcomboboxbutton.obj
 0001:0003aa99       ?CompareProc@CMFCShellTreeCtrl@@KGHJJJ@Z 0043ba99 f   nafxcw:afxshelltreectrl.obj
 0001:0003aac1       ?DeleteAllItems@CTreeCtrl@@QAEHXZ 0043bac1 f i nafxcw:afxshelltreectrl.obj
 0001:0003aad7       ?EnumObjects@CMFCShellTreeCtrl@@MAEJPAU_TREEITEM@@PAUIShellFolder@@PAU_ITEMIDLIST@@@Z 0043bad7 f   nafxcw:afxshelltreectrl.obj
 0001:0003ac96       ?GetChildItems@CMFCShellTreeCtrl@@IAEHPAU_TREEITEM@@@Z 0043bc96 f   nafxcw:afxshelltreectrl.obj
 0001:0003adc1       ?GetMessageMap@CMFCShellTreeCtrl@@MBEPBUAFX_MSGMAP@@XZ 0043bdc1 f   nafxcw:afxshelltreectrl.obj
 0001:0003adc7       ?GetRelatedList@CMFCShellTreeCtrl@@QBEPAVCMFCShellListCtrl@@XZ 0043bdc7 f   nafxcw:afxshelltreectrl.obj
 0001:0003adf8       ?GetRootItems@CMFCShellTreeCtrl@@IAEHXZ 0043bdf8 f   nafxcw:afxshelltreectrl.obj
 0001:0003af21       ?GetRuntimeClass@CMFCShellTreeCtrl@@UBEPAUCRuntimeClass@@XZ 0043bf21 f   nafxcw:afxshelltreectrl.obj
 0001:0003af27       ?InitTree@CMFCShellTreeCtrl@@IAEXXZ 0043bf27 f   nafxcw:afxshelltreectrl.obj
 0001:0003af99       ?OnChildNotify@CMFCShellTreeCtrl@@UAEHIIJPAJ@Z 0043bf99 f   nafxcw:afxshelltreectrl.obj
 0001:0003b035       ?OnContextMenu@CMFCShellTreeCtrl@@IAEXPAVCWnd@@VCPoint@@@Z 0043c035 f   nafxcw:afxshelltreectrl.obj
 0001:0003b054       ?OnCreate@CMFCShellTreeCtrl@@IAEHPAUtagCREATESTRUCTA@@@Z 0043c054 f   nafxcw:afxshelltreectrl.obj
 0001:0003b07c       ?OnDeleteitem@CMFCShellTreeCtrl@@IAEXPAUtagNMHDR@@PAJ@Z 0043c07c f   nafxcw:afxshelltreectrl.obj
 0001:0003b0ca       ?OnDestroy@CMFCShellTreeCtrl@@IAEXXZ 0043c0ca f   nafxcw:afxshelltreectrl.obj
 0001:0003b0e5       ?OnGetItemIcon@CMFCShellTreeCtrl@@UAEHPAU_AFX_SHELLITEMINFO@@H@Z 0043c0e5 f   nafxcw:afxshelltreectrl.obj
 0001:0003b14d       ?OnGetItemText@CMFCShellTreeCtrl@@UAE?AV?$CStringT@DV?$StrTraitMFC@DV?$ChTraitsCRT@D@ATL@@@@@ATL@@PAU_AFX_SHELLITEMINFO@@@Z 0043c14d f   nafxcw:afxshelltreectrl.obj
 0001:0003b1c0       ?OnInitControl@CMFCShellTreeCtrl@@IAEJIJ@Z 0043c1c0 f   nafxcw:afxshelltreectrl.obj
 0001:0003b279       ?OnItemexpanding@CMFCShellTreeCtrl@@IAEXPAUtagNMHDR@@PAJ@Z 0043c279 f   nafxcw:afxshelltreectrl.obj
 0001:0003b349       ?OnRButtonDown@CMFCShellTreeCtrl@@IAEXIVCPoint@@@Z 0043c349 f   nafxcw:afxshelltreectrl.obj
 0001:0003b382       ?OnShowContextMenu@CMFCShellTreeCtrl@@IAEXVCPoint@@@Z 0043c382 f   nafxcw:afxshelltreectrl.obj
 0001:0003b63e       ?PreSubclassWindow@CMFCShellTreeCtrl@@MAEXXZ 0043c63e f   nafxcw:afxshelltreectrl.obj
 0001:0003b65b       ?Refresh@CMFCShellTreeCtrl@@QAEXXZ 0043c65b f   nafxcw:afxshelltreectrl.obj
 0001:0003b687       ?SelectPath@CMFCShellTreeCtrl@@QAEHPBU_ITEMIDLIST@@H@Z 0043c687 f   nafxcw:afxshelltreectrl.obj
 0001:0003b923       ?SetImageList@CTreeCtrl@@QAEPAVCImageList@@PAV2@H@Z 0043c923 f i nafxcw:afxshelltreectrl.obj
 0001:0003b94c       ?WindowProc@CMFCShellTreeCtrl@@MAEJIIJ@Z 0043c94c f   nafxcw:afxshelltreectrl.obj
 0001:0003b993       ??0?$CList@PAVCMFCButton@@PAV1@@@QAE@H@Z 0043c993 f i nafxcw:afxvslistbox.obj
 0001:0003b9b9       ??0?$CMap@HHII@@QAE@H@Z    0043c9b9 f i nafxcw:afxvslistbox.obj
 0001:0003b9e3       ??0CVSListBox@@QAE@XZ      0043c9e3 f   nafxcw:afxvslistbox.obj
 0001:0003ba37       ??0CVSListBoxBase@@IAE@XZ  0043ca37 f   nafxcw:afxvslistbox.obj
 0001:0003bae9       ??0CVSListBoxEditCtrl@@QAE@XZ 0043cae9 f   nafxcw:afxvslistbox.obj
 0001:0003bb09       ??1?$CList@PAVCMFCButton@@PAV1@@@UAE@XZ 0043cb09 f i nafxcw:afxvslistbox.obj
 0001:0003bb14       ??1?$CMap@HHII@@UAE@XZ     0043cb14 f i nafxcw:afxvslistbox.obj
 0001:0003bb1f       ??1CVSListBox@@UAE@XZ      0043cb1f f   nafxcw:afxvslistbox.obj
 0001:0003bb72       ??1CVSListBoxBase@@UAE@XZ  0043cb72 f   nafxcw:afxvslistbox.obj
 0001:0003bc20       ??1CVSListBoxEditCtrl@@UAE@XZ 0043cc20 f   nafxcw:afxvslistbox.obj
 0001:0003bc2b       ??_E?$CList@PAVCMFCButton@@PAV1@@@UAEPAXI@Z 0043cc2b f i nafxcw:afxvslistbox.obj
 0001:0003bc2b       ??_G?$CList@PAVCMFCButton@@PAV1@@@UAEPAXI@Z 0043cc2b f i nafxcw:afxvslistbox.obj
 0001:0003bc50       ??_G?$CMap@HHII@@UAEPAXI@Z 0043cc50 f i nafxcw:afxvslistbox.obj
 0001:0003bc50       ??_E?$CMap@HHII@@UAEPAXI@Z 0043cc50 f i nafxcw:afxvslistbox.obj
 0001:0003bc75       ??_ECListCtrl@@UAEPAXI@Z   0043cc75 f i nafxcw:afxvslistbox.obj
 0001:0003bc75       ??_GCListCtrl@@UAEPAXI@Z   0043cc75 f i nafxcw:afxvslistbox.obj
 0001:0003bc94       ??_ECVSListBoxBase@@UAEPAXI@Z 0043cc94 f i nafxcw:afxvslistbox.obj
 0001:0003bc94       ??_GCVSListBoxBase@@UAEPAXI@Z 0043cc94 f i nafxcw:afxvslistbox.obj
 0001:0003bcb3       ??_GCVSListBoxEditCtrl@@UAEPAXI@Z 0043ccb3 f i nafxcw:afxvslistbox.obj
 0001:0003bcb3       ??_ECVSListBoxEditCtrl@@UAEPAXI@Z 0043ccb3 f i nafxcw:afxvslistbox.obj
 0001:0003bcd8       ?AddButton@CVSListBoxBase@@QAEHIPBDGEI@Z 0043ccd8 f   nafxcw:afxvslistbox.obj
 0001:0003bef3       ?AddItem@CVSListBox@@UAEHABV?$CStringT@DV?$StrTraitMFC@DV?$ChTraitsCRT@D@ATL@@@@@ATL@@KH@Z 0043cef3 f   nafxcw:afxvslistbox.obj
 0001:0003bf75       ?AdjustLayout@CVSListBoxBase@@IAEXXZ 0043cf75 f   nafxcw:afxvslistbox.obj
 0001:0003c159       ?CreateNewItem@CVSListBoxBase@@MAEXXZ 0043d159 f   nafxcw:afxvslistbox.obj
 0001:0003c1b6       ?EditItem@CVSListBox@@UAEHH@Z 0043d1b6 f   nafxcw:afxvslistbox.obj
 0001:0003c2d9       ?EditLabel@CListCtrl@@QAEPAVCEdit@@H@Z 0043d2d9 f i nafxcw:afxvslistbox.obj
 0001:0003c2f9       ?GetButtonID@CVSListBoxBase@@QBEIH@Z 0043d2f9 f   nafxcw:afxvslistbox.obj
 0001:0003c31c       ?GetButtonNum@CVSListBoxBase@@QBEHI@Z 0043d31c f   nafxcw:afxvslistbox.obj
 0001:0003c371       ?GetCount@CVSListBox@@UBEHXZ 0043d371 f   nafxcw:afxvslistbox.obj
 0001:0003c39c       ?GetEditControl@CListCtrl@@QBEPAVCEdit@@XZ 0043d39c f i nafxcw:afxvslistbox.obj
 0001:0003c3b5       ?GetItemData@CVSListBox@@UBEKH@Z 0043d3b5 f   nafxcw:afxvslistbox.obj
 0001:0003c3d8       ?GetItemText@CVSListBox@@UBE?AV?$CStringT@DV?$StrTraitMFC@DV?$ChTraitsCRT@D@ATL@@@@@ATL@@H@Z 0043d3d8 f   nafxcw:afxvslistbox.obj
 0001:0003c419       ?GetListHwnd@CVSListBox@@MBEPAUHWND__@@XZ 0043d419 f i nafxcw:afxvslistbox.obj
 0001:0003c428       ?GetMessageMap@CVSListBox@@MBEPBUAFX_MSGMAP@@XZ 0043d428 f   nafxcw:afxvslistbox.obj
 0001:0003c42e       ?GetMessageMap@CVSListBoxBase@@MBEPBUAFX_MSGMAP@@XZ 0043d42e f   nafxcw:afxvslistbox.obj
 0001:0003c42e       ?GetThisMessageMap@CVSListBoxBase@@KGPBUAFX_MSGMAP@@XZ 0043d42e f   nafxcw:afxvslistbox.obj
 0001:0003c434       ?GetMessageMap@CVSListBoxEditCtrl@@MBEPBUAFX_MSGMAP@@XZ 0043d434 f   nafxcw:afxvslistbox.obj
 0001:0003c43a       ?GetNextAssoc@?$CMap@IIHH@@QBEXAAPAU__POSITION@@AAIAAH@Z 0043d43a f i nafxcw:afxtoolbar.obj
 0001:0003c43a       ?GetNextAssoc@?$CMap@IIPAUHWND__@@PAU1@@@QBEXAAPAU__POSITION@@AAIAAPAUHWND__@@@Z 0043d43a f i nafxcw:afxpaneframewnd.obj
 0001:0003c43a       ?GetNextAssoc@?$CMap@PAVCWnd@@PAV1@PAVCImageList@@PAV2@@@QBEXAAPAU__POSITION@@AAPAVCWnd@@AAPAVCImageList@@@Z 0043d43a f i nafxcw:afxmdiclientareawnd.obj
 0001:0003c43a       ?GetNextAssoc@?$CMap@HHII@@QBEXAAPAU__POSITION@@AAHAAI@Z 0043d43a f i nafxcw:afxvslistbox.obj
 0001:0003c43a       ?GetNextAssoc@?$CMap@IIPAUHMENU__@@PAU1@@@QBEXAAPAU__POSITION@@AAIAAPAUHMENU__@@@Z 0043d43a f i nafxcw:afxcontextmenumanager.obj
 0001:0003c4be       ?GetRuntimeClass@CVSListBox@@UBEPAUCRuntimeClass@@XZ 0043d4be f   nafxcw:afxvslistbox.obj
 0001:0003c4c4       ?GetRuntimeClass@CVSListBoxBase@@UBEPAUCRuntimeClass@@XZ 0043d4c4 f   nafxcw:afxvslistbox.obj
 0001:0003c4ca       ?GetRuntimeClass@CVSListBoxEditCtrl@@UBEPAUCRuntimeClass@@XZ 0043d4ca f   nafxcw:afxvslistbox.obj
 0001:0003c4d0       ?GetSelItem@CVSListBox@@UBEHXZ 0043d4d0 f   nafxcw:afxvslistbox.obj
 0001:0003c4fb       ?Init@CVSListBoxBase@@IAEXXZ 0043d4fb f   nafxcw:afxvslistbox.obj
 0001:0003c521       ?OnBrowse@CVSListBoxEditCtrl@@MAEXXZ 0043d521 f i nafxcw:afxvslistbox.obj
 0001:0003c54b       ?OnClickButton@CVSListBoxBase@@UAEXH@Z 0043d54b f   nafxcw:afxvslistbox.obj
 0001:0003c6c6       ?OnCommand@CVSListBoxBase@@MAEHIJ@Z 0043d6c6 f   nafxcw:afxvslistbox.obj
 0001:0003c72c       ?OnCreate@CVSListBoxBase@@IAEHPAUtagCREATESTRUCTA@@@Z 0043d72c f   nafxcw:afxvslistbox.obj
 0001:0003c74a       ?OnCreateList@CVSListBox@@MAEPAVCWnd@@XZ 0043d74a f   nafxcw:afxvslistbox.obj
 0001:0003c81c       ?OnDblclkList@CVSListBox@@IAEXPAUtagNMHDR@@PAJ@Z 0043d81c f   nafxcw:afxvslistbox.obj
 0001:0003c860       ?OnEnable@CVSListBoxBase@@IAEXH@Z 0043d860 f   nafxcw:afxvslistbox.obj
 0001:0003c8d5       ?OnEndEditLabel@CVSListBoxBase@@UAEXPBD@Z 0043d8d5 f   nafxcw:afxvslistbox.obj
 0001:0003c96b       ?OnEndLabelEdit@CVSListBox@@IAEXPAUtagNMHDR@@PAJ@Z 0043d96b f   nafxcw:afxvslistbox.obj
 0001:0003c9b6       ?OnGetDlgCode@CVSListBoxBase@@IAEIXZ 0043d9b6 f   nafxcw:afxvslistbox.obj
 0001:0003c9ba       ?OnGetFont@CVSListBoxBase@@IAEPAUHFONT__@@XZ 0043d9ba f   nafxcw:afxvslistbox.obj
 0001:0003c9c9       ?OnGetImage@CVSListBoxBase@@UAEHPAUtagLVITEMA@@@Z 0043d9c9 f i nafxcw:afxvslistbox.obj
 0001:0003c9cf       ?OnGetdispinfo@CVSListBox@@IAEXPAUtagNMHDR@@PAJ@Z 0043d9cf f   nafxcw:afxvslistbox.obj
 0001:0003ca01       ?OnInitControl@CVSListBox@@IAEJIJ@Z 0043da01 f   nafxcw:afxvslistbox.obj
 0001:0003cb53       ?OnItemChanged@CVSListBox@@IAEXPAUtagNMHDR@@PAJ@Z 0043db53 f   nafxcw:afxvslistbox.obj
 0001:0003cb85       ?OnKey@CVSListBoxBase@@UAEXGE@Z 0043db85 f   nafxcw:afxvslistbox.obj
 0001:0003cbcd       ?OnKeyDown@CVSListBox@@IAEXPAUtagNMHDR@@PAJ@Z 0043dbcd f   nafxcw:afxvslistbox.obj
 0001:0003cc80       ?OnKeyDown@CVSListBoxEditCtrl@@IAEXIII@Z 0043dc80 f   nafxcw:afxvslistbox.obj
 0001:0003ccd4       ?OnNcCalcSize@CVSListBoxEditCtrl@@IAEXHPAUtagNCCALCSIZE_PARAMS@@@Z 0043dcd4 f   nafxcw:afxvslistbox.obj
 0001:0003ccea       ?OnPaint@CVSListBoxBase@@IAEXXZ 0043dcea f   nafxcw:afxvslistbox.obj
 0001:0003ce4b       ?OnSetFocus@CVSListBoxBase@@IAEXPAVCWnd@@@Z 0043de4b f   nafxcw:afxvslistbox.obj
 0001:0003ce67       ?OnSetFont@CVSListBoxBase@@IAEXPAVCFont@@H@Z 0043de67 f   nafxcw:afxvslistbox.obj
 0001:0003cf00       ?OnSetText@CVSListBoxBase@@IAEHPBD@Z 0043df00 f   nafxcw:afxvslistbox.obj
 0001:0003cf50       ?OnSize@CVSListBoxBase@@IAEXIHH@Z 0043df50 f   nafxcw:afxvslistbox.obj
 0001:0003cf63       ?OnSizeList@CVSListBox@@MAEXXZ 0043df63 f   nafxcw:afxvslistbox.obj
 0001:0003cfea       ?OnWindowPosChanged@CWnd@@IAEXPAUtagWINDOWPOS@@@Z 0043dfea f i nafxcw:afxvslistbox.obj
 0001:0003cfea       ?OnNcActivate@CMDIChildWnd@@IAEHH@Z 0043dfea f i nafxcw:winmdi.obj
 0001:0003cfea       ?OnEraseBkgnd@CWnd@@IAEHPAVCDC@@@Z 0043dfea f i nafxcw:winfrm.obj
 0001:0003cff2       ?OnWindowPosChanging@CVSListBoxEditCtrl@@IAEXPAUtagWINDOWPOS@@@Z 0043dff2 f   nafxcw:afxvslistbox.obj
 0001:0003d00e       ?PreSubclassWindow@CVSListBoxBase@@MAEXXZ 0043e00e f   nafxcw:afxvslistbox.obj
 0001:0003d02b       ?PreTranslateMessage@CVSListBox@@UAEHPAUtagMSG@@@Z 0043e02b f   nafxcw:afxvslistbox.obj
 0001:0003d20f       ?RemoveItem@CVSListBox@@UAEHH@Z 0043e20f f   nafxcw:afxvslistbox.obj
 0001:0003d293       ?SelectItem@CVSListBox@@UAEHH@Z 0043e293 f   nafxcw:afxvslistbox.obj
 0001:0003d2df       ?SetItemData@CVSListBox@@UAEXHK@Z 0043e2df f   nafxcw:afxvslistbox.obj
 0001:0003d30e       ?SetItemText@CVSListBox@@MAEXHABV?$CStringT@DV?$StrTraitMFC@DV?$ChTraitsCRT@D@ATL@@@@@ATL@@@Z 0043e30e f   nafxcw:afxvslistbox.obj
 0001:0003d338       ?SetStandardButtons@CVSListBoxBase@@QAEHI@Z 0043e338 f   nafxcw:afxvslistbox.obj
 0001:0003d4e2       ??0?$CArray@W4LoadArrayObjType@CArchive@@ABW412@@@QAE@XZ 0043e4e2 f i nafxcw:arcobj.obj
 0001:0003d4f9       ??1?$CArray@W4LoadArrayObjType@CArchive@@ABW412@@@UAE@XZ 0043e4f9 f i nafxcw:arcobj.obj
 0001:0003d50f       ??_E?$CArray@W4LoadArrayObjType@CArchive@@ABW412@@@UAEPAXI@Z 0043e50f f i nafxcw:arcobj.obj
 0001:0003d50f       ??_G?$CArray@W4LoadArrayObjType@CArchive@@ABW412@@@UAEPAXI@Z 0043e50f f i nafxcw:arcobj.obj
 0001:0003d52e       ?CheckCount@CArchive@@QAEXXZ 0043e52e f   nafxcw:arcobj.obj
 0001:0003d543       ?EnsureSchemaMapExists@CArchive@@QAEXPAPAV?$CArray@W4LoadArrayObjType@CArchive@@ABW412@@@@Z 0043e543 f   nafxcw:arcobj.obj
 0001:0003d611       ?InsertAt@?$CArray@W4LoadArrayObjType@CArchive@@ABW412@@@QAEXHABW4LoadArrayObjType@CArchive@@H@Z 0043e611 f i nafxcw:arcobj.obj
 0001:0003d6b2       ?MapObject@CArchive@@QAEXPBVCObject@@@Z 0043e6b2 f   nafxcw:arcobj.obj
 0001:0003d7fb       ?ReadClass@CArchive@@QAEPAUCRuntimeClass@@PBU2@PAIPAK@Z 0043e7fb f   nafxcw:arcobj.obj
 0001:0003da0a       ?ReadObject@CArchive@@QAEPAVCObject@@PBUCRuntimeClass@@@Z 0043ea0a f   nafxcw:arcobj.obj
 0001:0003db64       ?WriteClass@CArchive@@QAEXPBUCRuntimeClass@@@Z 0043eb64 f   nafxcw:arcobj.obj
 0001:0003dc1d       ?WriteObject@CArchive@@QAEXPBVCObject@@@Z 0043ec1d f   nafxcw:arcobj.obj
 0001:0003dcbc       ??0CMFCListCtrl@@QAE@XZ    0043ecbc f   nafxcw:afxlistctrl.obj
 0001:0003dd12       ??1CMFCListCtrl@@UAE@XZ    0043ed12 f   nafxcw:afxlistctrl.obj
 0001:0003dd46       ??_ECMFCListCtrl@@UAEPAXI@Z 0043ed46 f i nafxcw:afxlistctrl.obj
 0001:0003dd46       ??_GCMFCListCtrl@@UAEPAXI@Z 0043ed46 f i nafxcw:afxlistctrl.obj
 0001:0003dd65       ?CompareProc@CMFCListCtrl@@KGHJJJ@Z 0043ed65 f   nafxcw:afxlistctrl.obj
 0001:0003dd92       ?GetRuntimeClass@CMFCListCtrl@@UBEPAUCRuntimeClass@@XZ 0043ed92 f   nafxcw:afxlistctrl.obj
 0001:0003dd98       ?GetThisMessageMap@CMFCListCtrl@@KGPBUAFX_MSGMAP@@XZ 0043ed98 f   nafxcw:afxlistctrl.obj
 0001:0003dd98       ?GetMessageMap@CMFCListCtrl@@MBEPBUAFX_MSGMAP@@XZ 0043ed98 f   nafxcw:afxlistctrl.obj
 0001:0003dd9e       ?InitColors@CMFCListCtrl@@IAEXXZ 0043ed9e f   nafxcw:afxlistctrl.obj
 0001:0003ddd5       ?InitHeader@CMFCListCtrl@@MAEXXZ 0043edd5 f   nafxcw:afxlistctrl.obj
 0001:0003dde8       ?InitList@CMFCListCtrl@@IAEHXZ 0043ede8 f   nafxcw:afxlistctrl.obj
 0001:0003ddff       ?IsMultipleSort@CMFCListCtrl@@QBEHXZ 0043edff f   nafxcw:afxlistctrl.obj
 0001:0003de0e       ?OnColumnClick@CMFCListCtrl@@IAEXPAUtagNMHDR@@PAJ@Z 0043ee0e f   nafxcw:afxlistctrl.obj
 0001:0003de8d       ?OnCreate@CMFCListCtrl@@IAEHPAUtagCREATESTRUCTA@@@Z 0043ee8d f   nafxcw:afxlistctrl.obj
 0001:0003deb0       ?OnCustomDraw@CMFCListCtrl@@IAEXPAUtagNMHDR@@PAJ@Z 0043eeb0 f   nafxcw:afxlistctrl.obj
 0001:0003dfba       ?OnEraseBkgnd@CMFCListCtrl@@IAEHPAVCDC@@@Z 0043efba f   nafxcw:afxlistctrl.obj
 0001:0003e0b7       ?OnSize@CMFCListCtrl@@IAEXIHH@Z 0043f0b7 f   nafxcw:afxlistctrl.obj
 0001:0003e0f3       ?OnStyleChanged@CMFCListCtrl@@IAEXHPAUtagSTYLESTRUCT@@@Z 0043f0f3 f   nafxcw:afxlistctrl.obj
 0001:0003e12f       ?OnSysColorChange@CMFCListCtrl@@IAEXXZ 0043f12f f   nafxcw:afxlistctrl.obj
 0001:0003e152       ?PreSubclassWindow@CMFCListCtrl@@MAEXXZ 0043f152 f   nafxcw:afxlistctrl.obj
 0001:0003e16f       ?Sort@CMFCListCtrl@@UAEXHHH@Z 0043f16f f   nafxcw:afxlistctrl.obj
 0001:0003e1de       ?CreateObject@CImageList@@SGPAVCObject@@XZ 0043f1de f   nafxcw:winctrl2.obj
 0001:0003e1f8       ??0CImageList@@QAE@XZ      0043f1f8 f   nafxcw:winctrl2.obj
 0001:0003e205       ??1CHeaderCtrl@@UAE@XZ     0043f205 f   nafxcw:winctrl2.obj
 0001:0003e236       ??1CImageList@@UAE@XZ      0043f236 f   nafxcw:winctrl2.obj
 0001:0003e307       ??1CListCtrl@@UAE@XZ       0043f307 f   nafxcw:winctrl2.obj
 0001:0003e338       ??1CRichEditCtrl@@UAE@XZ   0043f338 f   nafxcw:winctrl2.obj
 0001:0003e369       ??1CSpinButtonCtrl@@UAE@XZ 0043f369 f   nafxcw:winctrl2.obj
 0001:0003e39a       ??1CTreeCtrl@@UAE@XZ       0043f39a f   nafxcw:winctrl2.obj
 0001:0003e3cb       ??_ECHeaderCtrl@@UAEPAXI@Z 0043f3cb f i nafxcw:winctrl2.obj
 0001:0003e3cb       ??_GCHeaderCtrl@@UAEPAXI@Z 0043f3cb f i nafxcw:winctrl2.obj
 0001:0003e3ea       ??_GCImageList@@UAEPAXI@Z  0043f3ea f i nafxcw:winctrl2.obj
 0001:0003e3ea       ??_ECImageList@@UAEPAXI@Z  0043f3ea f i nafxcw:winctrl2.obj
 0001:0003e409       ??_GCRichEditCtrl@@UAEPAXI@Z 0043f409 f i nafxcw:winctrl2.obj
 0001:0003e409       ??_ECRichEditCtrl@@UAEPAXI@Z 0043f409 f i nafxcw:winctrl2.obj
 0001:0003e428       ??_GCSpinButtonCtrl@@UAEPAXI@Z 0043f428 f i nafxcw:winctrl2.obj
 0001:0003e428       ??_ECSpinButtonCtrl@@UAEPAXI@Z 0043f428 f i nafxcw:winctrl2.obj
 0001:0003e447       ?Attach@CImageList@@QAEHPAU_IMAGELIST@@@Z 0043f447 f   nafxcw:winctrl2.obj
 0001:0003e477       ?Construct@?$ConstructDestruct@VCImageList@@@@SGXPAVCObject@@@Z 0043f477 f i nafxcw:winctrl2.obj
 0001:0003e48f       ?Create@CHeaderCtrl@@UAEHKABUtagRECT@@PAVCWnd@@I@Z 0043f48f f   nafxcw:winctrl2.obj
 0001:0003e4c0       ?Create@CImageList@@QAEHHHIHH@Z 0043f4c0 f   nafxcw:winctrl2.obj
 0001:0003e4e7       ?Create@CImageList@@QAEHIHHK@Z 0043f4e7 f   nafxcw:winctrl2.obj
 0001:0003e518       ?Create@CSpinButtonCtrl@@UAEHKABUtagRECT@@PAVCWnd@@I@Z 0043f518 f   nafxcw:winctrl2.obj
 0001:0003e546       ?CreateEx@CSpinButtonCtrl@@UAEHKKABUtagRECT@@PAVCWnd@@I@Z 0043f546 f   nafxcw:winctrl2.obj
 0001:0003e546       ?CreateEx@CHeaderCtrl@@UAEHKKABUtagRECT@@PAVCWnd@@I@Z 0043f546 f   nafxcw:winctrl2.obj
 0001:0003e57d       ?DeleteImageList@CImageList@@QAEHXZ 0043f57d f   nafxcw:winctrl2.obj
 0001:0003e592       ?Detach@CImageList@@QAEPAU_IMAGELIST@@XZ 0043f592 f   nafxcw:winctrl2.obj
 0001:0003e5bc       ?FromHandle@CImageList@@SGPAV1@PAU_IMAGELIST@@@Z 0043f5bc f   nafxcw:winctrl2.obj
 0001:0003e5ce       ?FromHandlePermanent@CImageList@@SGPAV1@PAU_IMAGELIST@@@Z 0043f5ce f   nafxcw:winctrl2.obj
 0001:0003e5f2       ?GetItemData@CListCtrl@@QBEKH@Z 0043f5f2 f   nafxcw:winctrl2.obj
 0001:0003e636       ?GetItemData@CTreeCtrl@@QBEKPAU_TREEITEM@@@Z 0043f636 f   nafxcw:winctrl2.obj
 0001:0003e681       ?GetItemRect@CListCtrl@@QBEHHPAUtagRECT@@I@Z 0043f681 f   nafxcw:winctrl2.obj
 0001:0003e6a2       ?GetItemRect@CTreeCtrl@@QBEHPAU_TREEITEM@@PAUtagRECT@@H@Z 0043f6a2 f   nafxcw:winctrl2.obj
 0001:0003e6c3       ?GetItemText@CListCtrl@@QBE?AV?$CStringT@DV?$StrTraitMFC@DV?$ChTraitsCRT@D@ATL@@@@@ATL@@HH@Z 0043f6c3 f   nafxcw:winctrl2.obj
 0001:0003e74d       ?GetMessageMap@CTreeCtrl@@MBEPBUAFX_MSGMAP@@XZ 0043f74d f   nafxcw:winctrl2.obj
 0001:0003e74d       ?GetThisMessageMap@CTreeCtrl@@KGPBUAFX_MSGMAP@@XZ 0043f74d f   nafxcw:winctrl2.obj
 0001:0003e753       ?GetRuntimeClass@CHeaderCtrl@@UBEPAUCRuntimeClass@@XZ 0043f753 f   nafxcw:winctrl2.obj
 0001:0003e759       ?GetRuntimeClass@CImageList@@UBEPAUCRuntimeClass@@XZ 0043f759 f   nafxcw:winctrl2.obj
 0001:0003e75f       ?GetRuntimeClass@CListCtrl@@UBEPAUCRuntimeClass@@XZ 0043f75f f   nafxcw:winctrl2.obj
 0001:0003e765       ?GetRuntimeClass@CRichEditCtrl@@UBEPAUCRuntimeClass@@XZ 0043f765 f   nafxcw:winctrl2.obj
 0001:0003e76b       ?GetRuntimeClass@CSpinButtonCtrl@@UBEPAUCRuntimeClass@@XZ 0043f76b f   nafxcw:winctrl2.obj
 0001:0003e771       ?GetRuntimeClass@CTreeCtrl@@UBEPAUCRuntimeClass@@XZ 0043f771 f   nafxcw:winctrl2.obj
 0001:0003e777       ?GetMessageMap@CListCtrl@@MBEPBUAFX_MSGMAP@@XZ 0043f777 f   nafxcw:winctrl2.obj
 0001:0003e777       ?GetThisMessageMap@CListCtrl@@KGPBUAFX_MSGMAP@@XZ 0043f777 f   nafxcw:winctrl2.obj
 0001:0003e77d       ?HitTest@CListCtrl@@QBEHVCPoint@@PAI@Z 0043f77d f   nafxcw:winctrl2.obj
 0001:0003e7cb       ?HitTest@CTreeCtrl@@QBEPAU_TREEITEM@@VCPoint@@PAI@Z 0043f7cb f   nafxcw:winctrl2.obj
 0001:0003e803       ?InsertColumn@CListCtrl@@QAEHHPBDHHH@Z 0043f803 f   nafxcw:winctrl2.obj
 0001:0003e858       ?InsertItem@CListCtrl@@QAEHIHPBDIIHJ@Z 0043f858 f   nafxcw:winctrl2.obj
 0001:0003e8a6       ?OnChildNotify@CHeaderCtrl@@MAEHIIJPAJ@Z 0043f8a6 f   nafxcw:winctrl2.obj
 0001:0003e8c7       ?OnChildNotify@CListCtrl@@MAEHIIJPAJ@Z 0043f8c7 f   nafxcw:winctrl2.obj
 0001:0003e8e8       ?OnDestroy@CTreeCtrl@@QAEXXZ 0043f8e8 f   nafxcw:winctrl2.obj
 0001:0003e903       ?OnNcDestroy@CListCtrl@@IAEXXZ 0043f903 f   nafxcw:winctrl2.obj
 0001:0003e927       ?RemoveImageList@CListCtrl@@IAEXH@Z 0043f927 f   nafxcw:winctrl2.obj
 0001:0003e962       ?RemoveImageList@CTreeCtrl@@IAEXH@Z 0043f962 f   nafxcw:winctrl2.obj
 0001:0003e99d       ?SetItem@CListCtrl@@QAEHHHIPBDHIIJ@Z 0043f99d f   nafxcw:winctrl2.obj
 0001:0003e9c3       ?SetItem@CListCtrl@@QAEHHHIPBDHIIJH@Z 0043f9c3 f   nafxcw:winctrl2.obj
 0001:0003ea19       ?SetItemState@CListCtrl@@QAEHHII@Z 0043fa19 f   nafxcw:winctrl2.obj
 0001:0003ea46       ?SetItemText@CListCtrl@@QAEHHHPBD@Z 0043fa46 f   nafxcw:winctrl2.obj
 0001:0003ea73       ?afxMapHIMAGELIST@@YGPAVCHandleMap@@H@Z 0043fa73 f   nafxcw:winctrl2.obj
 0001:0003eae4       _IsolationAwareImageList_Create@20 0043fae4 f i nafxcw:winctrl2.obj
 0001:0003eb95       _IsolationAwareImageList_Destroy@4 0043fb95 f i nafxcw:winctrl2.obj
 0001:0003ec3a       _IsolationAwareImageList_LoadImageA@28 0043fc3a f i nafxcw:winctrl2.obj
 0001:0003ecf1       ?BrowseCallbackProc@CShellManager@@KGHPAUHWND__@@IJJ@Z 0043fcf1 f   nafxcw:afxshellmanager.obj
 0001:0003ed1c       ?BrowseForFolder@CShellManager@@QAEHAAV?$CStringT@DV?$StrTraitMFC@DV?$ChTraitsCRT@D@ATL@@@@@ATL@@PAVCWnd@@PBD2IPAH@Z 0043fd1c f   nafxcw:afxshellmanager.obj
 0001:0003ee30       ?ConcatenateItem@CShellManager@@QAEPAU_ITEMIDLIST@@PBU2@0@Z 0043fe30 f   nafxcw:afxshellmanager.obj
 0001:0003ee92       ?CopyItem@CShellManager@@QAEPAU_ITEMIDLIST@@PBU2@@Z 0043fe92 f   nafxcw:afxshellmanager.obj
 0001:0003eeda       ?CreateItem@CShellManager@@QAEPAU_ITEMIDLIST@@I@Z 0043feda f   nafxcw:afxshellmanager.obj
 0001:0003ef0f       ?FreeItem@CShellManager@@QAEXPAU_ITEMIDLIST@@@Z 0043ff0f f   nafxcw:afxshellmanager.obj
 0001:0003ef32       ?GetItemCount@CShellManager@@QAEIPBU_ITEMIDLIST@@@Z 0043ff32 f   nafxcw:afxshellmanager.obj
 0001:0003ef5e       ?GetItemSize@CShellManager@@QAEIPBU_ITEMIDLIST@@@Z 0043ff5e f   nafxcw:afxshellmanager.obj
 0001:0003ef92       ?GetNextItem@CShellManager@@QAEPAU_ITEMIDLIST@@PBU2@@Z 0043ff92 f   nafxcw:afxshellmanager.obj
 0001:0003efa9       ?GetParentItem@CShellManager@@QAEHPBU_ITEMIDLIST@@AAPAU2@@Z 0043ffa9 f   nafxcw:afxshellmanager.obj
 0001:0003f038       ?ItemFromPath@CShellManager@@QAEJPBDAAPAU_ITEMIDLIST@@@Z 00440038 f   nafxcw:afxshellmanager.obj
 0001:0003f0ce       ??0CMFCToolTipInfo@@QAE@XZ 004400ce f i nafxcw:afxtagmanager.obj
 0001:0003f103       ??0CTagManager@@QAE@PBD@Z  00440103 f   nafxcw:afxtagmanager.obj
 0001:0003f140       ??1CTagManager@@UAE@XZ     00440140 f   nafxcw:afxtagmanager.obj
 0001:0003f151       ??4CMFCToolTipInfo@@QAEAAV0@AAV0@@Z 00440151 f i nafxcw:afxtagmanager.obj
 0001:0003f1a9       ??_GCTagManager@@UAEPAXI@Z 004401a9 f i nafxcw:afxtagmanager.obj
 0001:0003f1a9       ??_ECTagManager@@UAEPAXI@Z 004401a9 f i nafxcw:afxtagmanager.obj
 0001:0003f1c8       ?Delete@?$CStringT@DV?$StrTraitMFC@DV?$ChTraitsCRT@D@ATL@@@@@ATL@@QAEHHH@Z 004401c8 f i nafxcw:afxtagmanager.obj
 0001:0003f241       ?ExcludeTag@CTagManager@@QAEHPBDAAV?$CStringT@DV?$StrTraitMFC@DV?$ChTraitsCRT@D@ATL@@@@@ATL@@H@Z 00440241 f   nafxcw:afxtagmanager.obj
 0001:0003f50b       ?LoadFromResource@CTagManager@@QAEHPBD0@Z 0044050b f   nafxcw:afxtagmanager.obj
 0001:0003f576       ?ParseColor@CTagManager@@SGHABV?$CStringT@DV?$StrTraitMFC@DV?$ChTraitsCRT@D@ATL@@@@@ATL@@AAK@Z 00440576 f   nafxcw:afxtagmanager.obj
 0001:0003f7e6       ?ParseControlRenderer@CTagManager@@SGHABV?$CStringT@DV?$StrTraitMFC@DV?$ChTraitsCRT@D@ATL@@@@@ATL@@AAVCMFCControlRenderer@@PBD@Z 004407e6 f   nafxcw:afxtagmanager.obj
 0001:0003f8ab       ?ParseControlRendererInfo@CTagManager@@SGHABV?$CStringT@DV?$StrTraitMFC@DV?$ChTraitsCRT@D@ATL@@@@@ATL@@AAVCMFCControlRendererInfo@@@Z 004408ab f   nafxcw:afxtagmanager.obj
 0001:0003facd       ?ParseFont@CTagManager@@SGHABV?$CStringT@DV?$StrTraitMFC@DV?$ChTraitsCRT@D@ATL@@@@@ATL@@AAUtagLOGFONTA@@@Z 00440acd f   nafxcw:afxtagmanager.obj
 0001:0003fdda       ?ParsePoint@CTagManager@@SGHABV?$CStringT@DV?$StrTraitMFC@DV?$ChTraitsCRT@D@ATL@@@@@ATL@@AAVCPoint@@@Z 00440dda f   nafxcw:afxtagmanager.obj
 0001:0003ff62       ?ParseRect@CTagManager@@SGHABV?$CStringT@DV?$StrTraitMFC@DV?$ChTraitsCRT@D@ATL@@@@@ATL@@AAVCRect@@@Z 00440f62 f   nafxcw:afxtagmanager.obj
 0001:0004033a       ?ParseSize@CTagManager@@SGHABV?$CStringT@DV?$StrTraitMFC@DV?$ChTraitsCRT@D@ATL@@@@@ATL@@AAVCSize@@@Z 0044133a f   nafxcw:afxtagmanager.obj
 0001:000404c2       ?ParseString@CTagManager@@SGHABV?$CStringT@DV?$StrTraitMFC@DV?$ChTraitsCRT@D@ATL@@@@@ATL@@0AAVCStringArray@@HH@Z 004414c2 f   nafxcw:afxtagmanager.obj
 0001:00040639       ?ParseToolBarImages@CTagManager@@SGHABV?$CStringT@DV?$StrTraitMFC@DV?$ChTraitsCRT@D@ATL@@@@@ATL@@AAVCMFCToolBarImages@@PBD@Z 00441639 f   nafxcw:afxtagmanager.obj
 0001:000407ad       ?ParseToolTipInfo@CTagManager@@SGHABV?$CStringT@DV?$StrTraitMFC@DV?$ChTraitsCRT@D@ATL@@@@@ATL@@AAVCMFCToolTipInfo@@@Z 004417ad f   nafxcw:afxtagmanager.obj
 0001:00040a2f       ?ReadBool@CTagManager@@QAEHABV?$CStringT@DV?$StrTraitMFC@DV?$ChTraitsCRT@D@ATL@@@@@ATL@@AAH@Z 00441a2f f   nafxcw:afxtagmanager.obj
 0001:00040a93       ?ReadBoolProp@@YGHAAVCTagManager@@PBDAAH@Z 00441a93 f   nafxcw:afxtagmanager.obj
 0001:00040afe       ?ReadColor@CTagManager@@QAEHABV?$CStringT@DV?$StrTraitMFC@DV?$ChTraitsCRT@D@ATL@@@@@ATL@@AAK@Z 00441afe f   nafxcw:afxtagmanager.obj
 0001:00040b57       ?ReadControlRenderer@CTagManager@@QAEHABV?$CStringT@DV?$StrTraitMFC@DV?$ChTraitsCRT@D@ATL@@@@@ATL@@AAVCMFCControlRenderer@@PBD@Z 00441b57 f   nafxcw:afxtagmanager.obj
 0001:00040bb3       ?ReadControlRendererInfo@CTagManager@@QAEHABV?$CStringT@DV?$StrTraitMFC@DV?$ChTraitsCRT@D@ATL@@@@@ATL@@AAVCMFCControlRendererInfo@@@Z 00441bb3 f   nafxcw:afxtagmanager.obj
 0001:00040c0c       ?ReadFont@CTagManager@@QAEHABV?$CStringT@DV?$StrTraitMFC@DV?$ChTraitsCRT@D@ATL@@@@@ATL@@AAUtagLOGFONTA@@@Z 00441c0c f   nafxcw:afxtagmanager.obj
 0001:00040c65       ?ReadInt@CTagManager@@QAEHABV?$CStringT@DV?$StrTraitMFC@DV?$ChTraitsCRT@D@ATL@@@@@ATL@@AAH@Z 00441c65 f   nafxcw:afxtagmanager.obj
 0001:00040cd2       ?ReadRect@CTagManager@@QAEHABV?$CStringT@DV?$StrTraitMFC@DV?$ChTraitsCRT@D@ATL@@@@@ATL@@AAVCRect@@@Z 00441cd2 f   nafxcw:afxtagmanager.obj
 0001:00040d2b       ?ReadSize@CTagManager@@QAEHABV?$CStringT@DV?$StrTraitMFC@DV?$ChTraitsCRT@D@ATL@@@@@ATL@@AAVCSize@@@Z 00441d2b f   nafxcw:afxtagmanager.obj
 0001:00040d84       ?ReadToolBarImages@CTagManager@@QAEHABV?$CStringT@DV?$StrTraitMFC@DV?$ChTraitsCRT@D@ATL@@@@@ATL@@AAVCMFCToolBarImages@@PBD@Z 00441d84 f   nafxcw:afxtagmanager.obj
 0001:00040de0       ?ReadToolTipInfo@CTagManager@@QAEHABV?$CStringT@DV?$StrTraitMFC@DV?$ChTraitsCRT@D@ATL@@@@@ATL@@AAVCMFCToolTipInfo@@@Z 00441de0 f   nafxcw:afxtagmanager.obj
 0001:00040e39       ?Replace@?$CStringT@DV?$StrTraitMFC@DV?$ChTraitsCRT@D@ATL@@@@@ATL@@QAEHPBD0@Z 00441e39 f i nafxcw:afxtagmanager.obj
 0001:00040fa5       ?SetBuffer@CTagManager@@QAEXPBD@Z 00441fa5 f   nafxcw:afxtagmanager.obj
 0001:00040fc1       __freea                    00441fc1 f i nafxcw:afxtagmanager.obj
 0001:00040fdf       ?GetMessageMap@CCommonDialog@@MBEPBUAFX_MSGMAP@@XZ 00441fdf f   nafxcw:dlgcomm.obj
 0001:00040fdf       ?GetThisMessageMap@CCommonDialog@@KGPBUAFX_MSGMAP@@XZ 00441fdf f   nafxcw:dlgcomm.obj
 0001:00040fe5       ?GetRuntimeClass@CCommonDialog@@UBEPAUCRuntimeClass@@XZ 00441fe5 f   nafxcw:dlgcomm.obj
 0001:00040feb       ?OnHelpInfo@CCommonDialog@@IAEHPAUtagHELPINFO@@@Z 00441feb f   nafxcw:dlgcomm.obj
 0001:00040ff9       ?OnOK@CCommonDialog@@MAEXXZ 00441ff9 f   nafxcw:dlgcomm.obj
 0001:00041011       ?OnCancelMode@CWnd@@IAEXXZ 00442011 f   nafxcw:afxbutton.obj
 0001:00041011       ?OnCancelMode@CMFCColorPickerCtrl@@IAEXXZ 00442011 f   nafxcw:afxcolorpickerctrl.obj
 0001:00041011       ?OnCancel@CCommonDialog@@MAEXXZ 00442011 f   nafxcw:dlgcomm.obj
 0001:00041011       ?OnPaint@CCommonDialog@@IAEXXZ 00442011 f   nafxcw:dlgcomm.obj
 0001:00041016       ?_AfxCommDlgProc@@YGIPAUHWND__@@IIJ@Z 00442016 f   nafxcw:dlgcomm.obj
 0001:000411bb       ?GetButtonInfo@CToolBar@@QBEXHAAI0AAH@Z 004421bb f   nafxcw:bartool.obj
 0001:0004120f       ?_GetButton@CToolBar@@IBEXHPAU_TBBUTTON@@@Z 0044220f f   nafxcw:bartool.obj
 0001:00041230       ?CreateObject@CMiniDockFrameWnd@@SGPAVCObject@@XZ 00442230 f   nafxcw:bardock.obj
 0001:00041260       ??0CDockBar@@QAE@H@Z       00442260 f   nafxcw:bardock.obj
 0001:000412ee       ??0CMiniDockFrameWnd@@QAE@XZ 004422ee f   nafxcw:bardock.obj
 0001:0004132a       ??1CDockBar@@UAE@XZ        0044232a f   nafxcw:bardock.obj
 0001:00041396       ??1CMiniDockFrameWnd@@UAE@XZ 00442396 f i nafxcw:bardock.obj
 0001:000413c7       ??_ECDockBar@@UAEPAXI@Z    004423c7 f i nafxcw:bardock.obj
 0001:000413c7       ??_GCDockBar@@UAEPAXI@Z    004423c7 f i nafxcw:bardock.obj
 0001:000413e6       ??_ECMiniDockFrameWnd@@UAEPAXI@Z 004423e6 f i nafxcw:bardock.obj
 0001:000413e6       ??_GCMiniDockFrameWnd@@UAEPAXI@Z 004423e6 f i nafxcw:bardock.obj
 0001:00041405       ?CalcFixedLayout@CDockBar@@UAE?AVCSize@@HH@Z 00442405 f   nafxcw:bardock.obj
 0001:00041922       ?Create@CDockBar@@UAEHPAVCWnd@@KI@Z 00442922 f   nafxcw:bardock.obj
 0001:0004199d       ?Create@CMiniDockFrameWnd@@UAEHPAVCWnd@@K@Z 0044299d f   nafxcw:bardock.obj
 0001:00041b10       ?GetDockedControlBar@CDockBar@@IBEPAVCControlBar@@H@Z 00442b10 f   nafxcw:bardock.obj
 0001:00041b32       ?GetDockedVisibleCount@CDockBar@@UBEHXZ 00442b32 f   nafxcw:bardock.obj
 0001:00041b6d       ?GetMessageMap@CDockBar@@MBEPBUAFX_MSGMAP@@XZ 00442b6d f   nafxcw:bardock.obj
 0001:00041b73       ?GetMessageMap@CMiniDockFrameWnd@@MBEPBUAFX_MSGMAP@@XZ 00442b73 f   nafxcw:bardock.obj
 0001:00041b79       ?GetRuntimeClass@CDockBar@@UBEPAUCRuntimeClass@@XZ 00442b79 f   nafxcw:bardock.obj
 0001:00041b7f       ?GetRuntimeClass@CMiniDockFrameWnd@@UBEPAUCRuntimeClass@@XZ 00442b7f f   nafxcw:bardock.obj
 0001:00041b85       ?OnClose@CMiniDockFrameWnd@@QAEXXZ 00442b85 f   nafxcw:bardock.obj
 0001:00041b93       ?OnEraseBkgnd@CDockBar@@IAEHPAVCDC@@@Z 00442b93 f   nafxcw:bardock.obj
 0001:00041c83       ?OnMouseActivate@CMiniDockFrameWnd@@QAEHPAVCWnd@@II@Z 00442c83 f   nafxcw:bardock.obj
 0001:00041c9f       ?OnNcCalcSize@CDockBar@@IAEXHPAUtagNCCALCSIZE_PARAMS@@@Z 00442c9f f   nafxcw:bardock.obj
 0001:00041d11       ?OnNcLButtonDblClk@CMiniDockFrameWnd@@QAEXIVCPoint@@@Z 00442d11 f   nafxcw:bardock.obj
 0001:00041d72       ?OnNcLButtonDown@CMiniDockFrameWnd@@QAEXIVCPoint@@@Z 00442d72 f   nafxcw:bardock.obj
 0001:00041e27       ?OnNcPaint@CDockBar@@IAEXXZ 00442e27 f   nafxcw:bardock.obj
 0001:00041e2c       ?OnPaint@CDockBar@@IAEXXZ  00442e2c f   nafxcw:bardock.obj
 0001:00041e83       ?OnSizeParent@CDockBar@@IAEJIJ@Z 00442e83 f   nafxcw:bardock.obj
 0001:00041eec       ?OnWindowPosChanging@CDockBar@@IAEXPAUtagWINDOWPOS@@@Z 00442eec f   nafxcw:bardock.obj
 0001:00041f1a       ?RecalcLayout@CMiniDockFrameWnd@@UAEXH@Z 00442f1a f   nafxcw:bardock.obj
 0001:00041f78       ?SetParent@CWnd@@QAEPAV1@PAV1@@Z 00442f78 f i nafxcw:bardock.obj
 0001:00041f99       ?ShowAll@CDockBar@@QAEXH@Z 00442f99 f   nafxcw:bardock.obj
 0001:00041fdd       ?Cache@CTypeLibCache@@QAEXKPAUITypeLib@@@Z 00442fdd f   nafxcw:oletyplb.obj
 0001:00042026       ?CacheTypeInfo@CTypeLibCache@@QAEXKABU_GUID@@PAUITypeInfo@@@Z 00443026 f   nafxcw:oletyplb.obj
 0001:0004205d       ?GetTypeInfoOfGuid@CCmdTarget@@QAEJKABU_GUID@@PAPAUITypeInfo@@@Z 0044305d f   nafxcw:oletyplb.obj
 0001:000421d2       ?Lookup@CTypeLibCache@@QAEHKPAPAUITypeLib@@@Z 004431d2 f   nafxcw:oletyplb.obj
 0001:00042206       ?LookupTypeInfo@CTypeLibCache@@QAEHKABU_GUID@@PAPAUITypeInfo@@@Z 00443206 f   nafxcw:oletyplb.obj
 0001:00042254       __AfxDispatchCall@12       00443254 f   nafxcw:olecall.obj
 0001:00042265       ?AfxOleUnlockAllControls@@YGXXZ 00443265 f   nafxcw:occlock.obj
 0001:0004229d       ?Revoke@COleObjectFactory@@QAEXXZ 0044329d f   nafxcw:olefact.obj
 0001:000422bf       ?RevokeAll@COleObjectFactory@@SGXXZ 004432bf f   nafxcw:olefact.obj
 0001:000422e9       ??0CEnumFormatEtc@@QAE@XZ  004432e9 f   nafxcw:oledobj2.obj
 0001:00042307       ??0COleDataSource@@QAE@XZ  00443307 f   nafxcw:oledobj2.obj
 0001:00042332       ??1CEnumFormatEtc@@UAE@XZ  00443332 f   nafxcw:oledobj2.obj
 0001:0004236a       ??1COleDataSource@@UAE@XZ  0044336a f   nafxcw:oledobj2.obj
 0001:000423c5       ??_GCEnumFormatEtc@@UAEPAXI@Z 004433c5 f i nafxcw:oledobj2.obj
 0001:000423c5       ??_ECEnumFormatEtc@@UAEPAXI@Z 004433c5 f i nafxcw:oledobj2.obj
 0001:000423e4       ??_GCOleDataSource@@UAEPAXI@Z 004433e4 f i nafxcw:oledobj2.obj
 0001:000423e4       ??_ECOleDataSource@@UAEPAXI@Z 004433e4 f i nafxcw:oledobj2.obj
 0001:00042403       ?AddFormat@CEnumFormatEtc@@QAEXPBUtagFORMATETC@@@Z 00443403 f   nafxcw:oledobj2.obj
 0001:00042485       ?AddRef@XDataObject@COleDataSource@@UAGKXZ 00443485 f   nafxcw:oledobj2.obj
 0001:00042497       ?CacheGlobalData@COleDataSource@@QAEXGPAXPAUtagFORMATETC@@@Z 00443497 f   nafxcw:oledobj2.obj
 0001:000424d4       ?CreateObject@?$CProcessLocal@V_AFX_OLE_STATE@@@@SGPAVCNoTrackObject@@XZ 004434d4 f i nafxcw:oledobj2.obj
 0001:00042500       ?DAdvise@XDataObject@COleDataSource@@UAGJPAUtagFORMATETC@@KPAUIAdviseSink@@PAK@Z 00443500 f   nafxcw:oledobj2.obj
 0001:00042512       ?DUnadvise@XDataObject@COleDataSource@@UAGJK@Z 00443512 f   nafxcw:oledobj2.obj
 0001:0004251a       ?Empty@COleDataSource@@QAEXXZ 0044351a f   nafxcw:oledobj2.obj
 0001:0004256a       ?EnumDAdvise@XDataObject@COleDataSource@@UAGJPAPAUIEnumSTATDATA@@@Z 0044356a f   nafxcw:oledobj2.obj
 0001:0004257c       ?EnumFormatEtc@XDataObject@COleDataSource@@UAGJKPAPAUIEnumFORMATETC@@@Z 0044357c f   nafxcw:oledobj2.obj
 0001:00042625       ?FlushClipboard@COleDataSource@@SGXXZ 00443625 f   nafxcw:oledobj2.obj
 0001:00042635       ?GetCacheEntry@COleDataSource@@IAEPAUAFX_DATACACHE_ENTRY@@PAUtagFORMATETC@@W4tagDATADIR@@@Z 00443635 f   nafxcw:oledobj2.obj
 0001:000426e6       ?GetCanonicalFormatEtc@XDataObject@COleDataSource@@UAGJPAUtagFORMATETC@@0@Z 004436e6 f   nafxcw:oledobj2.obj
 0001:000426ee       ?GetClipboardOwner@COleDataSource@@SGPAV1@XZ 004436ee f   nafxcw:oledobj2.obj
 0001:00042735       ?GetData@XDataObject@COleDataSource@@UAGJPAUtagFORMATETC@@PAUtagSTGMEDIUM@@@Z 00443735 f   nafxcw:oledobj2.obj
 0001:0004282b       ?GetDataHere@XDataObject@COleDataSource@@UAGJPAUtagFORMATETC@@PAUtagSTGMEDIUM@@@Z 0044382b f   nafxcw:oledobj2.obj
 0001:00042911       ?GetInterfaceMap@CEnumFormatEtc@@MBEPBUAFX_INTERFACEMAP@@XZ 00443911 f   nafxcw:oledobj2.obj
 0001:00042917       ?GetInterfaceMap@COleDataSource@@MBEPBUAFX_INTERFACEMAP@@XZ 00443917 f   nafxcw:oledobj2.obj
 0001:0004291d       ?Lookup@COleDataSource@@IBEPAUAFX_DATACACHE_ENTRY@@PAUtagFORMATETC@@W4tagDATADIR@@@Z 0044391d f   nafxcw:oledobj2.obj
 0001:000429fd       ?OnNext@CEnumFormatEtc@@MAEHPAX@Z 004439fd f   nafxcw:oledobj2.obj
 0001:00042a31       ?OnRenderData@COleDataSource@@UAEHPAUtagFORMATETC@@PAUtagSTGMEDIUM@@@Z 00443a31 f   nafxcw:oledobj2.obj
 0001:00042b67       ?OnCompareItems@CMFCListCtrl@@UAEHJJH@Z 00443b67 f   nafxcw:afxlistctrl.obj
 0001:00042b67       ?OnGestureZoom@CWnd@@MAEHVCPoint@@J@Z 00443b67 f   nafxcw:wincore.obj
 0001:00042b67       ?OnDrawMenuImage@COleDocIPFrameWndEx@@UAEHPAVCDC@@PBVCMFCToolBarMenuButton@@ABVCRect@@@Z 00443b67 f   nafxcw:afxoledocipframewndex.obj
 0001:00042b67       ?DockPane@CBasePane@@UAEHPAV1@PBUtagRECT@@W4AFX_DOCK_METHOD@@@Z 00443b67 f   nafxcw:afxdocksite.obj
 0001:00042b67       ?OnGesturePressAndTap@CWnd@@MAEHVCPoint@@J@Z 00443b67 f   nafxcw:wincore.obj
 0001:00042b67       ?OnDrawMenuImage@COleIPFrameWndEx@@UAEHPAVCDC@@PBVCMFCToolBarMenuButton@@ABVCRect@@@Z 00443b67 f   nafxcw:afxoleipframewndex.obj
 0001:00042b67       ?OnSetData@COleDataSource@@UAEHPAUtagFORMATETC@@PAUtagSTGMEDIUM@@H@Z 00443b67 f   nafxcw:oledobj2.obj
 0001:00042b67       ?OnGetCellFont@CMFCListCtrl@@UAEPAUHFONT__@@HHK@Z 00443b67 f   nafxcw:afxshelllistctrl.obj
 0001:00042b6c       ?QueryGetData@XDataObject@COleDataSource@@UAGJPAUtagFORMATETC@@@Z 00443b6c f   nafxcw:oledobj2.obj
 0001:00042b9e       ?QueryInterface@XDataObject@COleDataSource@@UAGJABU_GUID@@PAPAX@Z 00443b9e f   nafxcw:oledobj2.obj
 0001:00042bb6       ?Release@XDataObject@COleDataSource@@UAGKXZ 00443bb6 f   nafxcw:oledobj2.obj
 0001:00042bc8       ?SetData@XDataObject@COleDataSource@@UAGJPAUtagFORMATETC@@PAUtagSTGMEDIUM@@H@Z 00443bc8 f   nafxcw:oledobj2.obj
 0001:00042c89       ??0COleMessageFilter@@QAE@XZ 00443c89 f   nafxcw:olemsgf.obj
 0001:00042ccb       ??1COleMessageFilter@@UAE@XZ 00443ccb f   nafxcw:olemsgf.obj
 0001:00042ce1       ??_ECOleMessageFilter@@UAEPAXI@Z 00443ce1 f i nafxcw:olemsgf.obj
 0001:00042ce1       ??_GCOleMessageFilter@@UAEPAXI@Z 00443ce1 f i nafxcw:olemsgf.obj
 0001:00042d00       ?AddRef@XMessageFilter@COleMessageFilter@@UAGKXZ 00443d00 f   nafxcw:olemsgf.obj
 0001:00042d12       ?BeginBusyState@COleMessageFilter@@UAEXXZ 00443d12 f   nafxcw:olemsgf.obj
 0001:00042d16       ?EndBusyState@COleMessageFilter@@UAEXXZ 00443d16 f   nafxcw:olemsgf.obj
 0001:00042d22       ?GetInterfaceMap@COleMessageFilter@@MBEPBUAFX_INTERFACEMAP@@XZ 00443d22 f   nafxcw:olemsgf.obj
 0001:00042d28       ?HandleInComingCall@XMessageFilter@COleMessageFilter@@UAGKKPAUHTASK__@@KPAUtagINTERFACEINFO@@@Z 00443d28 f   nafxcw:olemsgf.obj
 0001:00042d88       ?IsSignificantMessage@COleMessageFilter@@UAEHPAUtagMSG@@@Z 00443d88 f   nafxcw:olemsgf.obj
 0001:00042de0       ?MessagePending@XMessageFilter@COleMessageFilter@@UAGKPAUHTASK__@@KK@Z 00443de0 f   nafxcw:olemsgf.obj
 0001:00042ea7       ?OnBusyDialog@COleMessageFilter@@UAEHPAUHTASK__@@@Z 00443ea7 f   nafxcw:olemsgf.obj
 0001:00042f15       ?OnMessagePending@COleMessageFilter@@UAEHPBUtagMSG@@@Z 00443f15 f   nafxcw:olemsgf.obj
 0001:00042f5d       ?OnNotRespondingDialog@COleMessageFilter@@UAEHPAUHTASK__@@@Z 00443f5d f   nafxcw:olemsgf.obj
 0001:00042fcc       ?QueryInterface@XMessageFilter@COleMessageFilter@@UAGJABU_GUID@@PAPAX@Z 00443fcc f   nafxcw:olemsgf.obj
 0001:00042fe4       ?Register@COleMessageFilter@@QAEHXZ 00443fe4 f   nafxcw:olemsgf.obj
 0001:00043001       ?Release@XMessageFilter@COleMessageFilter@@UAGKXZ 00444001 f   nafxcw:olemsgf.obj
 0001:00043013       ?RetryRejectedCall@XMessageFilter@COleMessageFilter@@UAGKPAUHTASK__@@KK@Z 00444013 f   nafxcw:olemsgf.obj
 0001:00043073       ?Revoke@COleMessageFilter@@QAEXXZ 00444073 f   nafxcw:olemsgf.obj
 0001:0004308c       ??0CToolTipCtrl@@QAE@XZ    0044408c f   nafxcw:tooltip.obj
 0001:000430be       ??1CToolTipCtrl@@UAE@XZ    004440be f   nafxcw:tooltip.obj
 0001:000430fe       ??_GCToolTipCtrl@@UAEPAXI@Z 004440fe f i nafxcw:tooltip.obj
 0001:000430fe       ??_ECToolTipCtrl@@UAEPAXI@Z 004440fe f i nafxcw:tooltip.obj
 0001:0004311d       ?AddTool@CToolTipCtrl@@QAEHPAVCWnd@@IPBUtagRECT@@I@Z 0044411d f   nafxcw:tooltip.obj
 0001:00043199       ?AddTool@CToolTipCtrl@@QAEHPAVCWnd@@PBDPBUtagRECT@@I@Z 00444199 f   nafxcw:tooltip.obj
 0001:00043209       ?Create@CToolTipCtrl@@UAEHPAVCWnd@@K@Z 00444209 f   nafxcw:tooltip.obj
 0001:0004325e       ?CreateEx@CToolTipCtrl@@UAEHPAVCWnd@@KK@Z 0044425e f   nafxcw:tooltip.obj
 0001:00043292       ?DelTool@CToolTipCtrl@@QAEXPAVCWnd@@I@Z 00444292 f   nafxcw:tooltip.obj
 0001:000432da       ?DestroyToolTipCtrl@CToolTipCtrl@@UAEHXZ 004442da f   nafxcw:tooltip.obj
 0001:000432f0       ?EnableToolTips@CWnd@@QAEHH@Z 004442f0 f   nafxcw:tooltip.obj
 0001:00043301       ?FillInToolInfo@CToolTipCtrl@@QBEXAAUtagTOOLINFOA@@PAVCWnd@@I@Z 00444301 f   nafxcw:tooltip.obj
 0001:00043351       ?FilterToolTipMessage@CWnd@@QAEXPAUtagMSG@@@Z 00444351 f   nafxcw:tooltip.obj
 0001:00043790       ?GetMessageMap@CToolTipCtrl@@MBEPBUAFX_MSGMAP@@XZ 00444790 f   nafxcw:tooltip.obj
 0001:00043790       ?GetThisMessageMap@CToolTipCtrl@@KGPBUAFX_MSGMAP@@XZ 00444790 f   nafxcw:tooltip.obj
 0001:00043796       ?GetRuntimeClass@CToolTipCtrl@@UBEPAUCRuntimeClass@@XZ 00444796 f   nafxcw:tooltip.obj
 0001:0004379c       ?GetText@CToolTipCtrl@@QBEXAAV?$CStringT@DV?$StrTraitMFC@DV?$ChTraitsCRT@D@ATL@@@@@ATL@@PAVCWnd@@I@Z 0044479c f   nafxcw:tooltip.obj
 0001:0004385e       ?GetToolInfo@CToolTipCtrl@@QBEHAAVCToolInfo@@PAVCWnd@@I@Z 0044485e f   nafxcw:tooltip.obj
 0001:00043891       ?OnAddTool@CToolTipCtrl@@IAEJIJ@Z 00444891 f   nafxcw:tooltip.obj
 0001:0004392b       ?OnDisableModal@CToolTipCtrl@@IAEJIJ@Z 0044492b f   nafxcw:tooltip.obj
 0001:00043942       ?OnEnable@CToolTipCtrl@@IAEXH@Z 00444942 f   nafxcw:tooltip.obj
 0001:0004395c       ?OnWindowFromPoint@CToolTipCtrl@@IAEJIJ@Z 0044495c f   nafxcw:tooltip.obj
 0001:000439d1       ?SetToolRect@CToolTipCtrl@@QAEXPAVCWnd@@IPBUtagRECT@@@Z 004449d1 f   nafxcw:tooltip.obj
 0001:00043a35       ?UpdateTipText@CToolTipCtrl@@QAEXPBDPAVCWnd@@I@Z 00444a35 f   nafxcw:tooltip.obj
 0001:00043ab7       ?_AfxRelayToolTipMessage@@YGXPAVCToolTipCtrl@@PAUtagMSG@@@Z 00444ab7 f   nafxcw:tooltip.obj
 0001:00043b3d       ?_EnableToolTips@CWnd@@QAEHHI@Z 00444b3d f   nafxcw:tooltip.obj
 0001:00043bea       ?_FilterToolTipMessage@CWnd@@SGXPAUtagMSG@@PAV1@@Z 00444bea f   nafxcw:tooltip.obj
 0001:00043bfc       ??0AFX_GLOBAL_DATA@@QAE@XZ 00444bfc f   nafxcw:afxglobals.obj
 0001:00043df9       ??0CMemDC@@QAE@AAVCDC@@PAVCWnd@@@Z 00444df9 f   nafxcw:afxglobals.obj
 0001:00043f37       ??0CPen@@QAE@XZ            00444f37 f i nafxcw:afxglobals.obj
 0001:00043f44       ??1AFX_GLOBAL_DATA@@QAE@XZ 00444f44 f   nafxcw:afxglobals.obj
 0001:000440db       ??1CMemDC@@UAE@XZ          004450db f   nafxcw:afxglobals.obj
 0001:000441a7       ??_GCMemDC@@UAEPAXI@Z      004451a7 f i nafxcw:afxglobals.obj
 0001:000441a7       ??_ECMemDC@@UAEPAXI@Z      004451a7 f i nafxcw:afxglobals.obj
 0001:000441c6       ?AFXGetParentFrame@@YAPAVCFrameWnd@@PBVCWnd@@@Z 004451c6 f   nafxcw:afxglobals.obj
 0001:0004422c       ?AfxIsExtendedFrameClass@@YGHPAVCWnd@@@Z 0044522c f   nafxcw:afxglobals.obj
 0001:00044299       ?CleanUp@AFX_GLOBAL_DATA@@QAEXXZ 00445299 f   nafxcw:afxglobals.obj
 0001:00044329       ?CreateDitherBitmap@AFX_GLOBAL_DATA@@IAEPAUHBITMAP__@@PAUHDC__@@@Z 00445329 f   nafxcw:afxglobals.obj
 0001:000443ff       ?CreatePen@CPen@@QAEHHHK@Z 004453ff f i nafxcw:afxglobals.obj
 0001:00044421       ?DrawParentBackground@AFX_GLOBAL_DATA@@QAEHPAVCWnd@@PAVCDC@@PAUtagRECT@@@Z 00445421 f   nafxcw:afxglobals.obj
 0001:0004451d       ?DrawTextOnGlass@AFX_GLOBAL_DATA@@QAEHPAXPAVCDC@@HHV?$CStringT@DV?$StrTraitMFC@DV?$ChTraitsCRT@D@ATL@@@@@ATL@@VCRect@@KHK@Z 0044551d f   nafxcw:afxglobals.obj
 0001:00044683       ?GetColor@AFX_GLOBAL_DATA@@QAEKH@Z 00445683 f   nafxcw:afxglobals.obj
 0001:00044763       ?GetHandCursor@AFX_GLOBAL_DATA@@QAEPAUHICON__@@XZ 00445763 f   nafxcw:afxglobals.obj
 0001:0004478a       ?GetITaskbarList3@AFX_GLOBAL_DATA@@QAEPAUITaskbarList3@@XZ 0044578a f   nafxcw:afxglobals.obj
 0001:0004479d       ?GetNonClientMetrics@AFX_GLOBAL_DATA@@QAEHAAUtagNONCLIENTMETRICSA@@@Z 0044579d f   nafxcw:afxglobals.obj
 0001:00044848       ?Initialize@AFX_GLOBAL_DATA@@QAEXXZ 00445848 f   nafxcw:afxglobals.obj
 0001:00044905       ?IsDwmCompositionEnabled@AFX_GLOBAL_DATA@@QAEHXZ 00445905 f   nafxcw:afxglobals.obj
 0001:0004492d       ?OnSettingChange@AFX_GLOBAL_DATA@@QAEXXZ 0044592d f   nafxcw:afxglobals.obj
 0001:000449f3       ?RegisterWindowClass@AFX_GLOBAL_DATA@@QAE?AV?$CStringT@DV?$StrTraitMFC@DV?$ChTraitsCRT@D@ATL@@@@@ATL@@PBD@Z 004459f3 f   nafxcw:afxglobals.obj
 0001:00044abc       ?Resume@AFX_GLOBAL_DATA@@QAEHXZ 00445abc f   nafxcw:afxglobals.obj
 0001:00044afd       ?SetLayeredAttrib@AFX_GLOBAL_DATA@@QAEHPAUHWND__@@KEK@Z 00445afd f   nafxcw:afxglobals.obj
 0001:00044b07       ?UpdateFonts@AFX_GLOBAL_DATA@@QAEXXZ 00445b07 f   nafxcw:afxglobals.obj
 0001:0004501a       ?UpdateSysColors@AFX_GLOBAL_DATA@@QAEXXZ 0044601a f   nafxcw:afxglobals.obj
 0001:000453de       ?UpdateTextMetrics@AFX_GLOBAL_DATA@@IAEXXZ 004463de f   nafxcw:afxglobals.obj
 0001:000454a9       ?Filter_Box@@YANN@Z        004464a9 f i nafxcw:afxtoolbarimages.obj
 0001:000454d7       ?Filter_Bilinear@@YANN@Z   004464d7 f i nafxcw:afxtoolbarimages.obj
 0001:00045501       ?Filter_Bicubic@@YANN@Z    00446501 f i nafxcw:afxtoolbarimages.obj
 0001:00045539       ?Filter_Bell@@YANN@Z       00446539 f i nafxcw:afxtoolbarimages.obj
 0001:0004558e       ?Filter_BSpline@@YANN@Z    0044658e f i nafxcw:afxtoolbarimages.obj
 0001:000455ed       ?Filter_Lanczos3@@YANN@Z   004465ed f i nafxcw:afxtoolbarimages.obj
 0001:00045642       ?Filter_Mitchell@@YANN@Z   00446642 f i nafxcw:afxtoolbarimages.obj
 0001:0004574c       ??0?$CList@II@@QAE@H@Z     0044674c f i nafxcw:afxtoolbarimages.obj
 0001:00045772       ??0?$CList@PAUHINSTANCE__@@PAU1@@@QAE@H@Z 00446772 f i nafxcw:afxtoolbarimages.obj
 0001:00045798       ??0?$CMap@IIHH@@QAE@H@Z    00446798 f i nafxcw:afxtoolbarimages.obj
 0001:000457c2       ??0Bitmap@Gdiplus@@QAE@HHHHPAE@Z 004467c2 f i nafxcw:afxtoolbarimages.obj
 0001:000457fd       ??0CImage@ATL@@QAE@XZ      004467fd f i nafxcw:afxtoolbarimages.obj
 0001:0004583f       ??0CMFCToolBarImages@@QAE@H@Z 0044683f f   nafxcw:afxtoolbarimages.obj
 0001:000458f6       ??0CMFCToolBarImages@@QAE@XZ 004468f6 f   nafxcw:afxtoolbarimages.obj
 0001:000459a9       ??0CPngImage@@QAE@XZ       004469a9 f   nafxcw:afxtoolbarimages.obj
 0001:000459b6       ??0Graphics@Gdiplus@@QAE@PAVImage@1@@Z 004469b6 f i nafxcw:afxtoolbarimages.obj
 0001:000459e6       ??1?$CList@II@@UAE@XZ      004469e6 f i nafxcw:afxtoolbarimages.obj
 0001:000459f1       ??1?$CList@PAUHINSTANCE__@@PAU1@@@UAE@XZ 004469f1 f i nafxcw:afxtoolbarimages.obj
 0001:000459fc       ??1?$CMap@IIHH@@UAE@XZ     004469fc f i nafxcw:afxtoolbarimages.obj
 0001:00045a07       ??1CImage@ATL@@UAE@XZ      00446a07 f i nafxcw:afxtoolbarimages.obj
 0001:00045a2b       ??1CMFCScanlinerBitmap@@QAE@XZ 00446a2b f i nafxcw:afxtoolbarimages.obj
 0001:00045a30       ??1CMFCToolBarImages@@UAE@XZ 00446a30 f   nafxcw:afxtoolbarimages.obj
 0001:00045b30       ??1CMFCZoomKernel@@UAE@XZ  00446b30 f   nafxcw:afxtoolbarimages.obj
 0001:00045b3b       ??_E?$CList@II@@UAEPAXI@Z  00446b3b f i nafxcw:afxtoolbarimages.obj
 0001:00045b3b       ??_G?$CList@II@@UAEPAXI@Z  00446b3b f i nafxcw:afxtoolbarimages.obj
 0001:00045b60       ??_G?$CList@PAUHINSTANCE__@@PAU1@@@UAEPAXI@Z 00446b60 f i nafxcw:afxtoolbarimages.obj
 0001:00045b60       ??_E?$CList@PAUHINSTANCE__@@PAU1@@@UAEPAXI@Z 00446b60 f i nafxcw:afxtoolbarimages.obj
 0001:00045b85       ??_E?$CMap@IIHH@@UAEPAXI@Z 00446b85 f i nafxcw:afxtoolbarimages.obj
 0001:00045b85       ??_G?$CMap@IIHH@@UAEPAXI@Z 00446b85 f i nafxcw:afxtoolbarimages.obj
 0001:00045baa       ??_ECImage@ATL@@UAEPAXI@Z  00446baa f i nafxcw:afxtoolbarimages.obj
 0001:00045baa       ??_GCImage@ATL@@UAEPAXI@Z  00446baa f i nafxcw:afxtoolbarimages.obj
 0001:00045bc9       ??_GCMFCToolBarImages@@UAEPAXI@Z 00446bc9 f i nafxcw:afxtoolbarimages.obj
 0001:00045bc9       ??_ECMFCToolBarImages@@UAEPAXI@Z 00446bc9 f i nafxcw:afxtoolbarimages.obj
 0001:00045be8       ??_ECMFCZoomKernel@@UAEPAXI@Z 00446be8 f i nafxcw:afxtoolbarimages.obj
 0001:00045be8       ??_GCMFCZoomKernel@@UAEPAXI@Z 00446be8 f i nafxcw:afxtoolbarimages.obj
 0001:00045c0d       ??_GBitmap@Gdiplus@@UAEPAXI@Z 00446c0d f i nafxcw:afxtoolbarimages.obj
 0001:00045c0d       ??_EBitmap@Gdiplus@@UAEPAXI@Z 00446c0d f i nafxcw:afxtoolbarimages.obj
 0001:00045c0d       ??_EImage@Gdiplus@@UAEPAXI@Z 00446c0d f i nafxcw:afxtoolbarimages.obj
 0001:00045c0d       ??_GImage@Gdiplus@@UAEPAXI@Z 00446c0d f i nafxcw:afxtoolbarimages.obj
 0001:00045c34       ?AdaptColors@CMFCToolBarImages@@QAEXKK@Z 00446c34 f   nafxcw:afxtoolbarimages.obj
 0001:0004615d       ?AddIcon@CMFCToolBarImages@@QAEHPAUHICON__@@H@Z 0044715d f   nafxcw:afxtoolbarimages.obj
 0001:0004630f       ?AddImage@CMFCToolBarImages@@QAEHPAUHBITMAP__@@H@Z 0044730f f   nafxcw:afxtoolbarimages.obj
 0001:000466ea       ?AlphaBlend@CDC@@QAEHHHHHPAV1@HHHHU_BLENDFUNCTION@@@Z 004476ea f i nafxcw:afxtoolbarimages.obj
 0001:00046720       ?CleanUp@CMFCToolBarImages@@SGXXZ 00447720 f   nafxcw:afxtoolbarimages.obj
 0001:00046753       ?CleanUp@CPngImage@@SGXXZ  00447753 f i nafxcw:afxtoolbarimages.obj
 0001:0004676b       ?Clear@CMFCToolBarImages@@QAEXXZ 0044776b f   nafxcw:afxtoolbarimages.obj
 0001:00046816       ?Clone@Image@Gdiplus@@UAEPAV12@XZ 00447816 f i nafxcw:afxtoolbarimages.obj
 0001:0004685e       ?CommonInit@CMFCToolBarImages@@QAEXH@Z 0044785e f   nafxcw:afxtoolbarimages.obj
 0001:0004689b       ?CopyImageToClipboard@CMFCToolBarImages@@QAEHH@Z 0044789b f   nafxcw:afxtoolbarimages.obj
 0001:00046a83       ?CopyTemp@CMFCToolBarImages@@IAEXAAV1@@Z 00447a83 f   nafxcw:afxtoolbarimages.obj
 0001:00046ad9       ?CopyTo@CMFCToolBarImages@@QAEHAAV1@@Z 00447ad9 f   nafxcw:afxtoolbarimages.obj
 0001:00046e2b       ?Create@CMFCZoomKernel@@QAEXJJJJW4XFilterType@1@@Z 00447e2b f   nafxcw:afxtoolbarimages.obj
 0001:000470c2       ?CreateEx@CImage@ATL@@QAEHHHHKPBKK@Z 004480c2 f i nafxcw:afxtoolbarimages.obj
 0001:000471a2       ?CreateFromGdiplusBitmap@CImage@ATL@@AAEJAAVBitmap@Gdiplus@@@Z 004481a2 f i nafxcw:afxtoolbarimages.obj
 0001:000474fe       ?CreateMask@CMFCToolBarImages@@IAEXHHH@Z 004484fe f   nafxcw:afxtoolbarimages.obj
 0001:000475e2       ?CreateRegionFromImage@CMFCToolBarImages@@SGPAUHRGN__@@PAUHBITMAP__@@K@Z 004485e2 f   nafxcw:afxtoolbarimages.obj
 0001:00047726       ?DecreaseCImageCount@CInitGDIPlus@CImage@ATL@@QAEXXZ 00448726 f i nafxcw:afxtoolbarimages.obj
 0001:0004774a       ?Detach@CImage@ATL@@QAEPAUHBITMAP__@@XZ 0044874a f i nafxcw:afxtoolbarimages.obj
 0001:0004776e       ?Draw@CMFCToolBarImages@@QAEHPAVCDC@@HHHHHHHHE@Z 0044876e f   nafxcw:afxtoolbarimages.obj
 0001:00047fa9       ?DrawEx@CMFCToolBarImages@@QAEHPAVCDC@@VCRect@@HW4ImageAlignHorz@1@W4ImageAlignVert@1@1E@Z 00448fa9 f   nafxcw:afxtoolbarimages.obj
 0001:000482fb       ?DrawImage@Graphics@Gdiplus@@QAE?AW4Status@2@PAVImage@2@HH@Z 004492fb f i nafxcw:afxtoolbarimages.obj
 0001:0004832d       ?DrawState@CDC@@QAEHVCPoint@@VCSize@@PAUHICON__@@IPAVCBrush@@@Z 0044932d f i nafxcw:afxtoolbarimages.obj
 0001:00048366       ?Empty@CMFCZoomKernel@@QAEXXZ 00449366 f   nafxcw:afxtoolbarimages.obj
 0001:000483a4       ?EnableRTL@CMFCToolBarImages@@SGXH@Z 004493a4 f   nafxcw:afxtoolbarimages.obj
 0001:000483b3       ?EndDrawImage@CMFCToolBarImages@@QAEXAAUtagAFXDrawState@@@Z 004493b3 f   nafxcw:afxtoolbarimages.obj
 0001:00048487       ?ExtractIconA@CMFCToolBarImages@@QAEPAUHICON__@@H@Z 00449487 f   nafxcw:afxtoolbarimages.obj
 0001:00048576       ?FillDitheredRect@CMFCToolBarImages@@SGXPAVCDC@@ABVCRect@@@Z 00449576 f   nafxcw:afxtoolbarimages.obj
 0001:00048593       ?GetDC@CDCCache@CImage@ATL@@QAEPAUHDC__@@XZ 00449593 f i nafxcw:afxtoolbarimages.obj
 0001:000485ae       ?GetDC@CImage@ATL@@QBEPAUHDC__@@XZ 004495ae f i nafxcw:afxtoolbarimages.obj
 0001:000485db       ?GetHeight@Image@Gdiplus@@QAEIXZ 004495db f i nafxcw:afxtoolbarimages.obj
 0001:00048601       ?GetPalette@Image@Gdiplus@@QAE?AW4Status@2@PAUColorPalette@2@H@Z 00449601 f i nafxcw:afxtoolbarimages.obj
 0001:00048625       ?GetPaletteSize@Image@Gdiplus@@QAEHXZ 00449625 f i nafxcw:afxtoolbarimages.obj
 0001:0004864b       ?GetPixelFormat@Image@Gdiplus@@QAEHXZ 0044964b f i nafxcw:afxtoolbarimages.obj
 0001:0004866d       ?GetWidth@Image@Gdiplus@@QAEIXZ 0044966d f i nafxcw:afxtoolbarimages.obj
 0001:00048693       ?GrayImages@CMFCToolBarImages@@QAEHH@Z 00449693 f   nafxcw:afxtoolbarimages.obj
 0001:00048ab5       ?IncreaseCImageCount@CInitGDIPlus@CImage@ATL@@QAEXXZ 00449ab5 f i nafxcw:afxtoolbarimages.obj
 0001:00048ad0       ?Init@CInitGDIPlus@CImage@ATL@@QAE_NXZ 00449ad0 f i nafxcw:afxtoolbarimages.obj
 0001:00048b2a       ?Initialize@CMFCToolBarImages@@QAEXXZ 00449b2a f   nafxcw:afxtoolbarimages.obj
 0001:00048c12       ?IsHighContrastMode@AFX_GLOBAL_DATA@@QBEHXZ 00449c12 f i nafxcw:afxtoolbarimages.obj
 0001:00048c28       ?IsScaled@CMFCToolBarImages@@QBEHXZ 00449c28 f i nafxcw:afxtoolbarimages.obj
 0001:00048c40       ?Load@CImage@ATL@@QAEJPAUIStream@@@Z 00449c40 f i nafxcw:afxtoolbarimages.obj
 0001:00048cab       ?Load@CMFCToolBarImages@@QAEHIPAUHINSTANCE__@@H@Z 00449cab f   nafxcw:afxtoolbarimages.obj
 0001:00048cc4       ?Load@CMFCToolBarImages@@QAEHPBDK@Z 00449cc4 f   nafxcw:afxtoolbarimages.obj
 0001:00048f64       ?Load@CPngImage@@QAEHPBDPAUHINSTANCE__@@@Z 00449f64 f   nafxcw:afxtoolbarimages.obj
 0001:00048fda       ?LoadFromBuffer@CPngImage@@QAEHPAEI@Z 00449fda f   nafxcw:afxtoolbarimages.obj
 0001:000490ac       ?LoadStr@CMFCToolBarImages@@QAEHPBDPAUHINSTANCE__@@H@Z 0044a0ac f   nafxcw:afxtoolbarimages.obj
 0001:000492b1       ?MapBmpTo3dColors@CMFCToolBarImages@@KGHAAPAUHBITMAP__@@HKK@Z 0044a2b1 f   nafxcw:afxtoolbarimages.obj
 0001:00049478       ?MapFromSysColor@CMFCToolBarImages@@SGKKH@Z 0044a478 f   nafxcw:afxtoolbarimages.obj
 0001:000494f7       ?MapTo3dColors@CMFCToolBarImages@@QAEHHKK@Z 0044a4f7 f   nafxcw:afxtoolbarimages.obj
 0001:00049513       ?MapToSysColor@CMFCToolBarImages@@SGKKH@Z 0044a513 f   nafxcw:afxtoolbarimages.obj
 0001:000495a3       ?MapToSysColorAlpha@CMFCToolBarImages@@SGKK@Z 0044a5a3 f   nafxcw:afxtoolbarimages.obj
 0001:00049667       ?Mirror@CMFCToolBarImages@@QAEHXZ 0044a667 f   nafxcw:afxtoolbarimages.obj
 0001:000496ac       ?MirrorBitmap@CMFCToolBarImages@@SGHAAPAUHBITMAP__@@H@Z 0044a6ac f   nafxcw:afxtoolbarimages.obj
 0001:0004990f       ?MirrorBitmapVert@CMFCToolBarImages@@SGHAAPAUHBITMAP__@@H@Z 0044a90f f   nafxcw:afxtoolbarimages.obj
 0001:00049b8d       ?MirrorVert@CMFCToolBarImages@@QAEHXZ 0044ab8d f   nafxcw:afxtoolbarimages.obj
 0001:00049bd2       ?NewAssoc@?$CMap@IIPAUHWND__@@PAU1@@@IAEPAVCAssoc@1@I@Z 0044abd2 f i nafxcw:afxpaneframewnd.obj
 0001:00049bd2       ?NewAssoc@?$CMap@IIPAVCPane@@PAV1@@@IAEPAVCAssoc@1@I@Z 0044abd2 f i nafxcw:afxdockingmanager.obj
 0001:00049bd2       ?NewAssoc@?$CMap@HHII@@IAEPAVCAssoc@1@H@Z 0044abd2 f i nafxcw:afxvslistbox.obj
 0001:00049bd2       ?NewAssoc@?$CMap@HHHH@@IAEPAVCAssoc@1@H@Z 0044abd2 f i nafxcw:afxheaderctrl.obj
 0001:00049bd2       ?NewAssoc@?$CMap@PAUHICON__@@PAU1@HH@@IAEPAVCAssoc@1@PAUHICON__@@@Z 0044abd2 f i nafxcw:afxbasetabctrl.obj
 0001:00049bd2       ?NewAssoc@?$CMap@IIPAUHICON__@@PAU1@@@IAEPAVCAssoc@1@I@Z 0044abd2 f i nafxcw:afxtabctrl.obj
 0001:00049bd2       ?NewAssoc@?$CMap@IIII@@IAEPAVCAssoc@1@I@Z 0044abd2 f i nafxcw:afxpopupmenubar.obj
 0001:00049bd2       ?NewAssoc@?$CMap@PAUHWND__@@PAU1@HH@@IAEPAVCAssoc@1@PAUHWND__@@@Z 0044abd2 f i nafxcw:afxvisualmanageroffice2007.obj
 0001:00049bd2       ?NewAssoc@?$CMap@PAVCWnd@@PAV1@PAVCImageList@@PAV2@@@IAEPAVCAssoc@1@PAVCWnd@@@Z 0044abd2 f i nafxcw:afxmdiclientareawnd.obj
 0001:00049bd2       ?NewAssoc@?$CMap@IIPAVCMFCRibbonStatusBarPane@@PAV1@@@IAEPAVCAssoc@1@I@Z 0044abd2 f i nafxcw:afxribbonstatusbarpane.obj
 0001:00049bd2       ?NewAssoc@?$CMap@IIHH@@IAEPAVCAssoc@1@I@Z 0044abd2 f i nafxcw:afxtoolbarimages.obj
 0001:00049bd2       ?NewAssoc@?$CMap@IIKK@@IAEPAVCAssoc@1@I@Z 0044abd2 f i nafxcw:afxcolorbar.obj
 0001:00049bd2       ?NewAssoc@?$CMap@PAVCWnd@@PAV1@PAVCHwndRenderTarget@@PAV2@@@IAEPAVCAssoc@1@PAVCWnd@@@Z 0044abd2 f i nafxcw:wincore.obj
 0001:00049c4a       ?OnSysColorChange@CMFCToolBarImages@@QAEXXZ 0044ac4a f   nafxcw:afxtoolbarimages.obj
 0001:00049ea0       ?PreMultiplyAlpha@CMFCToolBarImages@@SGHPAUHBITMAP__@@H@Z 0044aea0 f   nafxcw:afxtoolbarimages.obj
 0001:00049f5e       ?PrepareDrawImage@CMFCToolBarImages@@QAEHAAUtagAFXDrawState@@VCSize@@H@Z 0044af5e f   nafxcw:afxtoolbarimages.obj
 0001:0004a1ba       ?ReleaseDC@CDCCache@CImage@ATL@@QAEXPAUHDC__@@@Z 0044b1ba f i nafxcw:afxtoolbarimages.obj
 0001:0004a1dc       ?ReleaseDC@CImage@ATL@@QBEXXZ 0044b1dc f i nafxcw:afxtoolbarimages.obj
 0001:0004a205       ?RemoveAll@?$CMap@HHII@@QAEXXZ 0044b205 f i nafxcw:afxvslistbox.obj
 0001:0004a205       ?RemoveAll@?$CMap@PAUHWND__@@PAU1@HH@@QAEXXZ 0044b205 f i nafxcw:afxvisualmanageroffice2007.obj
 0001:0004a205       ?RemoveAll@?$CMap@HHHH@@QAEXXZ 0044b205 f i nafxcw:afxheaderctrl.obj
 0001:0004a205       ?RemoveAll@?$CMap@PAUHMENU__@@AAPAU1@PAXAAPAX@@QAEXXZ 0044b205 f i nafxcw:afxmenuhash.obj
 0001:0004a205       ?RemoveAll@?$CMap@IAAIPAVCMFCToolBarButton@@AAPAV1@@@QAEXXZ 0044b205 f i nafxcw:afxtoolbar.obj
 0001:0004a205       ?RemoveAll@?$CMap@IIII@@QAEXXZ 0044b205 f i nafxcw:afxpopupmenubar.obj
 0001:0004a205       ?RemoveAll@?$CMap@PAUHICON__@@PAU1@HH@@QAEXXZ 0044b205 f i nafxcw:afxbasetabctrl.obj
 0001:0004a205       ?RemoveAll@?$CMap@IIHH@@QAEXXZ 0044b205 f i nafxcw:afxtoolbarimages.obj
 0001:0004a205       ?RemoveAll@?$CMap@IIPAVCPane@@PAV1@@@QAEXXZ 0044b205 f i nafxcw:afxdockingmanager.obj
 0001:0004a205       ?RemoveAll@?$CMap@PAVCWnd@@PAV1@PAVCImageList@@PAV2@@@QAEXXZ 0044b205 f i nafxcw:afxmdiclientareawnd.obj
 0001:0004a205       ?RemoveAll@?$CMap@PAVCWnd@@PAV1@PAVCHwndRenderTarget@@PAV2@@@QAEXXZ 0044b205 f i nafxcw:wincore.obj
 0001:0004a205       ?RemoveAll@?$CMap@IIPAVCMFCRibbonStatusBarPane@@PAV1@@@QAEXXZ 0044b205 f i nafxcw:afxribbonstatusbarpane.obj
 0001:0004a205       ?RemoveAll@?$CMap@IIPAUHWND__@@PAU1@@@QAEXXZ 0044b205 f i nafxcw:afxpaneframewnd.obj
 0001:0004a205       ?RemoveAll@?$CMap@IIKK@@QAEXXZ 0044b205 f i nafxcw:afxcolormenubutton.obj
 0001:0004a205       ?RemoveAll@?$CMap@IIPAUHICON__@@PAU1@@@QAEXXZ 0044b205 f i nafxcw:afxtabctrl.obj
 0001:0004a248       ?SetColorTable@CImage@ATL@@QAEXIIPBUtagRGBQUAD@@@Z 0044b248 f i nafxcw:afxtoolbarimages.obj
 0001:0004a271       ?SetSingleImage@CMFCToolBarImages@@QAEXXZ 0044b271 f   nafxcw:afxtoolbarimages.obj
 0001:0004a2bf       ?SinC@@YANN@Z              0044b2bf f i nafxcw:afxtoolbarimages.obj
 0001:0004a2f0       ?SmoothResize@CMFCToolBarImages@@QAEHN@Z 0044b2f0 f   nafxcw:afxtoolbarimages.obj
 0001:0004a937       ?TransparentBlt@CMFCToolBarImages@@KGXPAUHDC__@@HHHHPAVCDC@@HHKHH@Z 0044b937 f   nafxcw:afxtoolbarimages.obj
 0001:0004abd6       ?UpdateBitmapInfo@CImage@ATL@@AAEXW4DIBOrientation@12@@Z 0044bbd6 f i nafxcw:afxtoolbarimages.obj
 0001:0004ac9a       ?UpdateCount@CMFCToolBarImages@@IAEXXZ 0044bc9a f   nafxcw:afxtoolbarimages.obj
 0001:0004acd3       ?UpdateImage@CMFCToolBarImages@@QAEHHPAUHBITMAP__@@@Z 0044bcd3 f   nafxcw:afxtoolbarimages.obj
 0001:0004ae1d       ?UpdateInternalImage@CMFCToolBarImages@@IAEHH@Z 0044be1d f   nafxcw:afxtoolbarimages.obj
 0001:0004b0f9       ?_begin@CMFCScanliner@@IBEPAEPAE@Z 0044c0f9 f i nafxcw:afxtoolbarimages.obj
 0001:0004b129       ?_end@CMFCScanliner@@IBEPAEPAE@Z 0044c129 f i nafxcw:afxtoolbarimages.obj
 0001:0004b15f       ?attach@CMFCScanliner@@QAEXPAEABVCRect@@IIEH@Z 0044c15f f i nafxcw:afxtoolbarimages.obj
 0001:0004b1f3       ?attach@CMFCScanliner@@QAEXPAEABVCSize@@IIEH@Z 0044c1f3 f i nafxcw:afxtoolbarimages.obj
 0001:0004b22d       ?attach@CMFCScanlinerBitmap@@QAEXPAUHBITMAP__@@ABVCPoint@@@Z 0044c22d f i nafxcw:afxtoolbarimages.obj
 0001:0004b31a       ?empty@CMFCScanliner@@IAEXXZ 0044c31a f i nafxcw:afxtoolbarimages.obj
 0001:0004b33a       _IsolationAwareImageList_GetIcon@12 0044c33a f i nafxcw:afxtoolbarimages.obj
 0001:0004b3e5       _IsolationAwareImageList_GetImageCount@4 0044c3e5 f i nafxcw:afxtoolbarimages.obj
 0001:0004b48a       ?CleanUp@CMenuImages@@SGXXZ 0044c48a f   nafxcw:afxmenuimages.obj
 0001:0004b4d9       ?CreateCopy@CMenuImages@@KGXAAVCMFCToolBarImages@@K@Z 0044c4d9 f   nafxcw:afxmenuimages.obj
 0001:0004b4fc       ?Draw@CMenuImages@@SGXPAVCDC@@W4IMAGES_IDS@1@ABVCPoint@@W4IMAGE_STATE@1@ABVCSize@@@Z 0044c4fc f   nafxcw:afxmenuimages.obj
 0001:0004b59a       ?Draw@CMenuImages@@SGXPAVCDC@@W4IMAGES_IDS@1@ABVCRect@@W4IMAGE_STATE@1@ABVCSize@@@Z 0044c59a f   nafxcw:afxmenuimages.obj
 0001:0004b620       ?Initialize@CMenuImages@@KGHXZ 0044c620 f   nafxcw:afxmenuimages.obj
 0001:0004b7dc       ?SetColor@CMenuImages@@SGXW4IMAGE_STATE@1@K@Z 0044c7dc f   nafxcw:afxmenuimages.obj
 0001:0004b912       ?Size@CMenuImages@@SG?AVCSize@@XZ 0044c912 f   nafxcw:afxmenuimages.obj
 0001:0004b98c       ?CreateObject@CMFCVisualManager@@SGPAVCObject@@XZ 0044c98c f   nafxcw:afxvisualmanager.obj
 0001:0004b9bd       ??0?$CList@UtagPOINT@@U1@@@QAE@H@Z 0044c9bd f i nafxcw:afxvisualmanager.obj
 0001:0004b9e3       ??0CMFCBaseVisualManager@@QAE@XZ 0044c9e3 f   nafxcw:afxvisualmanager.obj
 0001:0004ba30       ??0CMFCVisualManager@@QAE@H@Z 0044ca30 f   nafxcw:afxvisualmanager.obj
 0001:0004bb3d       ??1?$CList@UtagPOINT@@U1@@@UAE@XZ 0044cb3d f i nafxcw:afxvisualmanager.obj
 0001:0004bb48       ??1CMFCBaseVisualManager@@UAE@XZ 0044cb48 f   nafxcw:afxvisualmanager.obj
 0001:0004bb53       ??1CMFCVisualManager@@UAE@XZ 0044cb53 f   nafxcw:afxvisualmanager.obj
 0001:0004bb71       ??_G?$CList@UtagPOINT@@U1@@@UAEPAXI@Z 0044cb71 f i nafxcw:afxvisualmanager.obj
 0001:0004bb71       ??_E?$CList@UtagPOINT@@U1@@@UAEPAXI@Z 0044cb71 f i nafxcw:afxvisualmanager.obj
 0001:0004bb96       ??_ECMFCBaseVisualManager@@UAEPAXI@Z 0044cb96 f i nafxcw:afxvisualmanager.obj
 0001:0004bb96       ??_GCMFCBaseVisualManager@@UAEPAXI@Z 0044cb96 f i nafxcw:afxvisualmanager.obj
 0001:0004bbbb       ??_ECMFCVisualManager@@UAEPAXI@Z 0044cbbb f i nafxcw:afxvisualmanager.obj
 0001:0004bbbb       ??_GCMFCVisualManager@@UAEPAXI@Z 0044cbbb f i nafxcw:afxvisualmanager.obj
 0001:0004bbda       ?AddHead@?$CList@UtagPOINT@@U1@@@QAEPAU__POSITION@@UtagPOINT@@@Z 0044cbda f i nafxcw:afxvisualmanager.obj
 0001:0004bc0d       ?AddTail@?$CList@UtagPOINT@@U1@@@QAEPAU__POSITION@@UtagPOINT@@@Z 0044cc0d f i nafxcw:afxvisualmanager.obj
 0001:0004bc3f       ?AdjustFrames@CMFCVisualManager@@SGXXZ 0044cc3f f   nafxcw:afxvisualmanager.obj
 0001:0004bc76       ?AdjustToolbars@CMFCVisualManager@@SGXXZ 0044cc76 f   nafxcw:afxvisualmanager.obj
 0001:0004bcc2       ?CleanUpThemes@CMFCBaseVisualManager@@IAEXXZ 0044ccc2 f   nafxcw:afxvisualmanager.obj
 0001:0004bda0       ?DoDrawHeaderSortArrow@CMFCVisualManager@@QAEXPAVCDC@@VCRect@@HH@Z 0044cda0 f   nafxcw:afxvisualmanager.obj
 0001:0004bec8       ?DrawCheckBox@CMFCBaseVisualManager@@UAEHPAVCDC@@VCRect@@HHHH@Z 0044cec8 f   nafxcw:afxvisualmanager.obj
 0001:0004bf89       ?DrawComboBorder@CMFCBaseVisualManager@@UAEHPAVCDC@@VCRect@@HHH@Z 0044cf89 f   nafxcw:afxvisualmanager.obj
 0001:0004bfd7       ?DrawComboDropButtonWinXP@CMFCVisualManager@@UAEHPAVCDC@@VCRect@@HHH@Z 0044cfd7 f i nafxcw:afxvisualmanager.obj
 0001:0004bfd7       ?DrawComboBorderWinXP@CMFCVisualManager@@UAEHPAVCDC@@VCRect@@HHH@Z 0044cfd7 f i nafxcw:afxvisualmanager.obj
 0001:0004bfdc       ?DrawComboDropButton@CMFCBaseVisualManager@@UAEHPAVCDC@@VCRect@@HHH@Z 0044cfdc f   nafxcw:afxvisualmanager.obj
 0001:0004c030       ?DrawPushButton@CMFCBaseVisualManager@@UAEHPAVCDC@@VCRect@@PAVCMFCButton@@I@Z 0044d030 f   nafxcw:afxvisualmanager.obj
 0001:0004c109       ?DrawPushButtonWinXP@CMFCVisualManager@@UAEHPAVCDC@@VCRect@@PAVCMFCButton@@I@Z 0044d109 f i nafxcw:afxvisualmanager.obj
 0001:0004c10e       ?DrawRadioButton@CMFCBaseVisualManager@@UAEHPAVCDC@@VCRect@@HHHH@Z 0044d10e f   nafxcw:afxvisualmanager.obj
 0001:0004c191       ?DrawState@CDC@@QAEHVCPoint@@VCSize@@PAUHICON__@@IPAUHBRUSH__@@@Z 0044d191 f i nafxcw:afxvisualmanager.obj
 0001:0004c1be       ?DrawStatusBarProgress@CMFCBaseVisualManager@@UAEHPAVCDC@@PAVCMFCStatusBar@@VCRect@@HHKKKH@Z 0044d1be f   nafxcw:afxvisualmanager.obj
 0001:0004c2c7       ?DrawTextOnGlass@CMFCVisualManager@@UAEHPAVCDC@@V?$CStringT@DV?$StrTraitMFC@DV?$ChTraitsCRT@D@ATL@@@@@ATL@@VCRect@@KHK@Z 0044d2c7 f   nafxcw:afxvisualmanager.obj
 0001:0004c35f       ?Ellipse@CDC@@QAEHPBUtagRECT@@@Z 0044d35f f i nafxcw:afxvisualmanager.obj
 0001:0004c37d       ?FillReBarPane@CMFCBaseVisualManager@@UAEXPAVCDC@@PAVCBasePane@@VCRect@@@Z 0044d37d f   nafxcw:afxvisualmanager.obj
 0001:0004c4e2       ?GetRibbonStatusBarTextColor@CMFCVisualManager@@UAEKPAVCMFCRibbonStatusBar@@@Z 0044d4e2 f   nafxcw:afxvisualmanager.obj
 0001:0004c4e2       ?GetAutoHideButtonTextColor@CMFCVisualManager@@UAEKPAVCMFCAutoHideButton@@@Z 0044d4e2 f   nafxcw:afxvisualmanager.obj
 0001:0004c4ed       ?GetCaptionBarTextColor@CMFCVisualManager@@UAEKPAVCMFCCaptionBar@@@Z 0044d4ed f   nafxcw:afxvisualmanager.obj
 0001:0004c512       ?GetCaptionButtonExtraBorder@CMFCVisualManager@@UBE?AVCSize@@XZ 0044d512 f i nafxcw:afxvisualmanager.obj
 0001:0004c512       ?GetButtonExtraBorder@CMFCVisualManager@@UBE?AVCSize@@XZ 0044d512 f i nafxcw:afxvisualmanager.obj
 0001:0004c523       ?GetHighlightedMenuItemTextColor@CMFCVisualManager@@UAEKPAVCMFCToolBarMenuButton@@@Z 0044d523 f   nafxcw:afxvisualmanager.obj
 0001:0004c548       ?GetMenuImageFrameOffset@CMFCVisualManager@@UBE?AVCRect@@XZ 0044d548 f i nafxcw:afxvisualmanager.obj
 0001:0004c565       ?GetMenuItemTextColor@CMFCVisualManager@@UAEKPAVCMFCToolBarMenuButton@@HH@Z 0044d565 f   nafxcw:afxvisualmanager.obj
 0001:0004c595       ?GetPopupMenuBorderSize@CMFCVisualManager@@UBEHXZ 0044d595 f i nafxcw:afxvisualmanager.obj
 0001:0004c595       ?GetNotifyID@CMFCRibbonBaseElement@@UAEIXZ 0044d595 f i nafxcw:afxbaseribbonelement.obj
 0001:0004c595       ?GetQuickAccessToolBarID@CMFCRibbonBaseElement@@UBEIXZ 0044d595 f i nafxcw:afxbaseribbonelement.obj
 0001:0004c59c       ?GetPropertyGridGroupColor@CMFCVisualManager@@UAEKPAVCMFCPropertyGridCtrl@@@Z 0044d59c f   nafxcw:afxvisualmanager.obj
 0001:0004c5c1       ?GetPropertyGridGroupTextColor@CMFCVisualManager@@UAEKPAVCMFCPropertyGridCtrl@@@Z 0044d5c1 f   nafxcw:afxvisualmanager.obj
 0001:0004c5e6       ?GetRibbonEditBackgroundColor@CMFCVisualManager@@UAEKPAVCMFCRibbonRichEditCtrl@@HHH@Z 0044d5e6 f   nafxcw:afxvisualmanager.obj
 0001:0004c60b       ?GetRibbonHyperlinkTextColor@CMFCVisualManager@@UAEKPAVCMFCRibbonLinkCtrl@@@Z 0044d60b f   nafxcw:afxvisualmanager.obj
 0001:0004c655       ?GetRibbonPopupBorderSize@CMFCVisualManager@@UBEHPBVCMFCRibbonPanelMenu@@@Z 0044d655 f i nafxcw:afxvisualmanager.obj
 0001:0004c65e       ?GetRibbonQuickAccessToolBarTextColor@CMFCVisualManager@@UAEKH@Z 0044d65e f i nafxcw:afxvisualmanager.obj
 0001:0004c678       ?GetRibbonSliderColors@CMFCVisualManager@@UAEXPAVCMFCRibbonSlider@@HHHAAK1@Z 0044d678 f   nafxcw:afxvisualmanager.obj
 0001:0004c6ca       ?GetRuntimeClass@CMFCVisualManager@@UBEPAUCRuntimeClass@@XZ 0044d6ca f   nafxcw:afxvisualmanager.obj
 0001:0004c6d0       ?GetShowAllMenuItemsHeight@CMFCVisualManager@@UAEHPAVCDC@@ABVCSize@@@Z 0044d6d0 f   nafxcw:afxvisualmanager.obj
 0001:0004c6ea       ?GetSmartDockingBaseGuideColors@CMFCVisualManager@@UAEXAAK0@Z 0044d6ea f   nafxcw:afxvisualmanager.obj
 0001:0004c70b       ?GetSmartDockingHighlightToneColor@CMFCVisualManager@@UAEKXZ 0044d70b f   nafxcw:afxvisualmanager.obj
 0001:0004c714       ?GetStandardWindowsTheme@CMFCBaseVisualManager@@UAE?AW4WinXpTheme@1@XZ 0044d714 f   nafxcw:afxvisualmanager.obj
 0001:0004c8f9       ?GetStatusBarPaneTextColor@CMFCVisualManager@@UAEKPAVCMFCStatusBar@@PAVCMFCStatusBarPaneInfo@@@Z 0044d8f9 f   nafxcw:afxvisualmanager.obj
 0001:0004c930       ?GetTabFrameColors@CMFCVisualManager@@UAEXPBVCMFCBaseTabCtrl@@AAK11111AAPAVCBrush@@2@Z 0044d930 f   nafxcw:afxvisualmanager.obj
 0001:0004ca72       ?GetTabTextColor@CMFCVisualManager@@UAEKPBVCMFCBaseTabCtrl@@HH@Z 0044da72 f i nafxcw:afxvisualmanager.obj
 0001:0004ca78       ?GetToolBarCustomizeButtonMargin@CMFCVisualManager@@UBEHXZ 0044da78 f i nafxcw:afxvisualmanager.obj
 0001:0004ca78       ?GetMenuImageMargin@CMFCVisualManager@@UBEHXZ 0044da78 f i nafxcw:afxvisualmanager.obj
 0001:0004ca78       ?GetGroupOffset@CMFCRibbonColorButton@@MBEHXZ 0044da78 f i nafxcw:afxribboncolorbutton.obj
 0001:0004ca7c       ?GetToolTipInfo@CMFCVisualManager@@UAEHAAVCMFCToolTipInfo@@I@Z 0044da7c f   nafxcw:afxvisualmanager.obj
 0001:0004ca9f       ?GetToolbarButtonTextColor@CMFCVisualManager@@UAEKPAVCMFCToolBarButton@@W4AFX_BUTTON_STATE@1@@Z 0044da9f f   nafxcw:afxvisualmanager.obj
 0001:0004cb40       ?GetToolbarDisabledTextColor@CMFCVisualManager@@UAEKXZ 0044db40 f   nafxcw:afxvisualmanager.obj
 0001:0004cb49       ?GetToolbarHighlightColor@CMFCVisualManager@@UAEKXZ 0044db49 f   nafxcw:afxvisualmanager.obj
 0001:0004cb52       ?InsertAfter@?$CList@UtagPOINT@@U1@@@QAEPAU__POSITION@@PAU2@UtagPOINT@@@Z 0044db52 f i nafxcw:afxvisualmanager.obj
 0001:0004cb97       ?InsertBefore@?$CList@UtagPOINT@@U1@@@QAEPAU__POSITION@@PAU2@UtagPOINT@@@Z 0044db97 f i nafxcw:afxvisualmanager.obj
 0001:0004cbde       ?IsFirstTab@CMFCBaseTabCtrl@@QBEHH@Z 0044dbde f i nafxcw:afxvisualmanager.obj
 0001:0004cc14       ?IsOfficeXPStyleMenus@CMFCVisualManager@@UBEHXZ 0044dc14 f i nafxcw:afxvisualmanager.obj
 0001:0004cc18       ?IsPressed@CMFCButton@@QBEHXZ 0044dc18 f i nafxcw:afxvisualmanager.obj
 0001:0004cc2c       ?MakeLower@?$CStringT@DV?$StrTraitMFC@DV?$ChTraitsCRT@D@ATL@@@@@ATL@@QAEAAV12@XZ 0044dc2c f i nafxcw:afxvisualmanager.obj
 0001:0004cc54       ?NewNode@?$CList@UtagPOINT@@U1@@@IAEPAUCNode@1@PAU21@0@Z 0044dc54 f i nafxcw:afxvisualmanager.obj
 0001:0004ccb4       ?OnDrawAutoHideButtonBorder@CMFCVisualManager@@UAEXPAVCDC@@VCRect@@1PAVCMFCAutoHideButton@@@Z 0044dcb4 f   nafxcw:afxvisualmanager.obj
 0001:0004cd4f       ?OnDrawBarGripper@CMFCVisualManager@@UAEXPAVCDC@@VCRect@@HPAVCBasePane@@@Z 0044dd4f f   nafxcw:afxvisualmanager.obj
 0001:0004cdf8       ?OnDrawBrowseButton@CMFCVisualManager@@UAEHPAVCDC@@VCRect@@PAVCMFCEditBrowseCtrl@@W4AFX_BUTTON_STATE@1@AAK@Z 0044ddf8 f   nafxcw:afxvisualmanager.obj
 0001:0004cea1       ?OnDrawButtonBorder@CMFCVisualManager@@UAEXPAVCDC@@PAVCMFCToolBarButton@@VCRect@@W4AFX_BUTTON_STATE@1@@Z 0044dea1 f   nafxcw:afxvisualmanager.obj
 0001:0004cefa       ?OnDrawButtonSeparator@CMFCVisualManager@@UAEXPAVCDC@@PAVCMFCToolBarButton@@VCRect@@W4AFX_BUTTON_STATE@1@H@Z 0044defa f   nafxcw:afxvisualmanager.obj
 0001:0004cf3f       ?OnDrawCaptionBarBorder@CMFCVisualManager@@UAEXPAVCDC@@PAVCMFCCaptionBar@@VCRect@@KH@Z 0044df3f f   nafxcw:afxvisualmanager.obj
 0001:0004cfdd       ?OnDrawCaptionBarButtonBorder@CMFCVisualManager@@UAEXPAVCDC@@PAVCMFCCaptionBar@@VCRect@@HHHHH@Z 0044dfdd f   nafxcw:afxvisualmanager.obj
 0001:0004d02e       ?OnDrawCaptionBarInfoArea@CMFCVisualManager@@UAEXPAVCDC@@PAVCMFCCaptionBar@@VCRect@@@Z 0044e02e f   nafxcw:afxvisualmanager.obj
 0001:0004d09f       ?OnDrawCaptionButton@CMFCVisualManager@@UAEXPAVCDC@@PAVCMFCCaptionButton@@HHHHH@Z 0044e09f f   nafxcw:afxvisualmanager.obj
 0001:0004d1e4       ?OnDrawCheckBox@CMFCVisualManager@@UAEXPAVCDC@@VCRect@@HHH@Z 0044e1e4 f   nafxcw:afxvisualmanager.obj
 0001:0004d217       ?OnDrawCheckBoxEx@CMFCVisualManager@@UAEXPAVCDC@@VCRect@@HHHH@Z 0044e217 f   nafxcw:afxvisualmanager.obj
 0001:0004d3a8       ?OnDrawComboBorder@CMFCVisualManager@@UAEXPAVCDC@@VCRect@@HHHPAVCMFCToolBarComboBoxButton@@@Z 0044e3a8 f   nafxcw:afxvisualmanager.obj
 0001:0004d433       ?OnDrawComboDropButton@CMFCVisualManager@@UAEXPAVCDC@@VCRect@@HHHPAVCMFCToolBarComboBoxButton@@@Z 0044e433 f   nafxcw:afxvisualmanager.obj
 0001:0004d56f       ?OnDrawControlBorder@CMFCVisualManager@@UAEXPAVCWnd@@@Z 0044e56f f   nafxcw:afxvisualmanager.obj
 0001:0004d62e       ?OnDrawDefaultRibbonImage@CMFCVisualManager@@UAEXPAVCDC@@VCRect@@HHH@Z 0044e62e f   nafxcw:afxvisualmanager.obj
 0001:0004d763       ?OnDrawEditBorder@CMFCVisualManager@@UAEXPAVCDC@@VCRect@@HHPAVCMFCToolBarEditBoxButton@@@Z 0044e763 f   nafxcw:afxvisualmanager.obj
 0001:0004d784       ?OnDrawExpandingBox@CMFCVisualManager@@UAEXPAVCDC@@VCRect@@HK@Z 0044e784 f   nafxcw:afxvisualmanager.obj
 0001:0004d859       ?OnDrawFloatingToolbarBorder@CMFCVisualManager@@UAEXPAVCDC@@PAVCMFCBaseToolBar@@VCRect@@2@Z 0044e859 f   nafxcw:afxvisualmanager.obj
 0001:0004d8d2       ?OnDrawHeaderCtrlBorder@CMFCVisualManager@@UAEXPAVCMFCHeaderCtrl@@PAVCDC@@AAVCRect@@HH@Z 0044e8d2 f   nafxcw:afxvisualmanager.obj
 0001:0004d958       ?OnDrawHeaderCtrlSortArrow@CMFCVisualManager@@UAEXPAVCMFCHeaderCtrl@@PAVCDC@@AAVCRect@@H@Z 0044e958 f   nafxcw:afxvisualmanager.obj
 0001:0004d983       ?OnDrawMenuArrowOnCustomizeList@CMFCVisualManager@@UAEXPAVCDC@@VCRect@@H@Z 0044e983 f   nafxcw:afxvisualmanager.obj
 0001:0004da2a       ?OnDrawMenuBorder@CMFCVisualManager@@UAEXPAVCDC@@PAVCMFCPopupMenu@@VCRect@@@Z 0044ea2a f   nafxcw:afxvisualmanager.obj
 0001:0004da7a       ?OnDrawMenuCheck@CMFCVisualManager@@UAEXPAVCDC@@PAVCMFCToolBarMenuButton@@VCRect@@HH@Z 0044ea7a f   nafxcw:afxvisualmanager.obj
 0001:0004dab9       ?OnDrawMenuItemButton@CMFCVisualManager@@UAEXPAVCDC@@PAVCMFCToolBarMenuButton@@VCRect@@HH@Z 0044eab9 f   nafxcw:afxvisualmanager.obj
 0001:0004db2d       ?OnDrawMenuLabel@CMFCVisualManager@@UAEKPAVCDC@@VCRect@@@Z 0044eb2d f   nafxcw:afxvisualmanager.obj
 0001:0004dba9       ?OnDrawMenuResizeBar@CMFCVisualManager@@UAEXPAVCDC@@VCRect@@H@Z 0044eba9 f   nafxcw:afxvisualmanager.obj
 0001:0004dbcb       ?OnDrawMenuScrollButton@CMFCVisualManager@@UAEXPAVCDC@@VCRect@@HHHH@Z 0044ebcb f   nafxcw:afxvisualmanager.obj
 0001:0004dc6f       ?OnDrawMenuShadow@CMFCVisualManager@@UAEXPAVCDC@@ABVCRect@@1HHHPAVCBitmap@@2H@Z 0044ec6f f   nafxcw:afxvisualmanager.obj
 0001:0004dccc       ?OnDrawMenuSystemButton@CMFCVisualManager@@UAEXPAVCDC@@VCRect@@IIH@Z 0044eccc f   nafxcw:afxvisualmanager.obj
 0001:0004dd24       ?OnDrawMiniFrameBorder@CMFCVisualManager@@UAEXPAVCDC@@PAVCPaneFrameWnd@@VCRect@@2@Z 0044ed24 f   nafxcw:afxvisualmanager.obj
 0001:0004de37       ?OnDrawOutlookBarSplitter@CMFCVisualManager@@UAEXPAVCDC@@VCRect@@@Z 0044ee37 f   nafxcw:afxvisualmanager.obj
 0001:0004de7b       ?OnDrawOutlookPageButtonBorder@CMFCVisualManager@@UAEXPAVCDC@@AAVCRect@@HH@Z 0044ee7b f   nafxcw:afxvisualmanager.obj
 0001:0004df13       ?OnDrawPaneBorder@CMFCVisualManager@@UAEXPAVCDC@@PAVCBasePane@@AAVCRect@@@Z 0044ef13 f   nafxcw:afxvisualmanager.obj
 0001:0004e0a3       ?OnDrawPaneCaption@CMFCVisualManager@@UAEKPAVCDC@@PAVCDockablePane@@HVCRect@@2@Z 0044f0a3 f   nafxcw:afxvisualmanager.obj
 0001:0004e117       ?OnDrawPaneDivider@CMFCVisualManager@@UAEXPAVCDC@@PAVCPaneDivider@@VCRect@@H@Z 0044f117 f   nafxcw:afxvisualmanager.obj
 0001:0004e219       ?OnDrawPopupWindowBorder@CMFCVisualManager@@UAEXPAVCDC@@VCRect@@@Z 0044f219 f   nafxcw:afxvisualmanager.obj
 0001:0004e269       ?OnDrawPopupWindowButtonBorder@CMFCVisualManager@@UAEXPAVCDC@@VCRect@@PAVCMFCDesktopAlertWndButton@@@Z 0044f269 f   nafxcw:afxvisualmanager.obj
 0001:0004e300       ?OnDrawPopupWindowCaption@CMFCVisualManager@@UAEKPAVCDC@@VCRect@@PAVCMFCDesktopAlertWnd@@@Z 0044f300 f   nafxcw:afxvisualmanager.obj
 0001:0004e358       ?OnDrawPropertySheetListItem@CMFCVisualManager@@UAEKPAVCDC@@PAVCMFCPropertySheet@@VCRect@@HH@Z 0044f358 f   nafxcw:afxvisualmanager.obj
 0001:0004e3a9       ?OnDrawRibbonApplicationButton@CMFCVisualManager@@UAEXPAVCDC@@PAVCMFCRibbonButton@@@Z 0044f3a9 f   nafxcw:afxvisualmanager.obj
 0001:0004e470       ?OnDrawRibbonButtonBorder@CMFCVisualManager@@UAEXPAVCDC@@PAVCMFCRibbonButton@@@Z 0044f470 f   nafxcw:afxvisualmanager.obj
 0001:0004e682       ?OnDrawRibbonButtonsGroup@CMFCVisualManager@@UAEKPAVCDC@@PAVCMFCRibbonButtonsGroup@@VCRect@@@Z 0044f682 f   nafxcw:afxvisualmanager.obj
 0001:0004e688       ?OnDrawRibbonCaption@CMFCVisualManager@@UAEXPAVCDC@@PAVCMFCRibbonBar@@VCRect@@2@Z 0044f688 f   nafxcw:afxvisualmanager.obj
 0001:0004e8b9       ?OnDrawRibbonCaptionButton@CMFCVisualManager@@UAEXPAVCDC@@PAVCMFCRibbonCaptionButton@@@Z 0044f8b9 f   nafxcw:afxvisualmanager.obj
 0001:0004e96a       ?OnDrawRibbonCategory@CMFCVisualManager@@UAEXPAVCDC@@PAVCMFCRibbonCategory@@VCRect@@@Z 0044f96a f   nafxcw:afxvisualmanager.obj
 0001:0004eab3       ?OnDrawRibbonCategoryCaption@CMFCVisualManager@@UAEKPAVCDC@@PAVCMFCRibbonContextCaption@@@Z 0044fab3 f   nafxcw:afxvisualmanager.obj
 0001:0004eb2c       ?OnDrawRibbonCategoryScroll@CMFCVisualManager@@UAEXPAVCDC@@PAVCRibbonCategoryScroll@@@Z 0044fb2c f   nafxcw:afxvisualmanager.obj
 0001:0004ec15       ?OnDrawRibbonCategoryTab@CMFCVisualManager@@UAEKPAVCDC@@PAVCMFCRibbonTab@@H@Z 0044fc15 f   nafxcw:afxvisualmanager.obj
 0001:0004ef55       ?OnDrawRibbonCheckBoxOnList@CMFCVisualManager@@UAEXPAVCDC@@PAVCMFCRibbonCheckBox@@VCRect@@HH@Z 0044ff55 f   nafxcw:afxvisualmanager.obj
 0001:0004efb4       ?OnDrawRibbonColorPaletteBox@CMFCVisualManager@@UAEXPAVCDC@@PAVCMFCRibbonColorButton@@PAVCMFCRibbonGalleryIcon@@KVCRect@@HHHHH@Z 0044ffb4 f   nafxcw:afxvisualmanager.obj
 0001:0004f170       ?OnDrawRibbonDefaultPaneButton@CMFCVisualManager@@UAEXPAVCDC@@PAVCMFCRibbonButton@@@Z 00450170 f   nafxcw:afxvisualmanager.obj
 0001:0004f1b9       ?OnDrawRibbonDefaultPaneButtonContext@CMFCVisualManager@@UAEXPAVCDC@@PAVCMFCRibbonButton@@@Z 004501b9 f   nafxcw:afxvisualmanager.obj
 0001:0004f245       ?OnDrawRibbonDefaultPaneButtonIndicator@CMFCVisualManager@@UAEXPAVCDC@@PAVCMFCRibbonButton@@VCRect@@HH@Z 00450245 f   nafxcw:afxvisualmanager.obj
 0001:0004f306       ?OnDrawRibbonGalleryBorder@CMFCVisualManager@@UAEXPAVCDC@@PAVCMFCRibbonGallery@@VCRect@@@Z 00450306 f   nafxcw:afxvisualmanager.obj
 0001:0004f32d       ?OnDrawRibbonGalleryButton@CMFCVisualManager@@UAEXPAVCDC@@PAVCMFCRibbonGalleryIcon@@@Z 0045032d f   nafxcw:afxvisualmanager.obj
 0001:0004f356       ?OnDrawRibbonKeyTip@CMFCVisualManager@@UAEXPAVCDC@@PAVCMFCRibbonBaseElement@@VCRect@@V?$CStringT@DV?$StrTraitMFC@DV?$ChTraitsCRT@D@ATL@@@@@ATL@@@Z 00450356 f   nafxcw:afxvisualmanager.obj
 0001:0004f47a       ?OnDrawRibbonLabel@CMFCVisualManager@@UAEXPAVCDC@@PAVCMFCRibbonLabel@@VCRect@@@Z 0045047a f   nafxcw:afxvisualmanager.obj
 0001:0004f47a       ?OnFillTasksGroupInterior@CMFCVisualManager@@UAEXPAVCDC@@VCRect@@H@Z 0045047a f   nafxcw:afxvisualmanager.obj
 0001:0004f47a       ?DrawImage@CMFCRibbonBaseElement@@UAEXPAVCDC@@W4RibbonImageType@1@VCRect@@@Z 0045047a f   nafxcw:afxbaseribbonelement.obj
 0001:0004f47d       ?OnDrawRibbonLaunchButton@CMFCVisualManager@@UAEXPAVCDC@@PAVCMFCRibbonLaunchButton@@PAVCMFCRibbonPanel@@@Z 0045047d f   nafxcw:afxvisualmanager.obj
 0001:0004f543       ?OnDrawRibbonMainPanelButtonBorder@CMFCVisualManager@@UAEXPAVCDC@@PAVCMFCRibbonButton@@@Z 00450543 f   nafxcw:afxvisualmanager.obj
 0001:0004f54f       ?OnDrawRibbonMainPanelFrame@CMFCVisualManager@@UAEXPAVCDC@@PAVCMFCRibbonMainPanel@@VCRect@@@Z 0045054f f   nafxcw:afxvisualmanager.obj
 0001:0004f59f       ?OnDrawRibbonMenuCheckFrame@CMFCVisualManager@@UAEXPAVCDC@@PAVCMFCRibbonButton@@VCRect@@@Z 0045059f f   nafxcw:afxvisualmanager.obj
 0001:0004f5e3       ?OnDrawRibbonPanel@CMFCVisualManager@@UAEKPAVCDC@@PAVCMFCRibbonPanel@@VCRect@@2@Z 004505e3 f   nafxcw:afxvisualmanager.obj
 0001:0004f6d1       ?OnDrawRibbonPanelCaption@CMFCVisualManager@@UAEXPAVCDC@@PAVCMFCRibbonPanel@@VCRect@@@Z 004506d1 f   nafxcw:afxvisualmanager.obj
 0001:0004f7c8       ?OnDrawRibbonProgressBar@CMFCVisualManager@@UAEXPAVCDC@@PAVCMFCRibbonProgressBar@@VCRect@@2H@Z 004507c8 f   nafxcw:afxvisualmanager.obj
 0001:0004f883       ?OnDrawRibbonQuickAccessToolBarSeparator@CMFCVisualManager@@UAEXPAVCDC@@PAVCMFCRibbonSeparator@@VCRect@@@Z 00450883 f   nafxcw:afxvisualmanager.obj
 0001:0004f8ef       ?OnDrawRibbonRecentFilesFrame@CMFCVisualManager@@UAEXPAVCDC@@PAVCMFCRibbonMainPanel@@VCRect@@@Z 004508ef f   nafxcw:afxvisualmanager.obj
 0001:0004f963       ?OnDrawRibbonSliderChannel@CMFCVisualManager@@UAEXPAVCDC@@PAVCMFCRibbonSlider@@VCRect@@@Z 00450963 f   nafxcw:afxvisualmanager.obj
 0001:0004f9dd       ?OnDrawRibbonSliderThumb@CMFCVisualManager@@UAEXPAVCDC@@PAVCMFCRibbonSlider@@VCRect@@HHH@Z 004509dd f   nafxcw:afxvisualmanager.obj
 0001:0004fb40       ?OnDrawRibbonSliderZoomButton@CMFCVisualManager@@UAEXPAVCDC@@PAVCMFCRibbonSlider@@VCRect@@HHHH@Z 00450b40 f   nafxcw:afxvisualmanager.obj
 0001:0004fc92       ?OnDrawRibbonStatusBarPane@CMFCVisualManager@@UAEKPAVCDC@@PAVCMFCRibbonStatusBar@@PAVCMFCRibbonStatusBarPane@@@Z 00450c92 f   nafxcw:afxvisualmanager.obj
 0001:0004fd42       ?OnDrawRibbonTabsFrame@CMFCVisualManager@@UAEKPAVCDC@@PAVCMFCRibbonBar@@VCRect@@@Z 00450d42 f   nafxcw:afxvisualmanager.obj
 0001:0004fdcb       ?OnDrawScrollButtons@CMFCVisualManager@@UAEXPAVCDC@@ABVCRect@@HHH@Z 00450dcb f   nafxcw:afxvisualmanager.obj
 0001:0004fe8e       ?OnDrawSeparator@CMFCVisualManager@@UAEXPAVCDC@@PAVCBasePane@@VCRect@@H@Z 00450e8e f   nafxcw:afxvisualmanager.obj
 0001:0004ff3f       ?OnDrawShowAllMenuItems@CMFCVisualManager@@UAEXPAVCDC@@VCRect@@W4AFX_BUTTON_STATE@1@@Z 00450f3f f   nafxcw:afxvisualmanager.obj
 0001:0004ff66       ?OnDrawSpinButtons@CMFCVisualManager@@UAEXPAVCDC@@VCRect@@HHPAVCMFCSpinButtonCtrl@@@Z 00450f66 f   nafxcw:afxvisualmanager.obj
 0001:00050160       ?OnDrawSplitterBorder@CMFCVisualManager@@UAEXPAVCDC@@PAVCSplitterWndEx@@VCRect@@@Z 00451160 f   nafxcw:afxvisualmanager.obj
 0001:000501b0       ?OnDrawSplitterBox@CMFCVisualManager@@UAEXPAVCDC@@PAVCSplitterWndEx@@AAVCRect@@@Z 004511b0 f   nafxcw:afxvisualmanager.obj
 0001:000501d2       ?OnDrawStatusBarPaneBorder@CMFCVisualManager@@UAEXPAVCDC@@PAVCMFCStatusBar@@VCRect@@II@Z 004511d2 f   nafxcw:afxvisualmanager.obj
 0001:0005021c       ?OnDrawStatusBarProgress@CMFCVisualManager@@UAEXPAVCDC@@PAVCMFCStatusBar@@VCRect@@HHKKKH@Z 0045121c f   nafxcw:afxvisualmanager.obj
 0001:000503b2       ?OnDrawStatusBarSizeBox@CMFCVisualManager@@UAEXPAVCDC@@PAVCMFCStatusBar@@VCRect@@@Z 004513b2 f   nafxcw:afxvisualmanager.obj
 0001:0005045e       ?OnDrawTab@CMFCVisualManager@@UAEXPAVCDC@@VCRect@@HHPBVCMFCBaseTabCtrl@@@Z 0045145e f   nafxcw:afxvisualmanager.obj
 0001:00051616       ?OnDrawTabCloseButton@CMFCVisualManager@@UAEXPAVCDC@@VCRect@@PBVCMFCBaseTabCtrl@@HHH@Z 00452616 f   nafxcw:afxvisualmanager.obj
 0001:00051697       ?OnDrawTabContent@CMFCVisualManager@@UAEXPAVCDC@@VCRect@@HHPBVCMFCBaseTabCtrl@@K@Z 00452697 f   nafxcw:afxvisualmanager.obj
 0001:0005191a       ?OnDrawTabResizeBar@CMFCVisualManager@@UAEXPAVCDC@@PAVCMFCBaseTabCtrl@@HVCRect@@PAVCBrush@@PAVCPen@@@Z 0045291a f   nafxcw:afxvisualmanager.obj
 0001:00051985       ?OnDrawTabsButtonBorder@CMFCVisualManager@@UAEXPAVCDC@@AAVCRect@@PAVCMFCButton@@IPAVCMFCBaseTabCtrl@@@Z 00452985 f   nafxcw:afxvisualmanager.obj
 0001:000519ec       ?OnDrawTask@CMFCVisualManager@@UAEXPAVCDC@@PAVCMFCTasksPaneTask@@PAVCImageList@@HH@Z 004529ec f   nafxcw:afxvisualmanager.obj
 0001:00051c4d       ?OnDrawTasksGroupAreaBorder@CMFCVisualManager@@UAEXPAVCDC@@VCRect@@HH@Z 00452c4d f   nafxcw:afxvisualmanager.obj
 0001:00051ce7       ?OnDrawTasksGroupCaption@CMFCVisualManager@@UAEXPAVCDC@@PAVCMFCTasksPaneTaskGroup@@HHH@Z 00452ce7 f   nafxcw:afxvisualmanager.obj
 0001:00051ff6       ?OnDrawTasksGroupIcon@CMFCVisualManager@@UAEXPAVCDC@@PAVCMFCTasksPaneTaskGroup@@HHHH@Z 00452ff6 f   nafxcw:afxvisualmanager.obj
 0001:000520a1       ?OnDrawTearOffCaption@CMFCVisualManager@@UAEXPAVCDC@@VCRect@@H@Z 004530a1 f   nafxcw:afxvisualmanager.obj
 0001:000520fa       ?OnDrawToolBoxFrame@CMFCVisualManager@@UAEXPAVCDC@@ABVCRect@@@Z 004530fa f   nafxcw:afxvisualmanager.obj
 0001:0005211c       ?OnTouchInput@CWnd@@MAEHVCPoint@@HHPAUtagTOUCHINPUT@@@Z 0045311c f   nafxcw:wincore.obj
 0001:0005211c       ?OnEraseMDIClientArea@CMFCVisualManager@@UAEHPAVCDC@@VCRect@@@Z 0045311c f   nafxcw:afxvisualmanager.obj
 0001:00052121       ?OnErasePopupWindowButton@CMFCVisualManager@@UAEXPAVCDC@@VCRect@@PAVCMFCDesktopAlertWndButton@@@Z 00453121 f   nafxcw:afxvisualmanager.obj
 0001:000521d8       ?OnEraseTabsButton@CMFCVisualManager@@UAEXPAVCDC@@VCRect@@PAVCMFCButton@@PAVCMFCBaseTabCtrl@@@Z 004531d8 f   nafxcw:afxvisualmanager.obj
 0001:00052201       ?OnEraseTabsFrame@CMFCVisualManager@@UAEHPAVCDC@@VCRect@@PBVCMFCBaseTabCtrl@@@Z 00453201 f   nafxcw:afxvisualmanager.obj
 0001:0005223f       ?OnEraseTabsArea@CMFCVisualManager@@UAEXPAVCDC@@VCRect@@PBVCMFCBaseTabCtrl@@@Z 0045323f f   nafxcw:afxvisualmanager.obj
 0001:0005223f       ?OnFillAutoHideButtonBackground@CMFCVisualManager@@UAEXPAVCDC@@VCRect@@PAVCMFCAutoHideButton@@@Z 0045323f f   nafxcw:afxvisualmanager.obj
 0001:00052268       ?OnFillBarBackground@CMFCVisualManager@@UAEXPAVCDC@@PAVCBasePane@@VCRect@@2H@Z 00453268 f   nafxcw:afxvisualmanager.obj
 0001:000523c6       ?OnFillButtonInterior@CMFCVisualManager@@UAEXPAVCDC@@PAVCMFCToolBarButton@@VCRect@@W4AFX_BUTTON_STATE@1@@Z 004533c6 f   nafxcw:afxvisualmanager.obj
 0001:000524b6       ?OnFillCaptionBarButton@CMFCVisualManager@@UAEKPAVCDC@@PAVCMFCCaptionBar@@VCRect@@HHHHH@Z 004534b6 f   nafxcw:afxvisualmanager.obj
 0001:00052506       ?OnFillCommandsListBackground@CMFCVisualManager@@UAEKPAVCDC@@VCRect@@H@Z 00453506 f   nafxcw:afxvisualmanager.obj
 0001:000525e8       ?OnFillHeaderCtrlBackground@CMFCVisualManager@@UAEXPAVCMFCHeaderCtrl@@PAVCDC@@VCRect@@@Z 004535e8 f   nafxcw:afxvisualmanager.obj
 0001:0005262e       ?OnFillMenuImageRect@CMFCVisualManager@@UAEXPAVCDC@@PAVCMFCToolBarButton@@VCRect@@W4AFX_BUTTON_STATE@1@@Z 0045362e f i nafxcw:afxvisualmanager.obj
 0001:00052656       ?OnFillMiniFrameCaption@CMFCVisualManager@@UAEKPAVCDC@@VCRect@@PAVCPaneFrameWnd@@H@Z 00453656 f   nafxcw:afxvisualmanager.obj
 0001:000526eb       ?OnFillOutlookBarCaption@CMFCVisualManager@@UAEXPAVCDC@@VCRect@@AAK@Z 004536eb f   nafxcw:afxvisualmanager.obj
 0001:00052719       ?OnFillOutlookPageButton@CMFCVisualManager@@UAEXPAVCDC@@ABVCRect@@HHAAK@Z 00453719 f   nafxcw:afxvisualmanager.obj
 0001:00052743       ?OnFillPopupWindowBackground@CMFCVisualManager@@UAEXPAVCDC@@VCRect@@@Z 00453743 f   nafxcw:afxvisualmanager.obj
 0001:0005276c       ?OnFillRibbonButton@CMFCVisualManager@@UAEKPAVCDC@@PAVCMFCRibbonButton@@@Z 0045376c f   nafxcw:afxvisualmanager.obj
 0001:00052966       ?OnFillRibbonEdit@CMFCVisualManager@@UAEXPAVCDC@@PAVCMFCRibbonRichEditCtrl@@VCRect@@HHHAAK33@Z 00453966 f   nafxcw:afxvisualmanager.obj
 0001:00052a52       ?OnFillRibbonMainPanelButton@CMFCVisualManager@@UAEKPAVCDC@@PAVCMFCRibbonButton@@@Z 00453a52 f   nafxcw:afxvisualmanager.obj
 0001:00052a5e       ?OnFillRibbonMenuFrame@CMFCVisualManager@@UAEXPAVCDC@@PAVCMFCRibbonMainPanel@@VCRect@@@Z 00453a5e f   nafxcw:afxvisualmanager.obj
 0001:00052a87       ?OnFillRibbonQuickAccessToolBarPopup@CMFCVisualManager@@UAEXPAVCDC@@PAVCMFCRibbonPanelMenuBar@@VCRect@@@Z 00453a87 f   nafxcw:afxvisualmanager.obj
 0001:00052ab0       ?OnFillSplitterBackground@CMFCVisualManager@@UAEXPAVCDC@@PAVCSplitterWndEx@@VCRect@@@Z 00453ab0 f   nafxcw:afxvisualmanager.obj
 0001:00052acf       ?OnFillTab@CMFCVisualManager@@UAEXPAVCDC@@VCRect@@PAVCBrush@@HHPBVCMFCBaseTabCtrl@@@Z 00453acf f   nafxcw:afxvisualmanager.obj
 0001:00052b61       ?OnFillTasksPaneBackground@CMFCVisualManager@@UAEXPAVCDC@@VCRect@@@Z 00453b61 f   nafxcw:afxvisualmanager.obj
 0001:00052b8a       ?OnFillToolTip@CMFCVisualManager@@UAEXPAVCDC@@PAVCMFCToolTipCtrl@@VCRect@@AAK3@Z 00453b8a f   nafxcw:afxvisualmanager.obj
 0001:00052c08       ?OnHighlightMenuItem@CMFCVisualManager@@UAEXPAVCDC@@PAVCMFCToolBarMenuButton@@VCRect@@AAK@Z 00453c08 f   nafxcw:afxvisualmanager.obj
 0001:00052c31       ?OnHighlightRarelyUsedMenuItems@CMFCVisualManager@@UAEXPAVCDC@@VCRect@@@Z 00453c31 f   nafxcw:afxvisualmanager.obj
 0001:00052c98       ?FloatPane@CBasePane@@UAEHVCRect@@W4AFX_DOCK_METHOD@@_N@Z 00453c98 f   nafxcw:afxdocksite.obj
 0001:00052c98       ?OnNcPaint@CMFCVisualManager@@UAEHPAVCWnd@@ABVCObList@@VCRect@@@Z 00453c98 f   nafxcw:afxvisualmanager.obj
 0001:00052c98       ?DockToFrameWindow@CBasePane@@UAEHKPBUtagRECT@@KPAV1@HH@Z 00453c98 f   nafxcw:afxdocksite.obj
 0001:00052c98       ?DockToFrameWindow@CPane@@UAEHKPBUtagRECT@@KPAVCBasePane@@HH@Z 00453c98 f   nafxcw:afxcolorbar.obj
 0001:00052c9d       ?OnSetWindowRegion@CMFCVisualManager@@UAEHPAVCWnd@@VCSize@@@Z 00453c9d f   nafxcw:afxvisualmanager.obj
 0001:00052e41       ?RedrawAll@CMFCVisualManager@@SGXXZ 00453e41 f   nafxcw:afxvisualmanager.obj
 0001:00052efc       ?Remove@?$CStringT@DV?$StrTraitMFC@DV?$ChTraitsCRT@D@ATL@@@@@ATL@@QAEHD@Z 00453efc f i nafxcw:afxvisualmanager.obj
 0001:00052f7b       ?RibbonCategoryColorToRGB@CMFCVisualManager@@UAEKW4AFX_RibbonCategoryColor@@@Z 00453f7b f   nafxcw:afxvisualmanager.obj
 0001:00053035       ?Serialize@?$CList@UtagPOINT@@U1@@@UAEXAAVCArchive@@@Z 00454035 f i nafxcw:afxvisualmanager.obj
 0001:0005309e       ?SetDefaultManager@CMFCVisualManager@@SGXPAUCRuntimeClass@@@Z 0045409e f   nafxcw:afxvisualmanager.obj
 0001:00053114       ?StringLowercase@?$ChTraitsCRT@D@ATL@@SAPADPADI@Z 00454114 f i nafxcw:afxvisualmanager.obj
 0001:00053130       ?UpdateSystemColors@CMFCBaseVisualManager@@IAEXXZ 00454130 f   nafxcw:afxvisualmanager.obj
 0001:0005333e       _IsolationAwareImageList_GetIconSize@12 0045433e f i nafxcw:afxvisualmanager.obj
 0001:000533e9       ??0CDrawingManager@@QAE@AAVCDC@@@Z 004543e9 f   nafxcw:afxdrawmanager.obj
 0001:000533fe       ??1CDrawingManager@@UAE@XZ 004543fe f   nafxcw:afxdrawmanager.obj
 0001:00053405       ??_ECDrawingManager@@UAEPAXI@Z 00454405 f i nafxcw:afxdrawmanager.obj
 0001:00053405       ??_GCDrawingManager@@UAEPAXI@Z 00454405 f i nafxcw:afxdrawmanager.obj
 0001:00053486       ?CreateBitmap_32@CDrawingManager@@SGPAUHBITMAP__@@ABVCSize@@PAPAX@Z 00454486 f   nafxcw:afxdrawmanager.obj
 0001:0005352b       ?CreateBitmap_32@CDrawingManager@@SGPAUHBITMAP__@@PAU2@K@Z 0045452b f   nafxcw:afxdrawmanager.obj
 0001:000536b8       ?DrawAlpha@CDrawingManager@@QAEXPAVCDC@@ABVCRect@@01@Z 004546b8 f   nafxcw:afxdrawmanager.obj
 0001:00053701       ?DrawEllipse@CDrawingManager@@QAEXABVCRect@@KK@Z 00454701 f   nafxcw:afxdrawmanager.obj
 0001:00054247       ?DrawGradientRing@CDrawingManager@@QAEHVCRect@@KKKHHK@Z 00455247 f   nafxcw:afxdrawmanager.obj
 0001:00054a4b       ?DrawLine@CDrawingManager@@QAEXHHHHK@Z 00455a4b f   nafxcw:afxdrawmanager.obj
 0001:00054cd4       ?DrawRect@CDrawingManager@@QAEXABVCRect@@KK@Z 00455cd4 f   nafxcw:afxdrawmanager.obj
 0001:00054f9a       ?DrawShadow@CDrawingManager@@QAEHVCRect@@HHHPAVCBitmap@@1KH@Z 00455f9a f   nafxcw:afxdrawmanager.obj
 0001:0005545f       ?DrawState@CDC@@QAEHVCPoint@@VCSize@@PAVCBitmap@@IPAVCBrush@@@Z 0045645f f i nafxcw:afxdrawmanager.obj
 0001:000554a8       ?Fill4ColorsGradient@CDrawingManager@@QAEXVCRect@@KKKKHH@Z 004564a8 f   nafxcw:afxdrawmanager.obj
 0001:00055545       ?FillAlpha@CDrawingManager@@QAEXABVCRect@@E@Z 00456545 f   nafxcw:afxdrawmanager.obj
 0001:00055660       ?FillGradient2@CDrawingManager@@QAEXVCRect@@KKH@Z 00456660 f   nafxcw:afxdrawmanager.obj
 0001:00055a1c       ?FillGradient@CDrawingManager@@QAEXVCRect@@KKHHH@Z 00456a1c f   nafxcw:afxdrawmanager.obj
 0001:00055c03       ?GrayRect@CDrawingManager@@QAEHVCRect@@HKK@Z 00456c03 f   nafxcw:afxdrawmanager.obj
 0001:00055f1a       ?HLStoRGB_ONE@CDrawingManager@@SGKNNN@Z 00456f1a f   nafxcw:afxdrawmanager.obj
 0001:00056027       ?HLStoRGB_TWO@CDrawingManager@@SGKNNN@Z 00457027 f   nafxcw:afxdrawmanager.obj
 0001:0005613c       ?HSVtoRGB@CDrawingManager@@SGKNNN@Z 0045713c f   nafxcw:afxdrawmanager.obj
 0001:00056221       ?HighlightRect@CDrawingManager@@QAEHVCRect@@HKHK@Z 00457221 f   nafxcw:afxdrawmanager.obj
 0001:000566d5       ?HueToRGB@CDrawingManager@@SGEMMM@Z 004576d5 f   nafxcw:afxdrawmanager.obj
 0001:00056784       ?HuetoRGB@CDrawingManager@@SGNNNN@Z 00457784 f   nafxcw:afxdrawmanager.obj
 0001:00056823       ?MirrorRect@CDrawingManager@@QAEXVCRect@@H@Z 00457823 f   nafxcw:afxdrawmanager.obj
 0001:00056b2c       ?NormalizeRect@CRect@@QAEXXZ 00457b2c f i nafxcw:afxdrawmanager.obj
 0001:00056b4b       ?PixelAlpha@CDrawingManager@@SGKKH@Z 00457b4b f   nafxcw:afxdrawmanager.obj
 0001:00056bbc       ?PixelAlpha@CDrawingManager@@SGKKKH@Z 00457bbc f   nafxcw:afxdrawmanager.obj
 0001:00056c44       ?PixelAlpha@CDrawingManager@@SGKKNNN@Z 00457c44 f   nafxcw:afxdrawmanager.obj
 0001:00056ca2       ?PrepareShadowMask@CDrawingManager@@SGPAUHBITMAP__@@HKHH@Z 00457ca2 f   nafxcw:afxdrawmanager.obj
 0001:00056f42       ?RGBtoHSL@CDrawingManager@@SGXKPAN00@Z 00457f42 f   nafxcw:afxdrawmanager.obj
 0001:000570be       ?RGBtoHSV@CDrawingManager@@SGXKPAN00@Z 004580be f   nafxcw:afxdrawmanager.obj
 0001:00057212       ?SetAlphaPixel@CDrawingManager@@SGXPAKVCRect@@HHHHKH@Z 00458212 f i nafxcw:afxdrawmanager.obj
 0001:00057300       ?SetPixel@CDrawingManager@@SGXPAKHHHHK@Z 00458300 f   nafxcw:afxdrawmanager.obj
 0001:00057338       ?SmartMixColors@CDrawingManager@@SGKKKNHH@Z 00458338 f   nafxcw:afxdrawmanager.obj
 0001:00057495       ?_FillGradient@CDrawingManager@@IAEXVCRect@@KKHHH@Z 00458495 f   nafxcw:afxdrawmanager.obj
 0001:0005779a       ?sign@@YAHH@Z              0045879a f i nafxcw:afxdrawmanager.obj
 0001:000577b2       ?CreateToolTip@CTooltipManager@@SGHAAPAVCToolTipCtrl@@PAVCWnd@@I@Z 004587b2 f   nafxcw:afxtooltipmanager.obj
 0001:000578fb       ?CreateToolTipObject@CTooltipManager@@IAEHAAPAVCToolTipCtrl@@I@Z 004588fb f   nafxcw:afxtooltipmanager.obj
 0001:00057989       ?DeleteToolTip@CTooltipManager@@SGXAAPAVCToolTipCtrl@@@Z 00458989 f   nafxcw:afxtooltipmanager.obj
 0001:00057a00       ?RemoveAt@?$CList@PAVCFrameWnd@@PAV1@@@QAEXPAU__POSITION@@@Z 00458a00 f i nafxcw:afxframeimpl.obj
 0001:00057a00       ?RemoveAt@?$CList@IAAI@@QAEXPAU__POSITION@@@Z 00458a00 f i nafxcw:afxdockingmanager.obj
 0001:00057a00       ?RemoveAt@?$CList@PAUHWND__@@PAU1@@@QAEXPAU__POSITION@@@Z 00458a00 f i nafxcw:afxtooltipmanager.obj
 0001:00057a00       ?RemoveAt@?$CList@II@@QAEXPAU__POSITION@@@Z 00458a00 f i nafxcw:afxcommandmanager.obj
 0001:00057a00       ?RemoveAt@?$CList@PAUHWND__@@AAPAU1@@@QAEXPAU__POSITION@@@Z 00458a00 f i nafxcw:afxdockingmanager.obj
 0001:00057a39       ?SetTooltipText@CTooltipManager@@SGXPAUtagTOOLINFOA@@PAVCToolTipCtrl@@IV?$CStringT@DV?$StrTraitMFC@DV?$ChTraitsCRT@D@ATL@@@@@ATL@@PBD@Z 00458a39 f   nafxcw:afxtooltipmanager.obj
 0001:00057b78       ?UpdateTooltips@CTooltipManager@@QAEXXZ 00458b78 f   nafxcw:afxtooltipmanager.obj
 0001:00057baf       ?CreatePopupMenu@CMFCToolBarMenuButton@@UAEPAVCMFCPopupMenu@@XZ 00458baf f   nafxcw:afxtoolbarmenubutton.obj
 0001:00057baf       ?CreateObject@CMFCPopupMenu@@SGPAVCObject@@XZ 00458baf f   nafxcw:afxpopupmenu.obj
 0001:00057bdf       ??0CMFCPopupMenu@@IAE@PAVCMFCToolBarsMenuPropertyPage@@PBD@Z 00458bdf f   nafxcw:afxpopupmenu.obj
 0001:00057d4a       ??0CMFCPopupMenu@@QAE@XZ   00458d4a f   nafxcw:afxpopupmenu.obj
 0001:00057eb3       ??0CMFCShadowWnd@@AAE@PAVCMFCPopupMenu@@H@Z 00458eb3 f i nafxcw:afxpopupmenu.obj
 0001:00057f01       ??1CMFCPopupMenu@@UAE@XZ   00458f01 f   nafxcw:afxpopupmenu.obj
 0001:00058015       ??1CMFCShadowWnd@@EAE@XZ   00459015 f i nafxcw:afxpopupmenu.obj
 0001:0005804c       ??_ECMFCPopupMenu@@UAEPAXI@Z 0045904c f i nafxcw:afxpopupmenu.obj
 0001:0005804c       ??_GCMFCPopupMenu@@UAEPAXI@Z 0045904c f i nafxcw:afxpopupmenu.obj
 0001:0005806b       ??_GCMFCShadowWnd@@EAEPAXI@Z 0045906b f i nafxcw:afxpopupmenu.obj
 0001:0005806b       ??_ECMFCShadowWnd@@EAEPAXI@Z 0045906b f i nafxcw:afxpopupmenu.obj
 0001:0005808a       ?ActivatePopupMenu@CMFCPopupMenu@@SGHPAVCFrameWnd@@PAV1@@Z 0045908a f   nafxcw:afxpopupmenu.obj
 0001:000581eb       ?AdjustScroll@CMFCPopupMenu@@IAEHH@Z 004591eb f   nafxcw:afxpopupmenu.obj
 0001:000584b3       ?CheckArea@CMFCPopupMenu@@QBE?AW4MENUAREA_TYPE@1@ABVCPoint@@@Z 004594b3 f   nafxcw:afxpopupmenu.obj
 0001:000585f2       ?CloseMenu@CMFCPopupMenu@@QAEXH@Z 004595f2 f   nafxcw:afxpopupmenu.obj
 0001:00058692       ?CollapseSubmenus@CMFCPopupMenu@@IAEXXZ 00459692 f   nafxcw:afxpopupmenu.obj
 0001:000586df       ?Create@CMFCPopupMenu@@UAEHPAVCWnd@@HHPAUHMENU__@@HH@Z 004596df f   nafxcw:afxpopupmenu.obj
 0001:00058a48       ?Create@CMFCShadowWnd@@UAEHXZ 00459a48 f   nafxcw:afxpopupmenu.obj
 0001:00058b22       ?CreateTearOffBar@CMFCPopupMenu@@MAEPAVCPane@@PAVCFrameWnd@@IPBD@Z 00459b22 f   nafxcw:afxpopupmenu.obj
 0001:00058e4e       ?DoPaint@CMFCPopupMenu@@MAEXPAVCDC@@@Z 00459e4e f   nafxcw:afxpopupmenu.obj
 0001:00059333       ?DrawFade@CMFCPopupMenu@@MAEXPAVCDC@@@Z 0045a333 f   nafxcw:afxpopupmenu.obj
 0001:00059740       ?EnableResize@CMFCPopupMenu@@QAEXVCSize@@@Z 0045a740 f   nafxcw:afxpopupmenu.obj
 0001:00059784       ?EnableVertResize@CMFCPopupMenu@@QAEXH@Z 0045a784 f   nafxcw:afxpopupmenu.obj
 0001:000597a8       ?FindMenuWithConnectedFloaty@CMFCPopupMenu@@KGPAV1@XZ 0045a7a8 f   nafxcw:afxpopupmenu.obj
 0001:000597e8       ?GetAnimationType@CMFCPopupMenu@@SG?AW4ANIMATION_TYPE@1@H@Z 0045a7e8 f i nafxcw:afxpopupmenu.obj
 0001:00059826       ?GetBorderSize@CMFCPopupMenu@@MBEHXZ 0045a826 f   nafxcw:afxpopupmenu.obj
 0001:00059835       ?GetMenuBar@CMFCPopupMenu@@UAEPAVCMFCPopupMenuBar@@XZ 0045a835 f i nafxcw:afxpopupmenu.obj
 0001:0005983c       ?GetMenuItem@CMFCPopupMenu@@QBEPAVCMFCToolBarMenuButton@@H@Z 0045a83c f   nafxcw:afxpopupmenu.obj
 0001:0005984f       ?GetMenuItemCount@CMFCPopupMenu@@QBEHXZ 0045a84f f   nafxcw:afxpopupmenu.obj
 0001:0005985e       ?GetMessageMap@CMFCShadowWnd@@MBEPBUAFX_MSGMAP@@XZ 0045a85e f   nafxcw:afxpopupmenu.obj
 0001:00059864       ?GetNext@CPtrList@@QBEPBXAAPAU__POSITION@@@Z 0045a864 f i nafxcw:winocc.obj
 0001:00059864       ?GetNext@CObList@@QBEPBVCObject@@AAPAU__POSITION@@@Z 0045a864 f i nafxcw:afxpopupmenu.obj
 0001:00059881       ?GetParentArea@CMFCPopupMenu@@UAEPAVCWnd@@AAVCRect@@@Z 0045a881 f   nafxcw:afxpopupmenu.obj
 0001:000598dd       ?GetParentPopupMenu@CMFCPopupMenu@@QBEPAV1@XZ 0045a8dd f   nafxcw:afxpopupmenu.obj
 0001:00059927       ?GetParentToolBar@CMFCPopupMenu@@QBEPAVCMFCToolBar@@XZ 0045a927 f   nafxcw:afxpopupmenu.obj
 0001:00059942       ?GetRuntimeClass@CMFCPopupMenu@@UBEPAUCRuntimeClass@@XZ 0045a942 f   nafxcw:afxpopupmenu.obj
 0001:00059948       ?GetSafeActivePopupMenu@CMFCPopupMenu@@SGPAV1@XZ 0045a948 f   nafxcw:afxpopupmenu.obj
 0001:00059978       ?GetSelItem@CMFCPopupMenu@@QAEPAVCMFCToolBarMenuButton@@XZ 0045a978 f   nafxcw:afxpopupmenu.obj
 0001:00059995       ?GetThisMessageMap@CMFCPopupMenu@@KGPBUAFX_MSGMAP@@XZ 0045a995 f   nafxcw:afxpopupmenu.obj
 0001:00059995       ?GetMessageMap@CMFCPopupMenu@@MBEPBUAFX_MSGMAP@@XZ 0045a995 f   nafxcw:afxpopupmenu.obj
 0001:0005999b       ?HideRarelyUsedCommands@CMFCPopupMenu@@QBEHXZ 0045a99b f   nafxcw:afxpopupmenu.obj
 0001:000599a7       ?InitMenuBar@CMFCPopupMenu@@MAEHXZ 0045a9a7 f   nafxcw:afxpopupmenu.obj
 0001:00059f90       ?Initialize@CMFCPopupMenu@@IAEXXZ 0045af90 f   nafxcw:afxpopupmenu.obj
 0001:0005a1b3       ?InsertItem@CMFCPopupMenu@@QAEHABVCMFCToolBarMenuButton@@H@Z 0045b1b3 f   nafxcw:afxpopupmenu.obj
 0001:0005a1c9       ?InsertSeparator@CMFCPopupMenu@@QAEHH@Z 0045b1c9 f   nafxcw:afxpopupmenu.obj
 0001:0005a1df       ?IsScrollDnAvailable@CMFCPopupMenu@@MAEHXZ 0045b1df f   nafxcw:afxpopupmenu.obj
 0001:0005a259       ?IsScrollUpAvailable@CMFCPopupMenu@@MAEHXZ 0045b259 f   nafxcw:afxpopupmenu.obj
 0001:0005a26f       ?IsShowAllCommands@CMFCMenuBar@@SGHXZ 0045b26f f i nafxcw:afxpopupmenu.obj
 0001:0005a296       ?IsStandardCommand@@YAHI@Z 0045b296 f i nafxcw:afxpopupmenu.obj
 0001:0005a2e5       ?NotifyParentDlg@CMFCPopupMenu@@IAEHH@Z 0045b2e5 f   nafxcw:afxpopupmenu.obj
 0001:0005a364       ?OnActivateApp@CMFCPopupMenu@@IAEXHK@Z 0045b364 f   nafxcw:afxpopupmenu.obj
 0001:0005a3a9       ?OnCmdMsg@CMFCPopupMenu@@UAEHIHPAXPAUAFX_CMDHANDLERINFO@@@Z 0045b3a9 f   nafxcw:afxpopupmenu.obj
 0001:0005a3e1       ?OnCreate@CMFCPopupMenu@@IAEHPAUtagCREATESTRUCTA@@@Z 0045b3e1 f   nafxcw:afxpopupmenu.obj
 0001:0005a547       ?OnDestroy@CMFCPopupMenu@@IAEXXZ 0045b547 f   nafxcw:afxpopupmenu.obj
 0001:0005a83d       ?OnKeyDown@CMFCPopupMenu@@IAEXIII@Z 0045b83d f   nafxcw:afxpopupmenu.obj
 0001:0005abdd       ?OnLButtonDown@CMFCPopupMenu@@IAEXIVCPoint@@@Z 0045bbdd f   nafxcw:afxpopupmenu.obj
 0001:0005ac3e       ?OnLButtonUp@CMFCPopupMenu@@IAEXIVCPoint@@@Z 0045bc3e f   nafxcw:afxpopupmenu.obj
 0001:0005ac7b       ?OnMouseActivate@CMFCRibbonKeyTip@@IAEHPAVCWnd@@II@Z 0045bc7b f   nafxcw:afxribbonkeytip.obj
 0001:0005ac7b       ?OnMouseActivate@CMFCDropDownFrame@@IAEHPAVCWnd@@II@Z 0045bc7b f   nafxcw:afxdropdowntoolbar.obj
 0001:0005ac7b       ?OnMouseActivate@CMFCPopupMenu@@IAEHPAVCWnd@@II@Z 0045bc7b f   nafxcw:afxpopupmenu.obj
 0001:0005ac81       ?OnMouseMove@CMFCPopupMenu@@IAEXIVCPoint@@@Z 0045bc81 f   nafxcw:afxpopupmenu.obj
 0001:0005ad7e       ?OnMouseWheel@CMFCPopupMenu@@IAEHIFVCPoint@@@Z 0045bd7e f   nafxcw:afxpopupmenu.obj
 0001:0005addc       ?OnNcHitTest@CMFCPopupMenu@@IAEJVCPoint@@@Z 0045bddc f   nafxcw:afxpopupmenu.obj
 0001:0005aebf       ?OnNcLButtonDown@CMFCPopupMenu@@IAEXIVCPoint@@@Z 0045bebf f   nafxcw:afxpopupmenu.obj
 0001:0005aeff       ?OnNotify@CMFCPopupMenu@@MAEHIJPAJ@Z 0045beff f   nafxcw:afxpopupmenu.obj
 0001:0005af67       ?OnPaint@CMFCPopupMenu@@IAEXXZ 0045bf67 f   nafxcw:afxpopupmenu.obj
 0001:0005afc4       ?OnSetCursor@CMFCPopupMenu@@IAEHPAVCWnd@@II@Z 0045bfc4 f   nafxcw:afxpopupmenu.obj
 0001:0005b05c       ?OnShowWindow@CMFCPopupMenu@@IAEXHI@Z 0045c05c f   nafxcw:afxpopupmenu.obj
 0001:0005b079       ?CharToItem@CListBox@@UAEHII@Z 0045c079 f i nafxcw:winctrl1.obj
 0001:0005b079       ?VKeyToItem@CListBox@@UAEHII@Z 0045c079 f i nafxcw:winctrl1.obj
 0001:0005b079       ?OnShowWindow@CWnd@@IAEXHI@Z 0045c079 f i nafxcw:afxpopupmenu.obj
 0001:0005b079       ?OnSizing@CMultiPaneFrameWnd@@IAEXIPAUtagRECT@@@Z 0045c079 f i nafxcw:afxmultipaneframewnd.obj
 0001:0005b081       ?OnSize@CMFCPopupMenu@@IAEXIHH@Z 0045c081 f   nafxcw:afxpopupmenu.obj
 0001:0005b17e       ?OnSize@CMFCShadowWnd@@IAEXIHH@Z 0045c17e f   nafxcw:afxpopupmenu.obj
 0001:0005b2cd       ?OnTimer@CMFCPopupMenu@@IAEXI@Z 0045c2cd f   nafxcw:afxpopupmenu.obj
 0001:0005b570       ?OnVScroll@CMFCPopupMenu@@IAEXIIPAVCScrollBar@@@Z 0045c570 f   nafxcw:afxpopupmenu.obj
 0001:0005b6e8       ?OnWindowPosChanged@CMFCPopupMenu@@IAEXPAUtagWINDOWPOS@@@Z 0045c6e8 f   nafxcw:afxpopupmenu.obj
 0001:0005b731       ?PostCommand@CMFCPopupMenu@@QAEHI@Z 0045c731 f   nafxcw:afxpopupmenu.obj
 0001:0005b773       ?PostNcDestroy@CMFCPopupMenu@@MAEXXZ 0045c773 f   nafxcw:afxpopupmenu.obj
 0001:0005b79f       ?PreTranslateMessage@CMFCPopupMenu@@UAEHPAUtagMSG@@@Z 0045c79f f   nafxcw:afxpopupmenu.obj
 0001:0005b86e       ?RecalcLayout@CMFCPopupMenu@@UAEXH@Z 0045c86e f   nafxcw:afxpopupmenu.obj
 0001:0005c770       ?RemoveAllItems@CMFCPopupMenu@@QAEXXZ 0045d770 f   nafxcw:afxpopupmenu.obj
 0001:0005c782       ?RemoveItem@CMFCPopupMenu@@QAEHH@Z 0045d782 f   nafxcw:afxpopupmenu.obj
 0001:0005c798       ?Repos@CMFCShadowWnd@@AAEXXZ 0045d798 f   nafxcw:afxpopupmenu.obj
 0001:0005c894       ?SaveState@CMFCPopupMenu@@UAEXXZ 0045d894 f   nafxcw:afxpopupmenu.obj
 0001:0005c901       ?SetOffset@CMFCPopupMenuBar@@QAEXH@Z 0045d901 f i nafxcw:afxpopupmenu.obj
 0001:0005c921       ?SetParentRibbonElement@CMFCPopupMenu@@QAEXPAVCMFCRibbonBaseElement@@@Z 0045d921 f   nafxcw:afxpopupmenu.obj
 0001:0005c937       ?SetQuickMode@CMFCPopupMenu@@QAEXXZ 0045d937 f   nafxcw:afxpopupmenu.obj
 0001:0005c957       ?SetScrollBar@CMFCPopupMenu@@IAEXXZ 0045d957 f   nafxcw:afxpopupmenu.obj
 0001:0005cb76       ?ShowAllCommands@CMFCPopupMenu@@QAEXXZ 0045db76 f   nafxcw:afxpopupmenu.obj
 0001:0005cc70       ?StartResize@CMFCPopupMenu@@IAEHXZ 0045dc70 f   nafxcw:afxpopupmenu.obj
 0001:0005cfa5       ?TearOff@CMFCPopupMenu@@MAEHVCPoint@@@Z 0045dfa5 f   nafxcw:afxpopupmenu.obj
 0001:0005d2bf       ?TriggerResize@CMFCPopupMenu@@QAEXXZ 0045e2bf f   nafxcw:afxpopupmenu.obj
 0001:0005d321       ?UpdateAllShadows@CMFCPopupMenu@@SGXPAUtagRECT@@@Z 0045e321 f   nafxcw:afxpopupmenu.obj
 0001:0005d356       ?UpdateBottomWindows@CMFCPopupMenu@@IAEXH@Z 0045e356 f   nafxcw:afxpopupmenu.obj
 0001:0005d47d       ?UpdateShadow@CMFCPopupMenu@@QAEXPAUtagRECT@@@Z 0045e47d f   nafxcw:afxpopupmenu.obj
 0001:0005d884       ?get_accChild@CMFCPopupMenu@@MAEJUtagVARIANT@@PAPAUIDispatch@@@Z 0045e884 f   nafxcw:afxpopupmenu.obj
 0001:0005d8d5       ?get_accChildCount@CMFCPopupMenu@@MAEJPAJ@Z 0045e8d5 f   nafxcw:afxpopupmenu.obj
 0001:0005d90b       ?get_accName@CMFCPopupMenu@@MAEJUtagVARIANT@@PAPA_W@Z 0045e90b f   nafxcw:afxpopupmenu.obj
 0001:0005d9c0       ?get_accParent@CMFCPopupMenu@@MAEJPAPAUIDispatch@@@Z 0045e9c0 f   nafxcw:afxpopupmenu.obj
 0001:0005da12       ?get_accRole@CMFCPopupMenu@@MAEJUtagVARIANT@@PAU2@@Z 0045ea12 f   nafxcw:afxpopupmenu.obj
 0001:0005da70       ?get_accState@CMFCPopupMenu@@MAEJUtagVARIANT@@PAU2@@Z 0045ea70 f   nafxcw:afxpopupmenu.obj
 0001:0005dace       ?CreateObject@CMiniFrameWnd@@SGPAVCObject@@XZ 0045eace f   nafxcw:winmini.obj
 0001:0005dafe       ??0CMiniFrameWnd@@QAE@XZ   0045eafe f   nafxcw:winmini.obj
 0001:0005db28       ??1CMiniFrameWnd@@UAE@XZ   0045eb28 f   nafxcw:winmini.obj
 0001:0005db6a       ??_GCMiniFrameWnd@@UAEPAXI@Z 0045eb6a f i nafxcw:winmini.obj
 0001:0005db6a       ??_ECMiniFrameWnd@@UAEPAXI@Z 0045eb6a f i nafxcw:winmini.obj
 0001:0005db89       ?Create@CMiniFrameWnd@@UAEHPBD0KABUtagRECT@@PAVCWnd@@I@Z 0045eb89 f   nafxcw:winmini.obj
 0001:0005dba9       ?CreateEx@CMiniFrameWnd@@UAEHKPBD0KABUtagRECT@@PAVCWnd@@I@Z 0045eba9 f   nafxcw:winmini.obj
 0001:0005dc1c       ?GetRuntimeClass@CMiniFrameWnd@@UBEPAUCRuntimeClass@@XZ 0045ec1c f   nafxcw:winmini.obj
 0001:0005dc22       ?GetThisMessageMap@CMiniFrameWnd@@KGPBUAFX_MSGMAP@@XZ 0045ec22 f   nafxcw:winmini.obj
 0001:0005dc22       ?GetMessageMap@CMiniFrameWnd@@MBEPBUAFX_MSGMAP@@XZ 0045ec22 f   nafxcw:winmini.obj
 0001:0005dc28       ?OnFloatStatus@CPaneFrameWnd@@IAEJIJ@Z 0045ec28 f   nafxcw:afxpaneframewnd.obj
 0001:0005dc28       ?OnFloatStatus@CMiniFrameWnd@@QAEJIJ@Z 0045ec28 f   nafxcw:winmini.obj
 0001:0005dcd5       ?OnGetMinMaxInfo@CMiniFrameWnd@@QAEXPAUtagMINMAXINFO@@@Z 0045ecd5 f   nafxcw:winmini.obj
 0001:0005dd4f       ?OnNcActivate@CMiniFrameWnd@@QAEHH@Z 0045ed4f f   nafxcw:winmini.obj
 0001:0005dd7c       ?OnNcCreate@CPaneFrameWnd@@IAEHPAUtagCREATESTRUCTA@@@Z 0045ed7c f   nafxcw:afxpaneframewnd.obj
 0001:0005dd7c       ?OnNcCreate@CMiniFrameWnd@@QAEHPAUtagCREATESTRUCTA@@@Z 0045ed7c f   nafxcw:winmini.obj
 0001:0005de19       ?OnNcHitTest@CMiniFrameWnd@@QAEJVCPoint@@@Z 0045ee19 f   nafxcw:winmini.obj
 0001:0005df3f       ?OnQueryCenterWnd@CMiniFrameWnd@@QAEJIJ@Z 0045ef3f f   nafxcw:winmini.obj
 0001:0005df65       ?OnSysCommand@CMiniFrameWnd@@QAEXIJ@Z 0045ef65 f   nafxcw:winmini.obj
 0001:0005dfce       ?PreCreateWindow@CMiniFrameWnd@@MAEHAAUtagCREATESTRUCTA@@@Z 0045efce f   nafxcw:winmini.obj
 0001:0005e00c       ?CreateObject@CMFCToolBarColorButton@@SGPAVCObject@@XZ 0045f00c f   nafxcw:afxcolorbar.obj
 0001:0005e043       ?CreateObject@CMFCColorBar@@SGPAVCObject@@XZ 0045f043 f   nafxcw:afxcolorbar.obj
 0001:0005e073       ??0CMFCColorBar@@IAE@AAV0@I@Z 0045f073 f   nafxcw:afxcolorbar.obj
 0001:0005e23a       ??0CMFCColorBar@@IAE@ABV?$CArray@KK@@KPBD11AAV?$CList@KK@@HHHKIPAVCMFCColorButton@@@Z 0045f23a f   nafxcw:afxcolorbar.obj
 0001:0005e3e4       ??0CMFCColorBar@@QAE@XZ    0045f3e4 f   nafxcw:afxcolorbar.obj
 0001:0005e4ed       ??0CMFCColorBarCmdUI@@QAE@XZ 0045f4ed f   nafxcw:afxcolorbar.obj
 0001:0005e506       ??0CMFCToolBarColorButton@@IAE@KHHPBDHHH@Z 0045f506 f i nafxcw:afxcolorbar.obj
 0001:0005e584       ??0CMFCToolBarColorButton@@IAE@PBDH@Z 0045f584 f i nafxcw:afxcolorbar.obj
 0001:0005e5f2       ??1CMFCColorBar@@UAE@XZ    0045f5f2 f   nafxcw:afxcolorbar.obj
 0001:0005e67c       ??A?$CMap@PAVCDocument@@PAV1@V?$CStringT@DV?$StrTraitMFC@DV?$ChTraitsCRT@D@ATL@@@@@ATL@@PBD@@QAEAAV?$CStringT@DV?$StrTraitMFC@DV?$ChTraitsCRT@D@ATL@@@@@ATL@@PAVCDocument@@@Z 0045f67c f i nafxcw:afxdatarecovery.obj
 0001:0005e67c       ??A?$CMap@KKV?$CStringT@DV?$StrTraitMFC@DV?$ChTraitsCRT@D@ATL@@@@@ATL@@PBD@@QAEAAV?$CStringT@DV?$StrTraitMFC@DV?$ChTraitsCRT@D@ATL@@@@@ATL@@K@Z 0045f67c f i nafxcw:afxcolorbar.obj
 0001:0005e6e5       ??_E?$CMap@KKV?$CStringT@DV?$StrTraitMFC@DV?$ChTraitsCRT@D@ATL@@@@@ATL@@PBD@@UAEPAXI@Z 0045f6e5 f i nafxcw:afxcolorbar.obj
 0001:0005e6e5       ??_G?$CMap@KKV?$CStringT@DV?$StrTraitMFC@DV?$ChTraitsCRT@D@ATL@@@@@ATL@@PBD@@UAEPAXI@Z 0045f6e5 f i nafxcw:afxcolorbar.obj
 0001:0005e70a       ??_ECMFCColorBar@@UAEPAXI@Z 0045f70a f i nafxcw:afxcolorbar.obj
 0001:0005e70a       ??_GCMFCColorBar@@UAEPAXI@Z 0045f70a f i nafxcw:afxcolorbar.obj
 0001:0005e729       ?AdjustLocations@CMFCColorBar@@MAEXXZ 0045f729 f   nafxcw:afxcolorbar.obj
 0001:0005eabf       ?AllowSelectDisabled@CMFCPopupMenuBar@@MBEHXZ 0045fabf f i nafxcw:afxcolorbar.obj
 0001:0005eac5       ?CalcSize@CMFCColorBar@@MAE?AVCSize@@H@Z 0045fac5 f   nafxcw:afxcolorbar.obj
 0001:0005eb1a       ?CanAutoHide@CBasePane@@UBEHXZ 0045fb1a f i nafxcw:afxcolorbar.obj
 0001:0005eb24       ?CanBeClosed@CMFCToolBar@@UBEHXZ 0045fb24 f i nafxcw:afxcolorbar.obj
 0001:0005eb30       ?CanBeDocked@CPane@@UBEHPAVCBasePane@@@Z 0045fb30 f i nafxcw:afxcolorbar.obj
 0001:0005eb5e       ?CanBeResized@CBasePane@@UBEHXZ 0045fb5e f i nafxcw:afxcolorbar.obj
 0001:0005eb68       ?ContextToSize@CMFCColorBar@@QAEXHH@Z 0045fb68 f   nafxcw:afxcolorbar.obj
 0001:0005ed3b       ?Create@CMFCColorBar@@UAEHPAVCWnd@@KIPAVCPalette@@HHH@Z 0045fd3b f   nafxcw:afxcolorbar.obj
 0001:0005ed89       ?CreateControl@CMFCColorBar@@UAEHPAVCWnd@@ABVCRect@@IHPAVCPalette@@@Z 0045fd89 f   nafxcw:afxcolorbar.obj
 0001:0005eedd       ?CreatePalette@CMFCColorBar@@KGHABV?$CArray@KK@@AAVCPalette@@@Z 0045fedd f   nafxcw:afxcolorbar.obj
 0001:0005eff2       ?DoPaint@CMFCColorBar@@MAEXPAVCDC@@@Z 0045fff2 f   nafxcw:afxcolorbar.obj
 0001:0005f022       ?DockPaneStandard@CPane@@UAEPAV1@AAH@Z 00460022 f i nafxcw:afxcolorbar.obj
 0001:0005f031       ?DoesAllowDynInsertBefore@CBasePane@@UBEHXZ 00460031 f i nafxcw:afxcolorbar.obj
 0001:0005f031       ??_9COleIPFrameWnd@@$BBMI@AE 00460031 f i nafxcw:oleipfrm.obj
 0001:0005f031       ?AllowDestroyEmptyTabbedPane@CMFCOutlookBar@@UBEHXZ 00460031 f i nafxcw:afxoutlookbar.obj
 0001:0005f039       ?DoesAllowSiblingBars@CPane@@UBEHXZ 00460039 f i nafxcw:afxcolorbar.obj
 0001:0005f045       ?GetAt@?$CArray@HH@@QBEABHH@Z 00460045 f i nafxcw:afxvisualmanager.obj
 0001:0005f045       ?GetAt@?$CArray@PAVCMFCRibbonBaseElement@@PAV1@@@QBEABQAVCMFCRibbonBaseElement@@H@Z 00460045 f i nafxcw:afxbaseribbonelement.obj
 0001:0005f045       ?ElementAt@?$CArray@PAVCMFCRibbonPanel@@PAV1@@@QAEAAPAVCMFCRibbonPanel@@H@Z 00460045 f i nafxcw:afxribboncategory.obj
 0001:0005f045       ?ElementAt@?$CArray@PAVCMFCRibbonCategory@@PAV1@@@QAEAAPAVCMFCRibbonCategory@@H@Z 00460045 f i nafxcw:afxribbonbar.obj
 0001:0005f045       ?GetAt@?$CArray@PAVCMFCRibbonPanel@@PAV1@@@QBEABQAVCMFCRibbonPanel@@H@Z 00460045 f i nafxcw:afxribboncategory.obj
 0001:0005f045       ?ElementAt@CStringArray@@QAEAAV?$CStringT@DV?$StrTraitMFC@DV?$ChTraitsCRT@D@ATL@@@@@ATL@@H@Z 00460045 f i nafxcw:afxtagmanager.obj
 0001:0005f045       ?GetAt@?$CArray@KK@@QBEABKH@Z 00460045 f i nafxcw:afxcolorbar.obj
 0001:0005f045       ?GetAt@CStringArray@@QBEABV?$CStringT@DV?$StrTraitMFC@DV?$ChTraitsCRT@D@ATL@@@@@ATL@@H@Z 00460045 f i nafxcw:array_s.obj
 0001:0005f045       ?ElementAt@?$CArray@PAVCMFCVisualManagerBitmapCacheItem@CMFCVisualManagerBitmapCache@@PAV12@@@QAEAAPAVCMFCVisualManagerBitmapCacheItem@CMFCVisualManagerBitmapCache@@H@Z 00460045 f i nafxcw:afxvisualmanageroffice2007.obj
 0001:0005f045       ?GetAt@?$CArray@W4LoadArrayObjType@CArchive@@ABW412@@@QAEAAW4LoadArrayObjType@CArchive@@H@Z 00460045 f i nafxcw:arcobj.obj
 0001:0005f045       ?ElementAt@CObArray@@QAEAAPAVCObject@@H@Z 00460045 f i nafxcw:afxctrlcontainer.obj
 0001:0005f045       ?ElementAt@?$CArray@JJ@@QAEAAJH@Z 00460045 f i nafxcw:afxribboncolorbutton.obj
 0001:0005f045       ?GetAt@?$CArray@HH@@QAEAAHH@Z 00460045 f i nafxcw:afxtoolbarslistcheckbox.obj
 0001:0005f045       ?ElementAt@?$CArray@PAVCMFCRibbonKeyTip@@PAV1@@@QAEAAPAVCMFCRibbonKeyTip@@H@Z 00460045 f i nafxcw:afxribbonbar.obj
 0001:0005f045       ?ElementAt@CPtrArray@@QAEAAPAXH@Z 00460045 f i nafxcw:bardock.obj
 0001:0005f045       ?GetAt@?$CArray@PAVCMFCRibbonContextCaption@@PAV1@@@QBEABQAVCMFCRibbonContextCaption@@H@Z 00460045 f i nafxcw:afxribbonbar.obj
 0001:0005f045       ?ElementAt@?$CArray@KK@@QAEAAKH@Z 00460045 f i nafxcw:afxcolorbar.obj
 0001:0005f045       ?ElementAt@?$CArray@HH@@QAEAAHH@Z 00460045 f i nafxcw:afxribbonbutton.obj
 0001:0005f045       ?ElementAt@CUIntArray@@QAEAAIH@Z 00460045 f i nafxcw:afxpopupmenubar.obj
 0001:0005f045       ?ElementAt@?$CArray@PAVCMFCRibbonBaseElement@@PAV1@@@QAEAAPAVCMFCRibbonBaseElement@@H@Z 00460045 f i nafxcw:afxribbonbutton.obj
 0001:0005f045       ?GetAt@?$CArray@PAVCMFCRibbonCategory@@PAV1@@@QBEABQAVCMFCRibbonCategory@@H@Z 00460045 f i nafxcw:afxribbonbar.obj
 0001:0005f064       ?Enable@CMFCColorBarCmdUI@@UAEXH@Z 00460064 f   nafxcw:afxcolorbar.obj
 0001:0005f064       ?Enable@CTestCmdUI@@UAEXH@Z 00460064 f   nafxcw:wincore.obj
 0001:0005f078       ?EnableOtherButton@CMFCColorBar@@QAEXPBDHH@Z 00460078 f   nafxcw:afxcolorbar.obj
 0001:0005f0c3       ?EnableWindow@CMFCToolBarButton@@UAEXH@Z 004600c3 f i nafxcw:afxcolorbar.obj
 0001:0005f0e8       ?GetButtonSize@CMFCToolBar@@QBE?AVCSize@@XZ 004600e8 f i nafxcw:afxcolorbar.obj
 0001:0005f161       ?GetColorGridSize@CMFCColorBar@@IBE?AVCSize@@H@Z 00460161 f   nafxcw:afxcolorbar.obj
 0001:0005f20b       ?GetColumnWidth@CMFCToolBar@@UBEHXZ 0046020b f i nafxcw:afxcolorbar.obj
 0001:0005f238       ?GetControlBarStyle@CBasePane@@UBEKXZ 00460238 f i nafxcw:afxcolorbar.obj
 0001:0005f238       ?GetOccDialogInfo@CDialog@@MAEPAU_AFX_OCC_DIALOG_INFO@@XZ 00460238 f i nafxcw:dlgcore.obj
 0001:0005f23f       ?GetCurrentMenuImageSize@CMFCPopupMenuBar@@UBE?AVCSize@@XZ 0046023f f i nafxcw:afxcolorbar.obj
 0001:0005f26e       ?GetEnabledAlignment@CBasePane@@UBEKXZ 0046026e f i nafxcw:afxcolorbar.obj
 0001:0005f275       ?GetExclusiveRowMode@CPane@@UBEHXZ 00460275 f i nafxcw:afxcolorbar.obj
 0001:0005f27c       ?GetExtraHeight@CMFCColorBar@@IBEHH@Z 0046027c f   nafxcw:afxcolorbar.obj
 0001:0005f316       ?GetInvalidateRect@CMFCToolBarButton@@UBE?BVCRect@@XZ 00460316 f i nafxcw:afxcolorbar.obj
 0001:0005f32d       ?GetLockedImageSize@CMFCToolBar@@QBE?AVCSize@@XZ 0046032d f i nafxcw:afxcolorbar.obj
 0001:0005f358       ?GetMessageMap@CMFCColorBar@@MBEPBUAFX_MSGMAP@@XZ 00460358 f   nafxcw:afxcolorbar.obj
 0001:0005f35e       ?GetMinSize@CMFCBaseToolBar@@UBEXAAVCSize@@@Z 0046035e f i nafxcw:afxcolorbar.obj
 0001:0005f390       ?GetPaneIcon@CBasePane@@UAEPAUHICON__@@H@Z 00460390 f i nafxcw:afxcolorbar.obj
 0001:0005f3a7       ?GetPaneStyle@CBasePane@@UBEKXZ 004603a7 f i nafxcw:afxcolorbar.obj
 0001:0005f3ae       ?GetParentDockSite@CBasePane@@UBEPAVCDockSite@@XZ 004603ae f i nafxcw:afxcolorbar.obj
 0001:0005f3b5       ?GetRecentVisibleState@CBasePane@@UBEHXZ 004603b5 f i nafxcw:afxcolorbar.obj
 0001:0005f3b9       ?GetRuntimeClass@CMFCColorBar@@UBEPAUCRuntimeClass@@XZ 004603b9 f   nafxcw:afxcolorbar.obj
 0001:0005f3bf       ?GetRuntimeClass@CMFCToolBarColorButton@@UBEPAUCRuntimeClass@@XZ 004603bf f   nafxcw:afxcolorbar.obj
 0001:0005f3c5       ?HasFocus@CMFCToolBarButton@@UBEHXZ 004603c5 f i nafxcw:afxcolorbar.obj
 0001:0005f3f6       ?InitColors@CMFCColorBar@@KGHPAVCPalette@@AAV?$CArray@KK@@@Z 004603f6 f   nafxcw:afxcolorbar.obj
 0001:0005f482       ?IsDragMode@CPane@@UBEHXZ  00460482 f i nafxcw:afxcolorbar.obj
 0001:0005f489       ?IsEditable@CMFCToolBarButton@@UBEHXZ 00460489 f i nafxcw:afxcolorbar.obj
 0001:0005f4b1       ?IsExtraSize@CMFCToolBarButton@@UBEHXZ 004604b1 f i nafxcw:afxcolorbar.obj
 0001:0005f4b5       ?IsFloating@CMFCToolBar@@UBEHXZ 004604b5 f i nafxcw:afxcolorbar.obj
 0001:0005f4bc       ?IsHorizontal@CBasePane@@UBEHXZ 004604bc f i nafxcw:afxcolorbar.obj
 0001:0005f4ca       ?IsOwnerOf@CMFCToolBarButton@@UAEHPAUHWND__@@@Z 004604ca f i nafxcw:afxcolorbar.obj
 0001:0005f506       ?IsPureMenuButton@CMFCToolBar@@MBEHPAVCMFCToolBarButton@@@Z 00460506 f i nafxcw:afxcolorbar.obj
 0001:0005f50f       ?IsResourceChanged@CMFCToolBar@@UBEHXZ 0046050f f i nafxcw:afxcolorbar.obj
 0001:0005f516       ?IsRestoredFromRegistry@CBasePane@@UBEHXZ 00460516 f i nafxcw:afxcolorbar.obj
 0001:0005f51a       ?IsWindowVisible@CMFCToolBarButton@@UAEHXZ 0046051a f i nafxcw:afxcolorbar.obj
 0001:0005f554       ?NewAssoc@?$CMap@KKV?$CStringT@DV?$StrTraitMFC@DV?$ChTraitsCRT@D@ATL@@@@@ATL@@PBD@@IAEPAVCAssoc@1@K@Z 00460554 f i nafxcw:afxcolorbar.obj
 0001:0005f554       ?NewAssoc@?$CMap@PAVCDocument@@PAV1@V?$CStringT@DV?$StrTraitMFC@DV?$ChTraitsCRT@D@ATL@@@@@ATL@@PBD@@IAEPAVCAssoc@1@PAVCDocument@@@Z 00460554 f i nafxcw:afxdatarecovery.obj
 0001:0005f5ee       ?OnChangeHot@CMFCColorBar@@MAEXH@Z 004605ee f   nafxcw:afxcolorbar.obj
 0001:0005f647       ?OnChangeParentWnd@CMFCToolBarColorButton@@MAEXPAVCWnd@@@Z 00460647 f i nafxcw:afxcolorbar.obj
 0001:0005f66f       ?OnCreate@CMFCColorBar@@IAEHPAUtagCREATESTRUCTA@@@Z 0046066f f   nafxcw:afxcolorbar.obj
 0001:0005f71c       ?OnDestroy@CMFCColorBar@@IAEXXZ 0046071c f   nafxcw:afxcolorbar.obj
 0001:0005f75d       ?OnDraw@CMFCToolBarColorButton@@MAEXPAVCDC@@ABVCRect@@PAVCMFCToolBarImages@@HHHHH@Z 0046075d f   nafxcw:afxcolorbar.obj
 0001:0005fba9       ?OnKey@CMFCColorBar@@MAEHI@Z 00460ba9 f   nafxcw:afxcolorbar.obj
 0001:0005fc17       ?OnLButtonDblClk@CMFCColorBar@@IAEXIVCPoint@@@Z 00460c17 f   nafxcw:afxcolorbar.obj
 0001:0005fc3e       ?OnLButtonDown@CMFCColorBar@@IAEXIVCPoint@@@Z 00460c3e f   nafxcw:afxcolorbar.obj
 0001:0005fc7e       ?OnLButtonUp@CMFCColorBar@@IAEXIVCPoint@@@Z 00460c7e f   nafxcw:afxcolorbar.obj
 0001:0005fcc3       ?OnMouseLeave@CMFCColorBar@@IAEXXZ 00460cc3 f   nafxcw:afxcolorbar.obj
 0001:0005fd7b       ?OnMouseMove@CMFCColorBar@@IAEXIVCPoint@@@Z 00460d7b f   nafxcw:afxcolorbar.obj
 0001:0005fda2       ?OnNcCalcSize@CMFCColorBar@@IAEXHPAUtagNCCALCSIZE_PARAMS@@@Z 00460da2 f   nafxcw:afxcolorbar.obj
 0001:0005fdba       ?OnNcPaint@CMFCColorBar@@IAEXXZ 00460dba f   nafxcw:afxcolorbar.obj
 0001:0005fdcc       ?OnPaletteChanged@CMFCColorBar@@IAEXPAVCWnd@@@Z 00460dcc f   nafxcw:afxcolorbar.obj
 0001:0005fe0b       ?OnQueryNewPalette@CMFCColorBar@@IAEHXZ 00460e0b f   nafxcw:afxcolorbar.obj
 0001:0005fe2c       ?OnSendCommand@CMFCColorBar@@MAEHPBVCMFCToolBarButton@@@Z 00460e2c f   nafxcw:afxcolorbar.obj
 0001:00060158       ?OnToolHitTest@CMFCToolBarColorButton@@MAEHPBVCWnd@@PAUtagTOOLINFOA@@@Z 00461158 f i nafxcw:afxcolorbar.obj
 0001:00060225       ?OnUpdateCmdUI@CMFCColorBar@@MAEXPAVCFrameWnd@@H@Z 00461225 f   nafxcw:afxcolorbar.obj
 0001:00060330       ?OpenColorDialog@CMFCColorBar@@MAEHKAAK@Z 00461330 f   nafxcw:afxcolorbar.obj
 0001:00060436       ?PreTranslateMessage@CMFCColorBar@@MAEHPAUtagMSG@@@Z 00461436 f   nafxcw:afxcolorbar.obj
 0001:0006050c       ?Rebuild@CMFCColorBar@@MAEXXZ 0046150c f   nafxcw:afxcolorbar.obj
 0001:000607e1       ?Rectangle@CDC@@QAEHPBUtagRECT@@@Z 004617e1 f i nafxcw:afxcolorbar.obj
 0001:000607ff       ?SelectPalette@CMFCColorBar@@IAEPAVCPalette@@PAVCDC@@@Z 004617ff f   nafxcw:afxcolorbar.obj
 0001:00060894       ?Serialize@CMFCColorBar@@MAEXAAVCArchive@@@Z 00461894 f   nafxcw:afxcolorbar.obj
 0001:00060a70       ?SetColor@CMFCColorBar@@QAEXK@Z 00461a70 f   nafxcw:afxcolorbar.obj
 0001:00060c0a       ?SetExclusiveRowMode@CPane@@UAEXH@Z 00461c0a f i nafxcw:afxcolorbar.obj
 0001:00060c1a       ?SetHorzMargin@CMFCColorBar@@QAEXH@Z 00461c1a f   nafxcw:afxcolorbar.obj
 0001:00060c32       ?SetPaneAlignment@CBasePane@@UAEXK@Z 00461c32 f i nafxcw:afxcolorbar.obj
 0001:00060c4d       ?SetPaneStyle@CBasePane@@UAEXK@Z 00461c4d f i nafxcw:afxcolorbar.obj
 0001:00060c5d       ?SetRestoredFromRegistry@CBasePane@@UAEXH@Z 00461c5d f i nafxcw:afxcolorbar.obj
 0001:00060c6a       ?SetStyle@CMFCToolBarButton@@UAEXI@Z 00461c6a f i nafxcw:afxcolorbar.obj
 0001:00060c77       ?SetVertMargin@CMFCColorBar@@QAEXH@Z 00461c77 f   nafxcw:afxcolorbar.obj
 0001:00060c8f       ?ShowCommandMessageString@CMFCColorBar@@MAEXI@Z 00461c8f f   nafxcw:afxcolorbar.obj
 0001:00060cba       ??1CMFCColorPopupMenu@@UAE@XZ 00461cba f   nafxcw:afxcolorpopupmenu.obj
 0001:00060cf1       ?CreateTearOffBar@CMFCColorPopupMenu@@UAEPAVCPane@@PAVCFrameWnd@@IPBD@Z 00461cf1 f   nafxcw:afxcolorpopupmenu.obj
 0001:00060dcc       ?GetMessageMap@CMFCColorPopupMenu@@MBEPBUAFX_MSGMAP@@XZ 00461dcc f   nafxcw:afxcolorpopupmenu.obj
 0001:00060dd2       ?GetRuntimeClass@CMFCColorPopupMenu@@UBEPAUCRuntimeClass@@XZ 00461dd2 f   nafxcw:afxcolorpopupmenu.obj
 0001:00060dd8       ?OnCreate@CMFCColorPopupMenu@@IAEHPAUtagCREATESTRUCTA@@@Z 00461dd8 f   nafxcw:afxcolorpopupmenu.obj
 0001:00060eaf       ?CreateObject@CMFCToolBarComboBoxButton@@SGPAVCObject@@XZ 00461eaf f   nafxcw:afxtoolbarcomboboxbutton.obj
 0001:00060edf       ??0CMFCToolBarComboBoxButton@@QAE@IHKH@Z 00461edf f   nafxcw:afxtoolbarcomboboxbutton.obj
 0001:00060f96       ??0CMFCToolBarComboBoxButton@@QAE@XZ 00461f96 f   nafxcw:afxtoolbarcomboboxbutton.obj
 0001:00061036       ??0CMFCToolBarComboBoxEdit@@QAE@AAVCMFCToolBarComboBoxButton@@@Z 00462036 f   nafxcw:afxtoolbarcomboboxbutton.obj
 0001:00061058       ??1CMFCToolBarComboBoxButton@@UAE@XZ 00462058 f   nafxcw:afxtoolbarcomboboxbutton.obj
 0001:000610f9       ??_ECMFCToolBarComboBoxButton@@UAEPAXI@Z 004620f9 f i nafxcw:afxtoolbarcomboboxbutton.obj
 0001:000610f9       ??_GCMFCToolBarComboBoxButton@@UAEPAXI@Z 004620f9 f i nafxcw:afxtoolbarcomboboxbutton.obj
 0001:00061118       ??_ECMFCToolBarComboBoxEdit@@UAEPAXI@Z 00462118 f i nafxcw:afxtoolbarcomboboxbutton.obj
 0001:00061118       ??_GCMFCToolBarComboBoxEdit@@UAEPAXI@Z 00462118 f i nafxcw:afxtoolbarcomboboxbutton.obj
 0001:0006113d       ?AddItem@CMFCToolBarComboBoxButton@@UAEHPBDK@Z 0046213d f   nafxcw:afxtoolbarcomboboxbutton.obj
 0001:0006122a       ?AddSortedItem@CMFCToolBarComboBoxButton@@UAEHPBDK@Z 0046222a f   nafxcw:afxtoolbarcomboboxbutton.obj
 0001:000613ca       ?AdjustRect@CMFCToolBarComboBoxButton@@IAEXXZ 004623ca f   nafxcw:afxtoolbarcomboboxbutton.obj
 0001:00061623       ?Compare@CMFCToolBarComboBoxButton@@UAEHPBD0@Z 00462623 f   nafxcw:afxtoolbarcomboboxbutton.obj
 0001:00061637       ?CopyFrom@CMFCToolBarComboBoxButton@@UAEXABVCMFCToolBarButton@@@Z 00462637 f   nafxcw:afxtoolbarcomboboxbutton.obj
 0001:00061707       ?CreateCombo@CMFCToolBarComboBoxButton@@UAEPAVCComboBox@@PAVCWnd@@ABVCRect@@@Z 00462707 f   nafxcw:afxtoolbarcomboboxbutton.obj
 0001:00061773       ?CreateEdit@CMFCToolBarComboBoxButton@@UAEPAVCMFCToolBarComboBoxEdit@@PAVCWnd@@ABVCRect@@K@Z 00462773 f   nafxcw:afxtoolbarcomboboxbutton.obj
 0001:000617d5       ?EnableWindow@CMFCToolBarComboBoxButton@@UAEXH@Z 004627d5 f i nafxcw:afxtoolbarcomboboxbutton.obj
 0001:0006180e       ?ExportToMenuButton@CMFCToolBarComboBoxButton@@UBEHAAVCMFCToolBarMenuButton@@@Z 0046280e f   nafxcw:afxtoolbarcomboboxbutton.obj
 0001:00061899       ?FindItem@CMFCToolBarComboBoxButton@@QBEHPBD@Z 00462899 f   nafxcw:afxtoolbarcomboboxbutton.obj
 0001:000618ef       ?GetComboBoxInfo@CComboBox@@QBEHPAUtagCOMBOBOXINFO@@@Z 004628ef f i nafxcw:afxtoolbarcomboboxbutton.obj
 0001:0006190e       ?GetTabsNum@CMFCBaseTabCtrl@@UBEHXZ 0046290e f i nafxcw:afxbasetabctrl.obj
 0001:0006190e       ?GetEditCtrl@CMFCToolBarComboBoxButton@@UAEPAVCEdit@@XZ 0046290e f i nafxcw:afxtoolbarcomboboxbutton.obj
 0001:00061915       ?GetHwnd@CMFCToolBarComboBoxButton@@UAEPAUHWND__@@XZ 00462915 f i nafxcw:afxtoolbarcomboboxbutton.obj
 0001:00061924       ?GetItem@CMFCToolBarComboBoxButton@@QBEPBDH@Z 00462924 f   nafxcw:afxtoolbarcomboboxbutton.obj
 0001:00061978       ?GetItemData@CMFCToolBarComboBoxButton@@QBEKH@Z 00462978 f   nafxcw:afxtoolbarcomboboxbutton.obj
 0001:000619ef       ?GetMessageMap@CMFCToolBarComboBoxEdit@@MBEPBUAFX_MSGMAP@@XZ 004629ef f   nafxcw:afxtoolbarcomboboxbutton.obj
 0001:000619f5       ?GetNext@CStringList@@QAEAAV?$CStringT@DV?$StrTraitMFC@DV?$ChTraitsCRT@D@ATL@@@@@ATL@@AAPAU__POSITION@@@Z 004629f5 f i nafxcw:list_s.obj
 0001:000619f5       ?GetNext@CObList@@QAEAAPAVCObject@@AAPAU__POSITION@@@Z 004629f5 f i nafxcw:afxrendertarget.obj
 0001:000619f5       ?GetNext@CPtrList@@QAEAAPAXAAPAU__POSITION@@@Z 004629f5 f i nafxcw:occmgr.obj
 0001:000619f5       ?GetNext@CStringList@@QBEABV?$CStringT@DV?$StrTraitMFC@DV?$ChTraitsCRT@D@ATL@@@@@ATL@@AAPAU__POSITION@@@Z 004629f5 f i nafxcw:afxtoolbarcomboboxbutton.obj
 0001:00061a12       ?GetPrompt@CMFCToolBarComboBoxButton@@UBE?AV?$CStringT@DV?$StrTraitMFC@DV?$ChTraitsCRT@D@ATL@@@@@ATL@@XZ 00462a12 f i nafxcw:afxtoolbarcomboboxbutton.obj
 0001:00061a31       ?GetRuntimeClass@CMFCToolBarComboBoxButton@@UBEPAUCRuntimeClass@@XZ 00462a31 f   nafxcw:afxtoolbarcomboboxbutton.obj
 0001:00061a37       ?HasFocus@CMFCToolBarComboBoxButton@@UBEHXZ 00462a37 f   nafxcw:afxtoolbarcomboboxbutton.obj
 0001:00061ac6       ?Initialize@CMFCToolBarComboBoxButton@@IAEXXZ 00462ac6 f   nafxcw:afxtoolbarcomboboxbutton.obj
 0001:00061b19       ?InsertBefore@?$CList@PAVCMFCPropertyGridProperty@@PAV1@@@QAEPAU__POSITION@@PAU2@PAVCMFCPropertyGridProperty@@@Z 00462b19 f i nafxcw:afxpropertygridctrl.obj
 0001:00061b19       ?InsertBefore@?$CList@KK@@QAEPAU__POSITION@@PAU2@K@Z 00462b19 f i nafxcw:afxtoolbarcomboboxbutton.obj
 0001:00061b57       ?IsOwnerOf@CMFCToolBarComboBoxButton@@UAEHPAUHWND__@@@Z 00462b57 f i nafxcw:afxtoolbarcomboboxbutton.obj
 0001:00061bd5       ?IsWindowVisible@CMFCToolBarComboBoxButton@@UAEHXZ 00462bd5 f i nafxcw:afxtoolbarcomboboxbutton.obj
 0001:00061c1a       ?NotifyCommand@CMFCToolBarComboBoxButton@@UAEHH@Z 00462c1a f   nafxcw:afxtoolbarcomboboxbutton.obj
 0001:00061ff7       ?OnAddToCustomizePage@CMFCToolBarComboBoxButton@@UAEXXZ 00462ff7 f   nafxcw:afxtoolbarcomboboxbutton.obj
 0001:00061ff7       ?OnAddToCustomizePage@CMFCToolBarEditBoxButton@@UAEXXZ 00462ff7 f   nafxcw:afxtoolbareditboxbutton.obj
 0001:00062042       ?OnCalculateSize@CMFCToolBarComboBoxButton@@UAE?AUtagSIZE@@PAVCDC@@ABVCSize@@H@Z 00463042 f   nafxcw:afxtoolbarcomboboxbutton.obj
 0001:000622b9       ?OnChange@CMFCToolBarComboBoxEdit@@IAEXXZ 004632b9 f   nafxcw:afxtoolbarcomboboxbutton.obj
 0001:000622c4       ?OnChangeParentWnd@CMFCToolBarComboBoxButton@@UAEXPAVCWnd@@@Z 004632c4 f   nafxcw:afxtoolbarcomboboxbutton.obj
 0001:00062711       ?OnClick@CMFCToolBarComboBoxButton@@UAEHPAVCWnd@@H@Z 00463711 f   nafxcw:afxtoolbarcomboboxbutton.obj
 0001:00062784       ?OnContextMenu@CMFCToolBarComboBoxEdit@@IAEXPAVCWnd@@VCPoint@@@Z 00463784 f   nafxcw:afxtoolbarcomboboxbutton.obj
 0001:00062825       ?OnDraw@CMFCToolBarComboBoxButton@@UAEXPAVCDC@@ABVCRect@@PAVCMFCToolBarImages@@HHHHH@Z 00463825 f   nafxcw:afxtoolbarcomboboxbutton.obj
 0001:00062bb2       ?OnDrawOnCustomizeList@CMFCToolBarComboBoxButton@@UAEHPAVCDC@@ABVCRect@@H@Z 00463bb2 f   nafxcw:afxtoolbarcomboboxbutton.obj
 0001:00062cac       ?OnGlobalFontsChanged@CMFCToolBarComboBoxButton@@UAEXXZ 00463cac f   nafxcw:afxtoolbarcomboboxbutton.obj
 0001:00062d1d       ?OnKillFocus@CMFCToolBarComboBoxEdit@@IAEXPAVCWnd@@@Z 00463d1d f   nafxcw:afxtoolbarcomboboxbutton.obj
 0001:00062d50       ?OnMouseLeave@CMFCToolBarComboBoxEdit@@IAEXXZ 00463d50 f   nafxcw:afxtoolbarcomboboxbutton.obj
 0001:00062d73       ?OnMouseMove@CMFCToolBarComboBoxEdit@@IAEXIVCPoint@@@Z 00463d73 f   nafxcw:afxtoolbarcomboboxbutton.obj
 0001:00062dbd       ?OnMove@CMFCToolBarComboBoxButton@@UAEXXZ 00463dbd f   nafxcw:afxtoolbarcomboboxbutton.obj
 0001:00062dd2       ?OnPaint@CMFCToolBarComboBoxEdit@@IAEXXZ 00463dd2 f   nafxcw:afxtoolbarcomboboxbutton.obj
 0001:00062f4e       ?OnSetFocus@CMFCToolBarComboBoxEdit@@IAEXPAVCWnd@@@Z 00463f4e f   nafxcw:afxtoolbarcomboboxbutton.obj
 0001:00062f75       ?OnShow@CMFCToolBarComboBoxButton@@UAEXH@Z 00463f75 f   nafxcw:afxtoolbarcomboboxbutton.obj
 0001:00062fe5       ?OnSize@CMFCToolBarComboBoxButton@@UAEXH@Z 00463fe5 f   nafxcw:afxtoolbarcomboboxbutton.obj
 0001:0006300f       ?OnUpdateToolTip@CMFCToolBarComboBoxButton@@UAEHPAVCWnd@@HAAVCToolTipCtrl@@AAV?$CStringT@DV?$StrTraitMFC@DV?$ChTraitsCRT@D@ATL@@@@@ATL@@@Z 0046400f f   nafxcw:afxtoolbarcomboboxbutton.obj
 0001:000630cb       ?PreTranslateMessage@CMFCToolBarComboBoxEdit@@UAEHPAUtagMSG@@@Z 004640cb f   nafxcw:afxtoolbarcomboboxbutton.obj
 0001:00063362       ?SelectItem@CMFCToolBarComboBoxButton@@QAEHHH@Z 00464362 f   nafxcw:afxtoolbarcomboboxbutton.obj
 0001:0006346b       ?Serialize@CMFCToolBarComboBoxButton@@UAEXAAVCArchive@@@Z 0046446b f   nafxcw:afxtoolbarcomboboxbutton.obj
 0001:00063684       ?SetACCData@CMFCToolBarComboBoxButton@@UAEHPAVCWnd@@AAVCAccessibilityData@@@Z 00464684 f   nafxcw:afxtoolbarcomboboxbutton.obj
 0001:000636fe       ?SetEditSel@CComboBox@@QAEHHH@Z 004646fe f i nafxcw:afxtoolbarcomboboxbutton.obj
 0001:00063727       ?SetHotEdit@CMFCToolBarComboBoxButton@@IAEXH@Z 00464727 f   nafxcw:afxtoolbarcomboboxbutton.obj
 0001:0006379d       ?SetStyle@CMFCToolBarComboBoxButton@@UAEXI@Z 0046479d f   nafxcw:afxtoolbarcomboboxbutton.obj
 0001:0006383c       ?CreateObject@CMFCToolBarFontComboBox@@SGPAVCObject@@XZ 0046483c f   nafxcw:afxtoolbarfontcombobox.obj
 0001:0006386c       ?CreateObject@CMFCToolBarFontSizeComboBox@@SGPAVCObject@@XZ 0046486c f   nafxcw:afxtoolbarfontcombobox.obj
 0001:0006389c       ??0?$CStringT@DV?$StrTraitMFC@DV?$ChTraitsCRT@D@ATL@@@@@ATL@@QAE@PBE@Z 0046489c f i nafxcw:afxtoolbarfontcombobox.obj
 0001:000638d2       ??0CMFCFontInfo@@QAE@PBD0EEH@Z 004648d2 f i nafxcw:afxtoolbarfontcombobox.obj
 0001:0006391f       ??0CMFCToolBarFontComboBox@@IAE@XZ 0046491f f   nafxcw:afxtoolbarfontcombobox.obj
 0001:00063951       ??0CMFCToolBarFontComboBox@@QAE@IHHEKHE@Z 00464951 f   nafxcw:afxtoolbarfontcombobox.obj
 0001:000639c8       ??0CMFCToolBarFontSizeComboBox@@IAE@XZ 004649c8 f   nafxcw:afxtoolbarfontcombobox.obj
 0001:000639e1       ??1CMFCToolBarFontComboBox@@UAE@XZ 004649e1 f   nafxcw:afxtoolbarfontcombobox.obj
 0001:00063a23       ??_GCMFCToolBarFontComboBox@@UAEPAXI@Z 00464a23 f i nafxcw:afxtoolbarfontcombobox.obj
 0001:00063a23       ??_ECMFCToolBarFontComboBox@@UAEPAXI@Z 00464a23 f i nafxcw:afxtoolbarfontcombobox.obj
 0001:00063a42       ??_GCMFCToolBarFontSizeComboBox@@UAEPAXI@Z 00464a42 f i nafxcw:afxtoolbarfontcombobox.obj
 0001:00063a42       ??_ECMFCToolBarFontSizeComboBox@@UAEPAXI@Z 00464a42 f i nafxcw:afxtoolbarfontcombobox.obj
 0001:00063a67       ?AddFont@CMFCToolBarFontComboBox@@MAEHPAUtagENUMLOGFONTA@@HPBD@Z 00464a67 f   nafxcw:afxtoolbarfontcombobox.obj
 0001:00063bf1       ?ClearFonts@CMFCToolBarFontComboBox@@KGXXZ 00464bf1 f   nafxcw:afxtoolbarfontcombobox.obj
 0001:00063c14       ?CopyFrom@CMFCToolBarFontComboBox@@MAEXABVCMFCToolBarButton@@@Z 00464c14 f   nafxcw:afxtoolbarfontcombobox.obj
 0001:00063c4e       ?CreateCombo@CMFCToolBarFontComboBox@@MAEPAVCComboBox@@PAVCWnd@@ABVCRect@@@Z 00464c4e f   nafxcw:afxtoolbarfontcombobox.obj
 0001:00063cba       ?CreateCombo@CMFCToolBarFontSizeComboBox@@MAEPAVCComboBox@@PAVCWnd@@ABVCRect@@@Z 00464cba f   nafxcw:afxtoolbarfontcombobox.obj
 0001:00063d20       ?EnumFamPrinterCallBackEx@CMFCToolBarFontComboBox@@KGHPAUtagENUMLOGFONTEXA@@PAUtagNEWTEXTMETRICEXA@@HPAX@Z 00464d20 f   nafxcw:afxtoolbarfontcombobox.obj
 0001:00063d84       ?EnumFamScreenCallBackEx@CMFCToolBarFontComboBox@@KGHPAUtagENUMLOGFONTEXA@@PAUtagNEWTEXTMETRICEXA@@HPAX@Z 00464d84 f   nafxcw:afxtoolbarfontcombobox.obj
 0001:00063dcd       ?GetFontsCount@CMFCToolBarFontComboBox@@KGHPBD@Z 00464dcd f   nafxcw:afxtoolbarfontcombobox.obj
 0001:00063e09       ?GetFullName@CMFCFontInfo@@QBE?AV?$CStringT@DV?$StrTraitMFC@DV?$ChTraitsCRT@D@ATL@@@@@ATL@@XZ 00464e09 f i nafxcw:afxtoolbarfontcombobox.obj
 0001:00063e9b       ?GetRuntimeClass@CMFCToolBarFontComboBox@@UBEPAUCRuntimeClass@@XZ 00464e9b f   nafxcw:afxtoolbarfontcombobox.obj
 0001:00063ea1       ?GetRuntimeClass@CMFCToolBarFontSizeComboBox@@UBEPAUCRuntimeClass@@XZ 00464ea1 f   nafxcw:afxtoolbarfontcombobox.obj
 0001:00063ea7       ?RebuildFonts@CMFCToolBarFontComboBox@@IAEXXZ 00464ea7 f   nafxcw:afxtoolbarfontcombobox.obj
 0001:00063f82       ?Serialize@CMFCToolBarFontComboBox@@MAEXAAVCArchive@@@Z 00464f82 f   nafxcw:afxtoolbarfontcombobox.obj
 0001:0006407c       ?SetContext@CMFCToolBarFontComboBox@@IAEXXZ 0046507c f   nafxcw:afxtoolbarfontcombobox.obj
 0001:00064169       ??0CMFCControlBarImpl@@QAE@PAVCPane@@@Z 00465169 f   nafxcw:afxcontrolbarimpl.obj
 0001:0006417e       ??1CMFCControlBarImpl@@UAE@XZ 0046517e f   nafxcw:afxcontrolbarimpl.obj
 0001:00064185       ??_GCMFCControlBarImpl@@UAEPAXI@Z 00465185 f i nafxcw:afxcontrolbarimpl.obj
 0001:00064185       ??_ECMFCControlBarImpl@@UAEPAXI@Z 00465185 f i nafxcw:afxcontrolbarimpl.obj
 0001:000641a5       ?CalcNcSize@CMFCControlBarImpl@@IAEXPAUtagNCCALCSIZE_PARAMS@@@Z 004651a5 f   nafxcw:afxcontrolbarimpl.obj
 0001:0006424d       ?DrawNcArea@CMFCControlBarImpl@@IAEXXZ 0046524d f   nafxcw:afxcontrolbarimpl.obj
 0001:000644d9       ?GetBackgroundFromParent@CMFCControlBarImpl@@IAEHPAVCDC@@@Z 004654d9 f   nafxcw:afxcontrolbarimpl.obj
 0001:000644f4       ?GetGripperRect@CMFCControlBarImpl@@QAEXAAVCRect@@H@Z 004654f4 f   nafxcw:afxcontrolbarimpl.obj
 0001:000645ef       ?CreateObject@CMFCToolBar@@SGPAVCObject@@XZ 004655ef f   nafxcw:afxtoolbar.obj
 0001:0006461f       ??$HashKey@AAI@@YGIAAI@Z   0046561f f i nafxcw:afxtoolbar.obj
 0001:0006461f       ??$HashKey@AAPAUHMENU__@@@@YGIAAPAUHMENU__@@@Z 0046561f f i nafxcw:afxmenuhash.obj
 0001:0006464f       ??0?$CMap@IAAIPAVCMFCToolBarButton@@AAPAV1@@@QAE@H@Z 0046564f f i nafxcw:afxtoolbar.obj
 0001:00064679       ??0CMFCToolBar@@QAE@XZ     00465679 f   nafxcw:afxtoolbar.obj
 0001:000649fd       ??0CMFCToolBarInfo@@QAE@XZ 004659fd f   nafxcw:afxtoolbar.obj
 0001:00064a19       ??1?$CMap@IAAIPAVCMFCToolBarButton@@AAPAV1@@@UAE@XZ 00465a19 f i nafxcw:afxtoolbar.obj
 0001:00064a24       ??1CMFCToolBar@@UAE@XZ     00465a24 f   nafxcw:afxtoolbar.obj
 0001:00064b8c       ??1CSettingsStoreSP@@QAE@XZ 00465b8c f i nafxcw:afxtoolbar.obj
 0001:00064b9a       ??_G?$CMap@IAAIPAVCMFCToolBarButton@@AAPAV1@@@UAEPAXI@Z 00465b9a f i nafxcw:afxtoolbar.obj
 0001:00064b9a       ??_E?$CMap@IAAIPAVCMFCToolBarButton@@AAPAV1@@@UAEPAXI@Z 00465b9a f i nafxcw:afxtoolbar.obj
 0001:00064bbf       ?AccGetButtonByChildId@CMFCToolBar@@IAEPAVCMFCToolBarButton@@J@Z 00465bbf f   nafxcw:afxtoolbar.obj
 0001:00064c12       ?AccGetButtonsCount@CMFCToolBar@@MAEHXZ 00465c12 f   nafxcw:afxtoolbar.obj
 0001:00064c52       ?AccGetChildIdByButtonIndex@CMFCToolBar@@IAEHH@Z 00465c52 f   nafxcw:afxtoolbar.obj
 0001:00064cbc       ?AccNotifyObjectFocusEvent@CMFCToolBar@@MAEXH@Z 00465cbc f   nafxcw:afxtoolbar.obj
 0001:00064d1c       ?AddBasicCommand@CMFCToolBar@@SGXI@Z 00465d1c f   nafxcw:afxtoolbar.obj
 0001:00064d44       ?AddCommandUsage@CMFCToolBar@@SGXI@Z 00465d44 f   nafxcw:afxtoolbar.obj
 0001:00064d52       ?AddRemoveSeparator@CMFCToolBar@@MAEXPBVCMFCToolBarButton@@ABVCPoint@@1@Z 00465d52 f   nafxcw:afxtoolbar.obj
 0001:00064e08       ?AdjustLayout@CMFCToolBar@@UAEXXZ 00465e08 f   nafxcw:afxtoolbar.obj
 0001:00064ff4       ?AdjustLocations@CMFCToolBar@@MAEXXZ 00465ff4 f   nafxcw:afxtoolbar.obj
 0001:00065547       ?AdjustSize@CMFCToolBar@@QAEXXZ 00466547 f   nafxcw:afxtoolbar.obj
 0001:000658a9       ?ButtonToIndex@CMFCToolBar@@QBEHPBVCMFCToolBarButton@@@Z 004668a9 f   nafxcw:afxtoolbar.obj
 0001:000658f4       ?CalcFixedLayout@CControlBar@@UAE?AVCSize@@HH@Z 004668f4 f i nafxcw:barcore.obj
 0001:000658f4       ?CalcFixedLayout@CBasePane@@UAE?AVCSize@@HH@Z 004668f4 f i nafxcw:afxtoolbar.obj
 0001:00065930       ?CalcFixedLayout@CMFCToolBar@@UAE?AVCSize@@HH@Z 00466930 f   nafxcw:afxtoolbar.obj
 0001:0006595e       ?CalcLayout@CMFCToolBar@@MAE?AVCSize@@KH@Z 0046695e f   nafxcw:afxtoolbar.obj
 0001:00065b5a       ?CalcMaxButtonHeight@CMFCToolBar@@MAEHXZ 00466b5a f   nafxcw:afxtoolbar.obj
 0001:00065c8e       ?CalcSize@CMFCToolBar@@UAE?AVCSize@@H@Z 00466c8e f   nafxcw:afxtoolbar.obj
 0001:00065ebe       ?CanBeRestored@CMFCToolBar@@UBEHXZ 00466ebe f   nafxcw:afxtoolbar.obj
 0001:00065eca       ?CanHandleSiblings@CMFCToolBar@@QAEHXZ 00466eca f   nafxcw:afxtoolbar.obj
 0001:00065f0a       ?Clear@CAccessibilityData@@QAEXXZ 00466f0a f i nafxcw:afxtoolbar.obj
 0001:00065f77       ?CommandToIndex@CMFCToolBar@@QBEHIH@Z 00466f77 f   nafxcw:afxtoolbar.obj
 0001:00065fcc       ?Create@CMFCToolBar@@UAEHPAVCWnd@@KI@Z 00466fcc f   nafxcw:afxtoolbar.obj
 0001:0006600a       ?CreateDroppedButton@CMFCToolBar@@MAEPAVCMFCToolBarButton@@PAVCOleDataObject@@@Z 0046700a f   nafxcw:afxtoolbar.obj
 0001:00066131       ?CreateEx@CMFCToolBar@@UAEHPAVCWnd@@KKVCRect@@I@Z 00467131 f   nafxcw:afxtoolbar.obj
 0001:0006621b       ?Deactivate@CMFCToolBar@@UAEXXZ 0046721b f   nafxcw:afxtoolbar.obj
 0001:00066274       ?DoPaint@CMFCToolBar@@MAEXPAVCDC@@@Z 00467274 f   nafxcw:afxtoolbar.obj
 0001:00066b03       ?DrawButton@CMFCToolBar@@MAEHPAVCDC@@PAVCMFCToolBarButton@@PAVCMFCToolBarImages@@HH@Z 00467b03 f   nafxcw:afxtoolbar.obj
 0001:00066b95       ?DrawDragCursor@CMFCToolBar@@MAEXPAVCDC@@@Z 00467b95 f   nafxcw:afxtoolbar.obj
 0001:00066d76       ?DrawSeparator@CMFCToolBar@@MAEXPAVCDC@@ABVCRect@@H@Z 00467d76 f   nafxcw:afxtoolbar.obj
 0001:00066da4       ?DropDownMenu@CMFCToolBar@@IAEHPAVCMFCToolBarButton@@@Z 00467da4 f   nafxcw:afxtoolbar.obj
 0001:00066e10       ?Enable@CMFCToolBarCmdUI@@UAEXH@Z 00467e10 f   nafxcw:afxtoolbar.obj
 0001:00066e59       ?EnableContextMenuItems@CMFCToolBar@@MAEHPAVCMFCToolBarButton@@PAVCMenu@@@Z 00467e59 f   nafxcw:afxtoolbar.obj
 0001:00066fd5       ?EnableCustomizeButton@CMFCToolBar@@QAEXHHABV?$CStringT@DV?$StrTraitMFC@DV?$ChTraitsCRT@D@ATL@@@@@ATL@@H@Z 00467fd5 f   nafxcw:afxtoolbar.obj
 0001:000670a9       ?EnableDocking@CBasePane@@UAEXK@Z 004680a9 f i nafxcw:afxtoolbar.obj
 0001:000670b9       ?EnableDocking@CMFCToolBar@@UAEXK@Z 004680b9 f   nafxcw:afxtoolbar.obj
 0001:000670d3       ?EnableLargeIcons@CMFCToolBar@@QAEXH@Z 004680d3 f   nafxcw:afxtoolbar.obj
 0001:000670e3       ?EnableTextLabels@CMFCToolBar@@QAEXH@Z 004680e3 f   nafxcw:afxtoolbar.obj
 0001:00067104       ?FindDropIndex@CMFCToolBar@@MBEHVCPoint@@AAVCRect@@@Z 00468104 f   nafxcw:afxtoolbar.obj
 0001:000674db       ?Format@?$CStringT@DV?$StrTraitMFC@DV?$ChTraitsCRT@D@ATL@@@@@ATL@@QAAXIZZ 004684db f i nafxcw:afxtoolbar.obj
 0001:00067540       ?GetAllToolbars@CMFCToolBar@@SGABVCObList@@XZ 00468540 f   nafxcw:afxtoolbar.obj
 0001:00067546       ?GetAssocAt@?$CMap@IAAIPAVCMFCToolBarButton@@AAPAV1@@@IBEPAVCAssoc@1@AAI00@Z 00468546 f i nafxcw:afxtoolbar.obj
 0001:00067546       ?GetAssocAt@?$CMap@PAUHMENU__@@AAPAU1@PAXAAPAX@@IBEPAVCAssoc@1@AAPAUHMENU__@@AAI1@Z 00468546 f i nafxcw:afxmenuhash.obj
 0001:00067597       ??A?$CSimpleStringT@D$0A@@ATL@@QBEDH@Z 00468597 f i nafxcw:appui3.obj
 0001:00067597       ?GetAt@?$CSimpleStringT@D$0A@@ATL@@QBEDH@Z 00468597 f i nafxcw:afxtoolbar.obj
 0001:000675ba       ?GetButton@CMFCToolBar@@QBEPAVCMFCToolBarButton@@H@Z 004685ba f   nafxcw:afxtoolbar.obj
 0001:000675e0       ?GetButtonStyle@CMFCToolBar@@QBEIH@Z 004685e0 f   nafxcw:afxtoolbar.obj
 0001:000675f6       ?GetButtonText@CMFCToolBar@@QBE?AV?$CStringT@DV?$StrTraitMFC@DV?$ChTraitsCRT@D@ATL@@@@@ATL@@H@Z 004685f6 f   nafxcw:afxtoolbar.obj
 0001:00067637       ?GetCommandButtons@CMFCToolBar@@SGHIAAVCObList@@@Z 00468637 f   nafxcw:afxtoolbar.obj
 0001:000676cb       ?GetCommandTarget@CMFCToolBar@@MBEPAVCWnd@@XZ 004686cb f i nafxcw:afxtoolbar.obj
 0001:000676ff       ?GetCount@CMFCToolBar@@QBEHXZ 004686ff f   nafxcw:afxtoolbar.obj
 0001:00067706       ?GetDroppedDownMenu@CMFCToolBar@@QBEPAVCMFCToolBarMenuButton@@PAH@Z 00468706 f   nafxcw:afxtoolbar.obj
 0001:00067780       ?GetExtraSize@CMFCCustomizeButton@@QBE?AVCSize@@XZ 00468780 f i nafxcw:afxtoolbar.obj
 0001:000677bc       ?GetHighlightedButton@CMFCToolBar@@QBEPAVCMFCToolBarButton@@XZ 004687bc f   nafxcw:afxtoolbar.obj
 0001:000677d0       ?GetHotTextColor@CMFCToolBar@@SGKXZ 004687d0 f   nafxcw:afxtoolbar.obj
 0001:000677e3       ?GetImageList@CMFCToolBar@@IBEPAVCMFCToolBarImages@@AAV2@000@Z 004687e3 f   nafxcw:afxtoolbar.obj
 0001:0006782c       ?GetImageSize@CMFCToolBar@@QBE?AVCSize@@XZ 0046882c f i nafxcw:afxtoolbar.obj
 0001:00067874       ?GetInvalidateItemRect@CMFCToolBar@@UBEXHPAUtagRECT@@@Z 00468874 f   nafxcw:afxtoolbar.obj
 0001:000678d7       ?GetItemID@CMFCToolBar@@QBEIH@Z 004688d7 f   nafxcw:afxtoolbar.obj
 0001:000678ed       ?GetItemRect@CMFCToolBar@@UBEXHPAUtagRECT@@@Z 004688ed f   nafxcw:afxtoolbar.obj
 0001:0006792e       ?GetMenuButtonSize@CMFCToolBar@@SG?AVCSize@@XZ 0046892e f   nafxcw:afxtoolbar.obj
 0001:0006795e       ?GetMenuImageSize@CMFCToolBar@@SG?AVCSize@@XZ 0046895e f   nafxcw:afxtoolbar.obj
 0001:00067a1b       ?GetResourceOffset@CMFCToolBarImages@@QBEHI@Z 00468a1b f i nafxcw:afxtoolbar.obj
 0001:00067a47       ?GetRowHeight@CMFCToolBar@@UBEHXZ 00468a47 f   nafxcw:afxtoolbar.obj
 0001:00067b03       ?GetRuntimeClass@CMFCToolBar@@UBEPAUCRuntimeClass@@XZ 00468b03 f   nafxcw:afxtoolbar.obj
 0001:00067b09       ?GetThisMessageMap@CMFCToolBar@@KGPBUAFX_MSGMAP@@XZ 00468b09 f   nafxcw:afxtoolbar.obj
 0001:00067b09       ?GetMessageMap@CMFCToolBar@@MBEPBUAFX_MSGMAP@@XZ 00468b09 f   nafxcw:afxtoolbar.obj
 0001:00067b0f       ?HitTest@CMFCToolBar@@UAEHVCPoint@@@Z 00468b0f f   nafxcw:afxtoolbar.obj
 0001:00067b7c       ?InsertButton@CMFCToolBar@@MAEHPAVCMFCToolBarButton@@H@Z 00468b7c f   nafxcw:afxtoolbar.obj
 0001:00067c1e       ?InsertButton@CMFCToolBar@@UAEHABVCMFCToolBarButton@@H@Z 00468c1e f   nafxcw:afxtoolbar.obj
 0001:00067c74       ?InsertResetStateButton@CMFCToolBar@@IAEHABVCMFCToolBarButton@@H@Z 00468c74 f   nafxcw:afxtoolbar.obj
 0001:00067d05       ?InsertSeparator@CMFCToolBar@@UAEHH@Z 00468d05 f   nafxcw:afxtoolbar.obj
 0001:00067d75       ?InvalidateButton@CMFCToolBar@@QAEPAVCMFCToolBarButton@@H@Z 00468d75 f   nafxcw:afxtoolbar.obj
 0001:00067e5a       ?IsBasicCommand@CMFCToolBar@@SGHI@Z 00468e5a f i nafxcw:afxtoolbar.obj
 0001:00067e76       ?IsButtonHighlighted@CMFCToolBar@@QBEHH@Z 00468e76 f   nafxcw:afxtoolbar.obj
 0001:00067ecb       ?IsCommandPermitted@CMFCToolBar@@SGHI@Z 00468ecb f i nafxcw:afxtoolbar.obj
 0001:00067ee6       ?IsCommandRarelyUsed@CMFCToolBar@@SGHI@Z 00468ee6 f   nafxcw:afxtoolbar.obj
 0001:00067f4d       ?IsOneRowWithSibling@CMFCToolBar@@QAEHXZ 00468f4d f   nafxcw:afxtoolbar.obj
 0001:00067f65       ?IsUserDefined@CMFCToolBar@@QBEHXZ 00468f65 f   nafxcw:afxtoolbar.obj
 0001:00067fd5       ?LoadBitmapA@CMFCToolBar@@UAEHIIIHII@Z 00468fd5 f   nafxcw:afxtoolbar.obj
 0001:0006801c       ?LoadBitmapEx@CMFCToolBar@@UAEHAAVCMFCToolBarInfo@@H@Z 0046901c f   nafxcw:afxtoolbar.obj
 0001:0006827a       ?LoadLargeIconsState@CMFCToolBar@@SGHPBD@Z 0046927a f   nafxcw:afxtoolbar.obj
 0001:0006832d       ?LoadLastOriginalState@CMFCToolBar@@MAEHAAVCSettingsStore@@@Z 0046932d f   nafxcw:afxtoolbar.obj
 0001:0006839f       ?LoadMenuA@CMenu@@QAEHI@Z  0046939f f i nafxcw:afxtoolbar.obj
 0001:000683c8       ?LoadResetOriginalState@CMFCToolBar@@IAEHAAVCSettingsStore@@@Z 004693c8 f   nafxcw:afxtoolbar.obj
 0001:00068472       ?LoadState@CMFCToolBar@@UAEHPBDHI@Z 00469472 f   nafxcw:afxtoolbar.obj
 0001:0006872e       ?LoadToolBar@CMFCToolBar@@UAEHIIIHIII@Z 0046972e f   nafxcw:afxtoolbar.obj
 0001:00068778       ?LoadToolBarEx@CMFCToolBar@@UAEHIAAVCMFCToolBarInfo@@H@Z 00469778 f   nafxcw:afxtoolbar.obj
 0001:000689b3       ?Lookup@?$CMap@PAUHMENU__@@AAPAU1@PAXAAPAX@@QBEHAAPAUHMENU__@@AAPAX@Z 004699b3 f i nafxcw:afxmenuhash.obj
 0001:000689b3       ?Lookup@?$CMap@IAAIPAVCMFCToolBarButton@@AAPAV1@@@QBEHAAIAAPAVCMFCToolBarButton@@@Z 004699b3 f i nafxcw:afxtoolbar.obj
 0001:000689dd       ?NewAssoc@?$CMap@IAAIPAVCMFCToolBarButton@@AAPAV1@@@IAEPAVCAssoc@1@AAI@Z 004699dd f i nafxcw:afxtoolbar.obj
 0001:000689dd       ?NewAssoc@?$CMap@PAUHMENU__@@AAPAU1@PAXAAPAX@@IAEPAVCAssoc@1@AAPAUHMENU__@@@Z 004699dd f i nafxcw:afxmenuhash.obj
 0001:00068a57       ?NextMenu@CMFCToolBar@@UAEHXZ 00469a57 f   nafxcw:afxtoolbar.obj
 0001:00068b4c       ?NotifyControlCommand@CMFCToolBar@@MAEHPAVCMFCToolBarButton@@HHIJ@Z 00469b4c f   nafxcw:afxtoolbar.obj
 0001:00068b9b       ?OnAfterButtonDelete@CMFCToolBar@@MAEXXZ 00469b9b f   nafxcw:afxtoolbar.obj
 0001:00068bbf       ?OnAfterDock@CMFCToolBar@@MAEXPAVCBasePane@@PBUtagRECT@@W4AFX_DOCK_METHOD@@@Z 00469bbf f   nafxcw:afxtoolbar.obj
 0001:00068c3b       ?OnAfterFloat@CMFCToolBar@@MAEXXZ 00469c3b f   nafxcw:afxtoolbar.obj
 0001:00068c87       ?OnBeforeChangeParent@CMFCToolBar@@MAEXPAVCWnd@@H@Z 00469c87 f   nafxcw:afxtoolbar.obj
 0001:00068cc1       ?OnCalcSeparatorRect@CMFCToolBar@@MAEXPAVCMFCToolBarButton@@AAVCRect@@H@Z 00469cc1 f   nafxcw:afxtoolbar.obj
 0001:00068d34       ?OnCancelMode@CMFCToolBar@@IAEXXZ 00469d34 f   nafxcw:afxtoolbar.obj
 0001:00068e60       ?OnChangeHot@CMFCToolBar@@UAEXH@Z 00469e60 f   nafxcw:afxtoolbar.obj
 0001:000690f7       ?OnChangeVisualManager@CMFCToolBar@@UAEXXZ 0046a0f7 f   nafxcw:afxtoolbar.obj
 0001:00069155       ?OnCommand@CMFCToolBar@@MAEHIJ@Z 0046a155 f   nafxcw:afxtoolbar.obj
 0001:0006922e       ?OnContextMenu@CMFCToolBar@@IAEXPAVCWnd@@VCPoint@@@Z 0046a22e f   nafxcw:afxtoolbar.obj
 0001:00069487       ?OnCopyImage@CMFCToolBar@@IAEXXZ 0046a487 f   nafxcw:afxtoolbar.obj
 0001:0006952a       ?OnCreate@CMFCToolBar@@IAEHPAUtagCREATESTRUCTA@@@Z 0046a52a f   nafxcw:afxtoolbar.obj
 0001:0006969e       ?OnCtlColor@CMFCToolBar@@IAEPAUHBRUSH__@@PAVCDC@@PAVCWnd@@I@Z 0046a69e f   nafxcw:afxtoolbar.obj
 0001:0006972f       ?OnCustomizeMode@CMFCToolBar@@MAEXH@Z 0046a72f f   nafxcw:afxtoolbar.obj
 0001:000697a5       ?OnDestroy@CMFCToolBar@@IAEXXZ 0046a7a5 f   nafxcw:afxtoolbar.obj
 0001:0006982a       ?OnDragEnter@CMFCToolBar@@MAEKPAVCOleDataObject@@KVCPoint@@@Z 0046a82a f   nafxcw:afxtoolbar.obj
 0001:00069860       ?OnDragLeave@CMFCToolBar@@MAEXXZ 0046a860 f   nafxcw:afxtoolbar.obj
 0001:000698e7       ?OnDragOver@CMFCToolBar@@MAEKPAVCOleDataObject@@KVCPoint@@@Z 0046a8e7 f   nafxcw:afxtoolbar.obj
 0001:00069a65       ?OnDrop@CMFCToolBar@@MAEHPAVCOleDataObject@@KVCPoint@@@Z 0046aa65 f   nafxcw:afxtoolbar.obj
 0001:00069c45       ?OnGetButton@CMFCToolBar@@IAEJIJ@Z 0046ac45 f   nafxcw:afxtoolbar.obj
 0001:00069c7e       ?OnGetButtonCount@CMFCToolBar@@IAEJIJ@Z 0046ac7e f   nafxcw:afxtoolbar.obj
 0001:00069c87       ?OnGetButtonText@CMFCToolBar@@IAEJIJ@Z 0046ac87 f   nafxcw:afxtoolbar.obj
 0001:00069cca       ?OnGetItemRect@CMFCToolBar@@IAEJIJ@Z 0046acca f   nafxcw:afxtoolbar.obj
 0001:00069ce2       ?OnGlobalFontsChanged@CMFCToolBar@@UAEXXZ 0046ace2 f   nafxcw:afxtoolbar.obj
 0001:00069d21       ?OnHelpHitTest@CMFCToolBar@@IAEJIJ@Z 0046ad21 f   nafxcw:afxtoolbar.obj
 0001:00069dd9       ?OnKillFocus@CMFCToolBar@@IAEXPAVCWnd@@@Z 0046add9 f   nafxcw:afxtoolbar.obj
 0001:00069e1a       ?OnLButtonDblClk@CMFCToolBar@@IAEXIVCPoint@@@Z 0046ae1a f   nafxcw:afxtoolbar.obj
 0001:00069eae       ?OnLButtonDown@CMFCToolBar@@IAEXIVCPoint@@@Z 0046aeae f   nafxcw:afxtoolbar.obj
 0001:0006a570       ?OnLButtonUp@CMFCToolBar@@IAEXIVCPoint@@@Z 0046b570 f   nafxcw:afxtoolbar.obj
 0001:0006a8f1       ?OnMouseLeave@CMFCToolBar@@IAEXXZ 0046b8f1 f   nafxcw:afxtoolbar.obj
 0001:0006aa32       ?OnMouseMove@CMFCToolBar@@IAEXIVCPoint@@@Z 0046ba32 f   nafxcw:afxtoolbar.obj
 0001:0006ae4c       ?OnNcCalcSize@CMFCToolBar@@IAEXHPAUtagNCCALCSIZE_PARAMS@@@Z 0046be4c f   nafxcw:afxtoolbar.obj
 0001:0006ae61       ?OnNcPaint@CMFCToolBar@@IAEXXZ 0046be61 f   nafxcw:afxtoolbar.obj
 0001:0006ae6c       ?OnNeedTipText@CMFCToolBar@@IAEHIPAUtagNMHDR@@PAJ@Z 0046be6c f   nafxcw:afxtoolbar.obj
 0001:0006af8d       ?OnPromptReset@CMFCToolBar@@IAEJIJ@Z 0046bf8d f   nafxcw:afxtoolbar.obj
 0001:0006b059       ?OnRButtonDown@CMFCToolBar@@IAEXIVCPoint@@@Z 0046c059 f   nafxcw:afxtoolbar.obj
 0001:0006b0a4       ?OnSetAccData@CMFCToolBar@@UAEHJ@Z 0046c0a4 f   nafxcw:afxtoolbar.obj
 0001:0006b0df       ?OnSetCursor@CMFCToolBar@@IAEHPAVCWnd@@II@Z 0046c0df f   nafxcw:afxtoolbar.obj
 0001:0006b20b       ?OnSetDefaultButtonText@CMFCToolBar@@UAEHPAVCMFCToolBarButton@@@Z 0046c20b f   nafxcw:afxtoolbar.obj
 0001:0006b2a2       ?OnSetFocus@CMFCToolBar@@IAEXPAVCWnd@@@Z 0046c2a2 f   nafxcw:afxtoolbar.obj
 0001:0006b32c       ?OnSettingChange@CMFCToolBar@@IAEXIPBD@Z 0046c32c f   nafxcw:afxtoolbar.obj
 0001:0006b36a       ?OnShowWindow@CMFCToolBar@@IAEXHI@Z 0046c36a f   nafxcw:afxtoolbar.obj
 0001:0006b3c4       ?OnSize@CMFCToolBar@@IAEXIHH@Z 0046c3c4 f   nafxcw:afxtoolbar.obj
 0001:0006b496       ?OnSysColorChange@CMFCToolBar@@IAEXXZ 0046c496 f   nafxcw:afxtoolbar.obj
 0001:0006b4cc       ?OnToolHitTest@CMFCToolBar@@MBEHVCPoint@@PAUtagTOOLINFOA@@@Z 0046c4cc f   nafxcw:afxtoolbar.obj
 0001:0006b7ce       ?OnToolbarAppearance@CMFCToolBar@@IAEXXZ 0046c7ce f   nafxcw:afxtoolbar.obj
 0001:0006b874       ?OnToolbarDelete@CMFCToolBar@@IAEXXZ 0046c874 f   nafxcw:afxtoolbar.obj
 0001:0006b897       ?OnToolbarImage@CMFCToolBar@@IAEXXZ 0046c897 f   nafxcw:afxtoolbar.obj
 0001:0006b959       ?OnToolbarImageAndText@CMFCToolBar@@IAEXXZ 0046c959 f   nafxcw:afxtoolbar.obj
 0001:0006ba3c       ?OnToolbarNewMenu@CMFCToolBar@@IAEXXZ 0046ca3c f   nafxcw:afxtoolbar.obj
 0001:0006bb13       ?OnToolbarReset@CMFCToolBar@@IAEXXZ 0046cb13 f   nafxcw:afxtoolbar.obj
 0001:0006bbca       ?OnToolbarStartGroup@CMFCToolBar@@IAEXXZ 0046cbca f   nafxcw:afxtoolbar.obj
 0001:0006bc63       ?OnToolbarText@CMFCToolBar@@IAEXXZ 0046cc63 f   nafxcw:afxtoolbar.obj
 0001:0006bccc       ?OnUpdateCmdUI@CMFCToolBar@@UAEXPAVCFrameWnd@@H@Z 0046cccc f   nafxcw:afxtoolbar.obj
 0001:0006bd89       ?OnUpdateToolTips@CMFCToolBar@@IAEJIJ@Z 0046cd89 f   nafxcw:afxtoolbar.obj
 0001:0006bdb2       ?OnUserToolTip@CMFCToolBar@@UBEHPAVCMFCToolBarButton@@AAV?$CStringT@DV?$StrTraitMFC@DV?$ChTraitsCRT@D@ATL@@@@@ATL@@@Z 0046cdb2 f   nafxcw:afxtoolbar.obj
 0001:0006be61       ?OnWindowPosChanged@CMFCToolBar@@IAEXPAUtagWINDOWPOS@@@Z 0046ce61 f   nafxcw:afxtoolbar.obj
 0001:0006bee4       ?OnWindowPosChanging@CMFCToolBar@@IAEXPAUtagWINDOWPOS@@@Z 0046cee4 f   nafxcw:afxtoolbar.obj
 0001:0006bf1a       ?PreTranslateMessage@CMFCToolBar@@MAEHPAUtagMSG@@@Z 0046cf1a f   nafxcw:afxtoolbar.obj
 0001:0006c014       ?PrevMenu@CMFCToolBar@@UAEHXZ 0046d014 f   nafxcw:afxtoolbar.obj
 0001:0006c10a       ?ProcessCommand@CMFCToolBar@@QAEHPAVCMFCToolBarButton@@@Z 0046d10a f   nafxcw:afxtoolbar.obj
 0001:0006c15d       ?RebuildAccelerationKeys@CMFCToolBar@@IAEXXZ 0046d15d f   nafxcw:afxtoolbar.obj
 0001:0006c202       ?RedrawCustomizeButton@CMFCToolBar@@IAEXXZ 0046d202 f   nafxcw:afxtoolbar.obj
 0001:0006c27e       ?RedrawUnderlines@CMFCToolBar@@SGXXZ 0046d27e f   nafxcw:afxtoolbar.obj
 0001:0006c353       ?RemoveAllButtons@CMFCToolBar@@UAEXXZ 0046d353 f   nafxcw:afxtoolbar.obj
 0001:0006c3ab       ?RemoveButton@CMFCToolBar@@UAEHH@Z 0046d3ab f   nafxcw:afxtoolbar.obj
 0001:0006c533       ?RemoveResetStateButton@CMFCToolBar@@IAEHI@Z 0046d533 f   nafxcw:afxtoolbar.obj
 0001:0006c5a7       ?RemoveStateFromRegistry@CMFCToolBar@@UAEHPBDHI@Z 0046d5a7 f   nafxcw:afxtoolbar.obj
 0001:0006c674       ?ResetImages@CMFCToolBar@@UAEXXZ 0046d674 f   nafxcw:afxtoolbar.obj
 0001:0006c6cf       ?RestoreFocus@CMFCToolBar@@UAEXXZ 0046d6cf f   nafxcw:afxtoolbar.obj
 0001:0006c72e       ?RestoreOriginalState@CMFCToolBar@@UAEHXZ 0046d72e f   nafxcw:afxtoolbar.obj
 0001:0006c845       ?SaveOriginalState@CMFCToolBar@@MAEXAAVCSettingsStore@@@Z 0046d845 f   nafxcw:afxtoolbar.obj
 0001:0006c86a       ?SaveResetOriginalState@CMFCToolBar@@IAEXAAVCSettingsStore@@@Z 0046d86a f   nafxcw:afxtoolbar.obj
 0001:0006c88f       ?SaveState@CMFCToolBar@@UAEHPBDHI@Z 0046d88f f   nafxcw:afxtoolbar.obj
 0001:0006cac2       ?SelectDefaultFont@CBasePane@@QAEPAVCFont@@PAVCDC@@@Z 0046dac2 f i nafxcw:afxtoolbar.obj
 0001:0006caf7       ?Serialize@?$CMap@PAUHMENU__@@AAPAU1@PAXAAPAX@@UAEXAAVCArchive@@@Z 0046daf7 f i nafxcw:afxmenuhash.obj
 0001:0006caf7       ?Serialize@?$CMap@IAAIPAVCMFCToolBarButton@@AAPAV1@@@UAEXAAVCArchive@@@Z 0046daf7 f i nafxcw:afxtoolbar.obj
 0001:0006cb9f       ?Serialize@CMFCToolBar@@UAEXAAVCArchive@@@Z 0046db9f f   nafxcw:afxtoolbar.obj
 0001:0006ce05       ?SetButtonStyle@CMFCToolBar@@UAEXHI@Z 0046de05 f   nafxcw:afxtoolbar.obj
 0001:0006ce57       ?SetButtonText@CMFCToolBar@@QAEHHPBD@Z 0046de57 f   nafxcw:afxtoolbar.obj
 0001:0006ce84       ?SetButtons@CMFCToolBar@@UAEHPBIHH@Z 0046de84 f   nafxcw:afxtoolbar.obj
 0001:0006d200       ?SetCheck@CMFCToolBarCmdUI@@UAEXH@Z 0046e200 f   nafxcw:afxtoolbar.obj
 0001:0006d262       ?SetCustomizeMode@CMFCToolBar@@SGHH@Z 0046e262 f   nafxcw:afxtoolbar.obj
 0001:0006d3cb       ?SetHelpMode@CMFCToolBar@@SGXH@Z 0046e3cb f   nafxcw:afxtoolbar.obj
 0001:0006d450       ?SetHot@CMFCToolBar@@QAEHPAVCMFCToolBarButton@@@Z 0046e450 f   nafxcw:afxtoolbar.obj
 0001:0006d4d7       ?SetLargeIcons@CMFCToolBar@@SGXH@Z 0046e4d7 f   nafxcw:afxtoolbar.obj
 0001:0006d789       ?SetLockedSizes@CMFCToolBar@@QAEXUtagSIZE@@0H@Z 0046e789 f   nafxcw:afxtoolbar.obj
 0001:0006d934       ?SetOneRowWithSibling@CMFCToolBar@@QAEXXZ 0046e934 f   nafxcw:afxtoolbar.obj
 0001:0006d999       ?SetRadio@CMFCToolBarCmdUI@@UAEXH@Z 0046e999 f   nafxcw:afxtoolbar.obj
 0001:0006d9d1       ?SetRoundedRgn@CMFCToolBar@@IAEXXZ 0046e9d1 f   nafxcw:afxtoolbar.obj
 0001:0006da82       ?SetSizes@CMFCToolBar@@SGXUtagSIZE@@0@Z 0046ea82 f   nafxcw:afxtoolbar.obj
 0001:0006dc50       ?SetText@CMFCToolBarCmdUI@@UAEXPBD@Z 0046ec50 f   nafxcw:afxtoolbar.obj
 0001:0006dd3d       ?SetToolBarBtnText@CMFCToolBar@@QAEXIPBDHH@Z 0046ed3d f   nafxcw:afxtoolbar.obj
 0001:0006dd88       ?SetTwoRowsWithSibling@CMFCToolBar@@QAEXXZ 0046ed88 f   nafxcw:afxtoolbar.obj
 0001:0006deb9       ?Show@CMFCToolBarButton@@QAEXH@Z 0046eeb9 f i nafxcw:afxtoolbar.obj
 0001:0006ded9       ?ShowCommandMessageString@CMFCToolBar@@MAEXI@Z 0046eed9 f   nafxcw:afxtoolbar.obj
 0001:0006df47       ?SizeToolBar@CMFCToolBar@@IAEXHH@Z 0046ef47 f   nafxcw:afxtoolbar.obj
 0001:0006e116       ?SmartUpdate@CMFCToolBar@@MAEHABVCObList@@@Z 0046f116 f   nafxcw:afxtoolbar.obj
 0001:0006e430       ?StretchPane@CMFCToolBar@@UAE?AVCSize@@HH@Z 0046f430 f   nafxcw:afxtoolbar.obj
 0001:0006e510       ?ToolBarMouseHookProc@CMFCToolBar@@KGJHIJ@Z 0046f510 f   nafxcw:afxtoolbar.obj
 0001:0006e65f       ?TranslateChar@CMFCToolBar@@UAEHI@Z 0046f65f f   nafxcw:afxtoolbar.obj
 0001:0006e6d8       ?UpdateButton@CMFCToolBar@@QAEXH@Z 0046f6d8 f   nafxcw:afxtoolbar.obj
 0001:0006e790       ?UpdateImagesColor@CMFCToolBar@@IAEXXZ 0046f790 f   nafxcw:afxtoolbar.obj
 0001:0006e832       ?UpdateTooltips@CMFCToolBar@@IAEXXZ 0046f832 f   nafxcw:afxtoolbar.obj
 0001:0006e945       ?WrapToolBar@CMFCToolBar@@QAEHHHPAVCDC@@HH@Z 0046f945 f   nafxcw:afxtoolbar.obj
 0001:0006eb83       ?accDoDefaultAction@CMFCToolBar@@MAEJUtagVARIANT@@@Z 0046fb83 f   nafxcw:afxtoolbar.obj
 0001:0006ebf2       ?accHitTest@CMFCToolBar@@MAEJJJPAUtagVARIANT@@@Z 0046fbf2 f   nafxcw:afxtoolbar.obj
 0001:0006eca6       ?accNavigate@CMFCToolBar@@MAEJJUtagVARIANT@@PAU2@@Z 0046fca6 f   nafxcw:afxtoolbar.obj
 0001:0006ed4b       ?get_accChild@CMFCToolBar@@MAEJUtagVARIANT@@PAPAUIDispatch@@@Z 0046fd4b f   nafxcw:afxtoolbar.obj
 0001:0006edb6       ?get_accChildCount@CMFCToolBar@@MAEJPAJ@Z 0046fdb6 f   nafxcw:afxtoolbar.obj
 0001:0006edd9       ?GetMenuByName@CContextMenuManager@@QBEPAUHMENU__@@PBDPAI@Z 0046fdd9 f   nafxcw:afxcontextmenumanager.obj
 0001:0006ee3f       ?GetMenuNames@CContextMenuManager@@QBEXAAVCStringList@@@Z 0046fe3f f   nafxcw:afxcontextmenumanager.obj
 0001:0006eeb0       ?Lookup@?$CMap@V?$CStringT@DV?$StrTraitMFC@DV?$ChTraitsCRT@D@ATL@@@@@ATL@@PBDPAVCObList@@PAV3@@@QBEHPBDAAPAVCObList@@@Z 0046feb0 f i nafxcw:afxtoolbarscustomizedialog.obj
 0001:0006eeb0       ?Lookup@?$CMap@V?$CStringT@DV?$StrTraitMFC@DV?$ChTraitsCRT@D@ATL@@@@@ATL@@PBDPAUHMENU__@@PAU3@@@QBEHPBDAAPAUHMENU__@@@Z 0046feb0 f i nafxcw:afxcontextmenumanager.obj
 0001:0006eeb0       ?Lookup@?$CMap@V?$CStringT@DV?$StrTraitMFC@DV?$ChTraitsCRT@D@ATL@@@@@ATL@@PBDHH@@QBEHPBDAAH@Z 0046feb0 f i nafxcw:afxmousemanager.obj
 0001:0006eeb0       ?Lookup@?$CMap@V?$CStringT@DV?$StrTraitMFC@DV?$ChTraitsCRT@D@ATL@@@@@ATL@@PBDPAVCDocument@@PAV3@@@QBEHPBDAAPAVCDocument@@@Z 0046feb0 f i nafxcw:afxdatarecovery.obj
 0001:0006eeda       ??0?$CMap@HHHH@@QAE@H@Z    0046feda f i nafxcw:afxheaderctrl.obj
 0001:0006ef04       ??0CMFCHeaderCtrl@@QAE@XZ  0046ff04 f   nafxcw:afxheaderctrl.obj
 0001:0006ef51       ??1?$CMap@HHHH@@UAE@XZ     0046ff51 f i nafxcw:afxheaderctrl.obj
 0001:0006ef5c       ??1CMFCHeaderCtrl@@UAE@XZ  0046ff5c f   nafxcw:afxheaderctrl.obj
 0001:0006ef96       ??A?$CMap@IIKK@@QAEAAKI@Z  0046ff96 f i nafxcw:afxcolorbar.obj
 0001:0006ef96       ??A?$CMap@HHII@@QAEAAIH@Z  0046ff96 f i nafxcw:afxvslistbox.obj
 0001:0006ef96       ??A?$CMap@PAUHICON__@@PAU1@HH@@QAEAAHPAUHICON__@@@Z 0046ff96 f i nafxcw:afxbasetabctrl.obj
 0001:0006ef96       ??A?$CMap@IIII@@QAEAAII@Z  0046ff96 f i nafxcw:afxpopupmenubar.obj
 0001:0006ef96       ??A?$CMap@PAVCWnd@@PAV1@PAVCImageList@@PAV2@@@QAEAAPAVCImageList@@PAVCWnd@@@Z 0046ff96 f i nafxcw:afxmdiclientareawnd.obj
 0001:0006ef96       ??A?$CMap@IIPAUHICON__@@PAU1@@@QAEAAPAUHICON__@@I@Z 0046ff96 f i nafxcw:afxtabctrl.obj
 0001:0006ef96       ??A?$CMap@IIPAVCMFCRibbonStatusBarPane@@PAV1@@@QAEAAPAVCMFCRibbonStatusBarPane@@I@Z 0046ff96 f i nafxcw:afxribbonstatusbarpane.obj
 0001:0006ef96       ??A?$CMap@PAUHWND__@@PAU1@HH@@QAEAAHPAUHWND__@@@Z 0046ff96 f i nafxcw:afxvisualmanageroffice2007.obj
 0001:0006ef96       ??A?$CMap@HHHH@@QAEAAHH@Z  0046ff96 f i nafxcw:afxheaderctrl.obj
 0001:0006ef96       ??A?$CMap@IIPAVCPane@@PAV1@@@QAEAAPAVCPane@@I@Z 0046ff96 f i nafxcw:afxdockingmanager.obj
 0001:0006ef96       ??A?$CMap@PAVCWnd@@PAV1@PAVCHwndRenderTarget@@PAV2@@@QAEAAPAVCHwndRenderTarget@@PAVCWnd@@@Z 0046ff96 f i nafxcw:wincore.obj
 0001:0006ef96       ??A?$CMap@IIPAUHWND__@@PAU1@@@QAEAAPAUHWND__@@I@Z 0046ff96 f i nafxcw:afxpaneframewnd.obj
 0001:0006ef96       ??A?$CMap@IIHH@@QAEAAHI@Z  0046ff96 f i nafxcw:afxtoolbarimages.obj
 0001:0006efff       ??_G?$CMap@HHHH@@UAEPAXI@Z 0046ffff f i nafxcw:afxheaderctrl.obj
 0001:0006efff       ??_E?$CMap@HHHH@@UAEPAXI@Z 0046ffff f i nafxcw:afxheaderctrl.obj
 0001:0006f024       ??_ECMFCHeaderCtrl@@UAEPAXI@Z 00470024 f i nafxcw:afxheaderctrl.obj
 0001:0006f024       ??_GCMFCHeaderCtrl@@UAEPAXI@Z 00470024 f i nafxcw:afxheaderctrl.obj
 0001:0006f043       ?CommonInit@CMFCHeaderCtrl@@IAEXXZ 00470043 f   nafxcw:afxheaderctrl.obj
 0001:0006f080       ?GetColumnState@CMFCHeaderCtrl@@QBEHH@Z 00470080 f   nafxcw:afxheaderctrl.obj
 0001:0006f0a0       ?GetImageList@CHeaderCtrl@@QBEPAVCImageList@@H@Z 004700a0 f i nafxcw:afxheaderctrl.obj
 0001:0006f0c0       ?GetMessageMap@CMFCHeaderCtrl@@MBEPBUAFX_MSGMAP@@XZ 004700c0 f   nafxcw:afxheaderctrl.obj
 0001:0006f0c6       ?GetRuntimeClass@CMFCHeaderCtrl@@UBEPAUCRuntimeClass@@XZ 004700c6 f   nafxcw:afxheaderctrl.obj
 0001:0006f0cc       ?OnCancelMode@CMFCHeaderCtrl@@IAEXXZ 004700cc f   nafxcw:afxheaderctrl.obj
 0001:0006f0f7       ?OnCreate@CMFCHeaderCtrl@@IAEHPAUtagCREATESTRUCTA@@@Z 004700f7 f   nafxcw:afxheaderctrl.obj
 0001:0006f115       ?OnDrawItem@CMFCHeaderCtrl@@MAEXPAVCDC@@HVCRect@@HH@Z 00470115 f   nafxcw:afxheaderctrl.obj
 0001:0006f477       ?OnDrawSortArrow@CMFCHeaderCtrl@@MAEXPAVCDC@@VCRect@@@Z 00470477 f   nafxcw:afxheaderctrl.obj
 0001:0006f4a2       ?OnFillBackground@CMFCHeaderCtrl@@MAEXPAVCDC@@@Z 004704a2 f   nafxcw:afxheaderctrl.obj
 0001:0006f50a       ?OnLButtonDown@CMFCHeaderCtrl@@IAEXIVCPoint@@@Z 0047050a f   nafxcw:afxheaderctrl.obj
 0001:0006f51c       ?OnLButtonUp@CMFCHeaderCtrl@@IAEXIVCPoint@@@Z 0047051c f   nafxcw:afxheaderctrl.obj
 0001:0006f52b       ?OnMouseLeave@CMFCHeaderCtrl@@IAEXXZ 0047052b f   nafxcw:afxheaderctrl.obj
 0001:0006f553       ?OnMouseMove@CMFCHeaderCtrl@@IAEXIVCPoint@@@Z 00470553 f   nafxcw:afxheaderctrl.obj
 0001:0006f60e       ?OnPaint@CMFCHeaderCtrl@@IAEXXZ 0047060e f   nafxcw:afxheaderctrl.obj
 0001:0006f901       ?OnSetFont@CMFCHeaderCtrl@@IAEXPAVCFont@@H@Z 00470901 f   nafxcw:afxheaderctrl.obj
 0001:0006f938       ?PreSubclassWindow@CMFCHeaderCtrl@@MAEXXZ 00470938 f   nafxcw:afxheaderctrl.obj
 0001:0006f948       ?SelectFont@CMFCHeaderCtrl@@IAEPAVCFont@@PAVCDC@@@Z 00470948 f   nafxcw:afxheaderctrl.obj
 0001:0006f998       ?SetSortColumn@CMFCHeaderCtrl@@QAEXHHH@Z 00470998 f   nafxcw:afxheaderctrl.obj
 0001:0006f9fe       ??0CMFCPropertyGridToolTipCtrl@@QAE@XZ 004709fe f   nafxcw:afxpropertygridtooltipctrl.obj
 0001:0006fa4d       ??1CMFCPropertyGridToolTipCtrl@@UAE@XZ 00470a4d f   nafxcw:afxpropertygridtooltipctrl.obj
 0001:0006fa69       ??_ECMFCPropertyGridToolTipCtrl@@UAEPAXI@Z 00470a69 f i nafxcw:afxpropertygridtooltipctrl.obj
 0001:0006fa69       ??_GCMFCPropertyGridToolTipCtrl@@UAEPAXI@Z 00470a69 f i nafxcw:afxpropertygridtooltipctrl.obj
 0001:0006fa88       ?Create@CMFCPropertyGridToolTipCtrl@@UAEHPAVCWnd@@@Z 00470a88 f   nafxcw:afxpropertygridtooltipctrl.obj
 0001:0006faf9       ?Deactivate@CMFCPropertyGridToolTipCtrl@@QAEXXZ 00470af9 f   nafxcw:afxpropertygridtooltipctrl.obj
 0001:0006fb16       ?GetMessageMap@CMFCPropertyGridToolTipCtrl@@MBEPBUAFX_MSGMAP@@XZ 00470b16 f   nafxcw:afxpropertygridtooltipctrl.obj
 0001:0006fb1c       ?GetRuntimeClass@CMFCPropertyGridToolTipCtrl@@UBEPAUCRuntimeClass@@XZ 00470b1c f   nafxcw:afxpropertygridtooltipctrl.obj
 0001:0006fb22       ?Hide@CMFCPropertyGridToolTipCtrl@@QAEXXZ 00470b22 f   nafxcw:afxpropertygridtooltipctrl.obj
 0001:0006fb34       ?OnPaint@CMFCPropertyGridToolTipCtrl@@IAEXXZ 00470b34 f   nafxcw:afxpropertygridtooltipctrl.obj
 0001:0006fd6b       ?OnSetFont@CMFCPropertyGridToolTipCtrl@@IAEXPAVCFont@@H@Z 00470d6b f   nafxcw:afxpropertygridtooltipctrl.obj
 0001:0006fda2       ?PreTranslateMessage@CMFCPropertyGridToolTipCtrl@@UAEHPAUtagMSG@@@Z 00470da2 f   nafxcw:afxpropertygridtooltipctrl.obj
 0001:0006fe2f       ?Track@CMFCPropertyGridToolTipCtrl@@QAEXVCRect@@ABV?$CStringT@DV?$StrTraitMFC@DV?$ChTraitsCRT@D@ATL@@@@@ATL@@@Z 00470e2f f   nafxcw:afxpropertygridtooltipctrl.obj
 0001:000700e6       ?GetRegSectionPath@CWinAppEx@@QAE?AV?$CStringT@DV?$StrTraitMFC@DV?$ChTraitsCRT@D@ATL@@@@@ATL@@PBD@Z 004710e6 f   nafxcw:afxwinappex.obj
 0001:00070149       ?LoadState@CWinAppEx@@QAEHPAVCFrameWndEx@@PBD@Z 00471149 f   nafxcw:afxwinappex.obj
 0001:00070164       ?LoadState@CWinAppEx@@QAEHPAVCMDIFrameWndEx@@PBD@Z 00471164 f   nafxcw:afxwinappex.obj
 0001:0007017f       ??0CMFCSpinButtonCtrl@@QAE@XZ 0047117f f   nafxcw:afxspinbuttonctrl.obj
 0001:000701a8       ??1CMFCSpinButtonCtrl@@UAE@XZ 004711a8 f   nafxcw:afxspinbuttonctrl.obj
 0001:000701b3       ??_ECMFCSpinButtonCtrl@@UAEPAXI@Z 004711b3 f i nafxcw:afxspinbuttonctrl.obj
 0001:000701b3       ??_GCMFCSpinButtonCtrl@@UAEPAXI@Z 004711b3 f i nafxcw:afxspinbuttonctrl.obj
 0001:000701d8       ?GetMessageMap@CMFCSpinButtonCtrl@@MBEPBUAFX_MSGMAP@@XZ 004711d8 f   nafxcw:afxspinbuttonctrl.obj
 0001:000701d8       ?GetThisMessageMap@CMFCSpinButtonCtrl@@KGPBUAFX_MSGMAP@@XZ 004711d8 f   nafxcw:afxspinbuttonctrl.obj
 0001:000701de       ?OnCancelMode@CMFCSpinButtonCtrl@@IAEXXZ 004711de f   nafxcw:afxspinbuttonctrl.obj
 0001:000701f9       ?OnDraw@CMFCSpinButtonCtrl@@UAEXPAVCDC@@@Z 004711f9 f   nafxcw:afxspinbuttonctrl.obj
 0001:000702d9       ?OnLButtonDown@CMFCSpinButtonCtrl@@IAEXIVCPoint@@@Z 004712d9 f   nafxcw:afxspinbuttonctrl.obj
 0001:0007036c       ?OnLButtonUp@CMFCSpinButtonCtrl@@IAEXIVCPoint@@@Z 0047136c f   nafxcw:afxspinbuttonctrl.obj
 0001:00070385       ?OnMouseLeave@CMFCSpinButtonCtrl@@IAEXXZ 00471385 f   nafxcw:afxspinbuttonctrl.obj
 0001:000703be       ?OnMouseMove@CMFCSpinButtonCtrl@@IAEXIVCPoint@@@Z 004713be f   nafxcw:afxspinbuttonctrl.obj
 0001:000704c8       ?OnPaint@CMFCSpinButtonCtrl@@IAEXXZ 004714c8 f   nafxcw:afxspinbuttonctrl.obj
 0001:00070535       ??0CMFCAcceleratorKey@@QAE@PAUtagACCEL@@@Z 00471535 f   nafxcw:afxacceleratorkey.obj
 0001:0007054a       ??1CMFCAcceleratorKey@@UAE@XZ 0047154a f   nafxcw:afxacceleratorkey.obj
 0001:00070551       ??_GCMFCAcceleratorKey@@UAEPAXI@Z 00471551 f i nafxcw:afxacceleratorkey.obj
 0001:00070551       ??_ECMFCAcceleratorKey@@UAEPAXI@Z 00471551 f i nafxcw:afxacceleratorkey.obj
 0001:00070571       ?AddVirtKeyStr@CMFCAcceleratorKey@@IBEXAAV?$CStringT@DV?$StrTraitMFC@DV?$ChTraitsCRT@D@ATL@@@@@ATL@@IH@Z 00471571 f   nafxcw:afxacceleratorkey.obj
 0001:0007066c       ?Format@CMFCAcceleratorKey@@QBEXAAV?$CStringT@DV?$StrTraitMFC@DV?$ChTraitsCRT@D@ATL@@@@@ATL@@@Z 0047166c f   nafxcw:afxacceleratorkey.obj
 0001:000706ef       ??0CPtrArray@@QAE@XZ       004716ef f   nafxcw:array_p.obj
 0001:00070706       ??1CPtrArray@@UAE@XZ       00471706 f   nafxcw:array_p.obj
 0001:00070716       ??_GCPtrArray@@UAEPAXI@Z   00471716 f i nafxcw:array_p.obj
 0001:00070716       ??_ECPtrArray@@UAEPAXI@Z   00471716 f i nafxcw:array_p.obj
 0001:00070735       ?GetRuntimeClass@CPtrArray@@UBEPAUCRuntimeClass@@XZ 00471735 f   nafxcw:array_p.obj
 0001:0007073b       ?InsertAt@CPtrArray@@QAEXHPAXH@Z 0047173b f   nafxcw:array_p.obj
 0001:000707e8       ?CreateObject@CStringArray@@SGPAVCObject@@XZ 004717e8 f   nafxcw:array_s.obj
 0001:000707fe       ??0CStringArray@@QAE@XZ    004717fe f   nafxcw:array_s.obj
 0001:00070815       ??1CStringArray@@UAE@XZ    00471815 f   nafxcw:array_s.obj
 0001:000708f3       ??_ECStringArray@@UAEPAXI@Z 004718f3 f i nafxcw:array_s.obj
 0001:000708f3       ??_GCStringArray@@UAEPAXI@Z 004718f3 f i nafxcw:array_s.obj
 0001:00070912       ?Copy@CStringArray@@QAEXABV1@@Z 00471912 f   nafxcw:array_s.obj
 0001:00070941       ?GetRuntimeClass@CStringArray@@UBEPAUCRuntimeClass@@XZ 00471941 f   nafxcw:array_s.obj
 0001:00070947       ?RemoveAt@CStringArray@@QAEXHH@Z 00471947 f   nafxcw:array_s.obj
 0001:000709bb       ?Serialize@CStringArray@@UAEXAAVCArchive@@@Z 004719bb f   nafxcw:array_s.obj
 0001:00070a27       ?SetAtGrow@CStringArray@@QAEXHABV?$CStringT@DV?$StrTraitMFC@DV?$ChTraitsCRT@D@ATL@@@@@ATL@@@Z 00471a27 f   nafxcw:array_s.obj
 0001:00070a78       ?SetAtGrow@CStringArray@@QAEXHPBD@Z 00471a78 f   nafxcw:array_s.obj
 0001:00070ab0       ?SetSize@CStringArray@@QAEXHH@Z 00471ab0 f   nafxcw:array_s.obj
 0001:00070c75       ?CreateObject@CMFCControlRenderer@@SGPAVCObject@@XZ 00471c75 f   nafxcw:afxcontrolrenderer.obj
 0001:00070ca5       ?CreateObject@CMFCShadowRenderer@@SGPAVCObject@@XZ 00471ca5 f   nafxcw:afxcontrolrenderer.obj
 0001:00070cd5       ??0CMFCControlRenderer@@QAE@XZ 00471cd5 f   nafxcw:afxcontrolrenderer.obj
 0001:00070d19       ??0CMFCControlRendererInfo@@QAE@PBDABVCRect@@111@Z 00471d19 f   nafxcw:afxcontrolrenderer.obj
 0001:00070db1       ??0CMFCControlRendererInfo@@QAE@XZ 00471db1 f   nafxcw:afxcontrolrenderer.obj
 0001:00070dff       ??0CMFCShadowRenderer@@QAE@XZ 00471dff f   nafxcw:afxcontrolrenderer.obj
 0001:00070e11       ??1CMFCControlRenderer@@UAE@XZ 00471e11 f   nafxcw:afxcontrolrenderer.obj
 0001:00070e54       ??1CMFCControlRendererInfo@@QAE@XZ 00471e54 f   nafxcw:afxcontrolrenderer.obj
 0001:00070e5f       ??1CMFCShadowRenderer@@UAE@XZ 00471e5f f   nafxcw:afxcontrolrenderer.obj
 0001:00070e6a       ??4CMFCControlRendererInfo@@QAEAAV0@ABV0@@Z 00471e6a f   nafxcw:afxcontrolrenderer.obj
 0001:00070ec9       ??_ECMFCControlRenderer@@UAEPAXI@Z 00471ec9 f i nafxcw:afxcontrolrenderer.obj
 0001:00070ec9       ??_GCMFCControlRenderer@@UAEPAXI@Z 00471ec9 f i nafxcw:afxcontrolrenderer.obj
 0001:00070ee8       ??_GCMFCShadowRenderer@@UAEPAXI@Z 00471ee8 f i nafxcw:afxcontrolrenderer.obj
 0001:00070ee8       ??_ECMFCShadowRenderer@@UAEPAXI@Z 00471ee8 f i nafxcw:afxcontrolrenderer.obj
 0001:00070f0d       ?CleanUp@CMFCControlRenderer@@UAEXXZ 00471f0d f   nafxcw:afxcontrolrenderer.obj
 0001:00070f60       ?CommonInit@CMFCControlRendererInfo@@QAEXXZ 00471f60 f   nafxcw:afxcontrolrenderer.obj
 0001:00070f9e       ?Create@CMFCControlRenderer@@UAEHABVCMFCControlRendererInfo@@H@Z 00471f9e f   nafxcw:afxcontrolrenderer.obj
 0001:00071159       ?Create@CMFCShadowRenderer@@UAEHHKHH@Z 00472159 f   nafxcw:afxcontrolrenderer.obj
 0001:0007127e       ?Draw@CMFCControlRenderer@@UAEXPAVCDC@@VCRect@@IE@Z 0047227e f   nafxcw:afxcontrolrenderer.obj
 0001:000712f9       ?Draw@CMFCShadowRenderer@@UAEXPAVCDC@@VCRect@@IE@Z 004722f9 f   nafxcw:afxcontrolrenderer.obj
 0001:00071393       ?DrawFrame@CMFCControlRenderer@@UAEXPAVCDC@@VCRect@@IE@Z 00472393 f   nafxcw:afxcontrolrenderer.obj
 0001:00071867       ?DrawFrame@CMFCShadowRenderer@@UAEXPAVCDC@@VCRect@@IE@Z 00472867 f   nafxcw:afxcontrolrenderer.obj
 0001:00071b90       ?FillInterior@CMFCControlRenderer@@UAEXPAVCDC@@VCRect@@IE@Z 00472b90 f   nafxcw:afxcontrolrenderer.obj
 0001:00071bb9       ?FillInterior@CMFCControlRenderer@@UAEXPAVCDC@@VCRect@@W4ImageAlignHorz@CMFCToolBarImages@@W4ImageAlignVert@5@IE@Z 00472bb9 f   nafxcw:afxcontrolrenderer.obj
 0001:00071c98       ?GetResourceID@CMFCControlRendererInfo@@QBEPBDXZ 00472c98 f   nafxcw:afxcontrolrenderer.obj
 0001:00071ca5       ?GetRuntimeClass@CMFCControlRenderer@@UBEPAUCRuntimeClass@@XZ 00472ca5 f   nafxcw:afxcontrolrenderer.obj
 0001:00071cab       ?GetRuntimeClass@CMFCShadowRenderer@@UBEPAUCRuntimeClass@@XZ 00472cab f   nafxcw:afxcontrolrenderer.obj
 0001:00071cb1       ?Mirror@CMFCControlRenderer@@UAEXXZ 00472cb1 f   nafxcw:afxcontrolrenderer.obj
 0001:00071cd3       ?OnSysColorChange@CMFCControlRenderer@@UAEXXZ 00472cd3 f   nafxcw:afxcontrolrenderer.obj
 0001:00071d77       ?SetResourceID@CMFCControlRendererInfo@@QAEXPBD@Z 00472d77 f   nafxcw:afxcontrolrenderer.obj
 0001:00071d95       ?SmoothResize@CMFCControlRenderer@@QAEHN@Z 00472d95 f   nafxcw:afxcontrolrenderer.obj
 0001:00071dfa       ??0CMapStringToPtr@@QAE@H@Z 00472dfa f   nafxcw:map_sp.obj
 0001:00071e2b       ??1CMapStringToPtr@@UAE@XZ 00472e2b f   nafxcw:map_sp.obj
 0001:00071e36       ??ACMapStringToPtr@@QAEAAPAXPBD@Z 00472e36 f   nafxcw:map_sp.obj
 0001:00071e9c       ??_GCMapStringToPtr@@UAEPAXI@Z 00472e9c f i nafxcw:map_sp.obj
 0001:00071e9c       ??_ECMapStringToPtr@@UAEPAXI@Z 00472e9c f i nafxcw:map_sp.obj
 0001:00071ec1       ?GetAssocAt@CMapStringToPtr@@IBEPAUCAssoc@1@PBDAAI1@Z 00472ec1 f   nafxcw:map_sp.obj
 0001:00071f13       ?GetRuntimeClass@CMapStringToPtr@@UBEPAUCRuntimeClass@@XZ 00472f13 f   nafxcw:map_sp.obj
 0001:00071f19       ?HashKey@CMapStringToPtr@@QBEIPBD@Z 00472f19 f i nafxcw:map_sp.obj
 0001:00071f6d       ?Lookup@CMapStringToPtr@@QBEHPBDAAPAX@Z 00472f6d f   nafxcw:map_sp.obj
 0001:00071f97       ?LookupKey@CMapStringToPtr@@QBEHPBDAAPBD@Z 00472f97 f   nafxcw:map_sp.obj
 0001:00071fc1       ?NewAssoc@CMapStringToPtr@@IAEPAUCAssoc@1@XZ 00472fc1 f   nafxcw:map_sp.obj
 0001:00072022       ?RemoveAll@CMapStringToPtr@@QAEXXZ 00473022 f   nafxcw:map_sp.obj
 0001:00072081       ??0CControlBar@@IAE@XZ     00473081 f   nafxcw:barcore.obj
 0001:000720fd       ??1CControlBar@@UAE@XZ     004730fd f   nafxcw:barcore.obj
 0001:00072175       ?CalcDynamicLayout@CControlBar@@UAE?AVCSize@@HK@Z 00473175 f   nafxcw:barcore.obj
 0001:00072199       ?CalcInsideRect@CControlBar@@UBEXAAVCRect@@H@Z 00473199 f   nafxcw:barcore.obj
 0001:0007225d       ?DelayShow@CControlBar@@UAEXH@Z 0047325d f   nafxcw:barcore.obj
 0001:00072298       ?DestroyWindow@CControlBar@@UAEHXZ 00473298 f   nafxcw:barcore.obj
 0001:000722c1       ?DrawBorders@CControlBar@@UAEXPAVCDC@@AAVCRect@@@Z 004732c1 f   nafxcw:barcore.obj
 0001:00072545       ?DrawGripper@CControlBar@@UAEXPAVCDC@@ABVCRect@@@Z 00473545 f   nafxcw:barcore.obj
 0001:00072592       ?DrawNCGripper@CControlBar@@UAEXPAVCDC@@ABVCRect@@@Z 00473592 f   nafxcw:barcore.obj
 0001:000725df       ?DrawNonThemedGripper@CControlBar@@UAEHPAVCDC@@ABVCRect@@@Z 004735df f   nafxcw:barcore.obj
 0001:0007267d       ?DrawThemedGripper@CControlBar@@UAEHPAVCDC@@ABVCRect@@H@Z 0047367d f   nafxcw:barcore.obj
 0001:00072881       ?EraseNonClient@CControlBar@@QAEXXZ 00473881 f   nafxcw:barcore.obj
 0001:00072963       ?GetThisMessageMap@CControlBar@@KGPBUAFX_MSGMAP@@XZ 00473963 f   nafxcw:barcore.obj
 0001:00072969       ?IsVisible@CControlBar@@UBEHXZ 00473969 f   nafxcw:barcore.obj
 0001:0007298a       ?OnCreate@CControlBar@@QAEHPAUtagCREATESTRUCTA@@@Z 0047398a f   nafxcw:barcore.obj
 0001:00072a27       ?OnCtlColor@CControlBar@@QAEPAUHBRUSH__@@PAVCDC@@PAVCWnd@@I@Z 00473a27 f   nafxcw:barcore.obj
 0001:00072a86       ?OnDestroy@CControlBar@@QAEXXZ 00473a86 f   nafxcw:barcore.obj
 0001:00072af2       ?OnIdleUpdateCmdUI@CControlBar@@QAEJIJ@Z 00473af2 f   nafxcw:barcore.obj
 0001:00072ba6       ?OnInitialUpdate@CControlBar@@QAEXXZ 00473ba6 f   nafxcw:barcore.obj
 0001:00072bb0       ?OnLButtonDblClk@CControlBar@@QAEXIVCPoint@@@Z 00473bb0 f   nafxcw:barcore.obj
 0001:00072bea       ?OnLButtonDown@CControlBar@@QAEXIVCPoint@@@Z 00473bea f   nafxcw:barcore.obj
 0001:00072c36       ?OnMouseActivate@CControlBar@@QAEHPAVCWnd@@II@Z 00473c36 f   nafxcw:barcore.obj
 0001:00072c57       ?OnPaint@CControlBar@@QAEXXZ 00473c57 f   nafxcw:barcore.obj
 0001:00072ca0       ?OnSizeParent@CControlBar@@QAEJIJ@Z 00473ca0 f   nafxcw:barcore.obj
 0001:00072e0a       ?OnThemeChanged@CControlBar@@QAEJXZ 00473e0a f   nafxcw:barcore.obj
 0001:00072e55       ?OnTimer@CControlBar@@QAEXI@Z 00473e55 f   nafxcw:barcore.obj
 0001:00072fd4       ?OnWindowPosChanging@CControlBar@@QAEXPAUtagWINDOWPOS@@@Z 00473fd4 f   nafxcw:barcore.obj
 0001:00073101       ?PostNcDestroy@CControlBar@@UAEXXZ 00474101 f   nafxcw:barcore.obj
 0001:0007310f       ?PreCreateWindow@CControlBar@@UAEHAAUtagCREATESTRUCTA@@@Z 0047410f f   nafxcw:barcore.obj
 0001:0007318a       ?PreTranslateMessage@CControlBar@@UAEHPAUtagMSG@@@Z 0047418a f   nafxcw:barcore.obj
 0001:000733b6       ?RecalcDelayShow@CControlBar@@UAEKPAUAFX_SIZEPARENTPARAMS@@@Z 004743b6 f   nafxcw:barcore.obj
 0001:00073441       ?ResetTimer@CControlBar@@QAEXII@Z 00474441 f   nafxcw:barcore.obj
 0001:00073479       ?SetStatusText@CControlBar@@UAEHH@Z 00474479 f   nafxcw:barcore.obj
 0001:00073516       ?WindowProc@CControlBar@@UAEJIIJ@Z 00474516 f   nafxcw:barcore.obj
 0001:00073604       ??0COleStreamFile@@QAE@PAUIStream@@@Z 00474604 f   nafxcw:olestrm.obj
 0001:000736eb       ??1COleStreamFile@@UAE@XZ  004746eb f   nafxcw:olestrm.obj
 0001:000737f6       ??_GCOleStreamFile@@UAEPAXI@Z 004747f6 f i nafxcw:olestrm.obj
 0001:000737f6       ??_ECOleStreamFile@@UAEPAXI@Z 004747f6 f i nafxcw:olestrm.obj
 0001:00073815       ?Abort@COleStreamFile@@UAEXXZ 00474815 f   nafxcw:olestrm.obj
 0001:00073838       ?Attach@COleStreamFile@@QAEXPAUIStream@@@Z 00474838 f   nafxcw:olestrm.obj
 0001:00073853       ?Close@COleStreamFile@@UAEXXZ 00474853 f   nafxcw:olestrm.obj
 0001:00073874       ?CreateMemoryStream@COleStreamFile@@QAEHPAVCFileException@@@Z 00474874 f   nafxcw:olestrm.obj
 0001:000738a7       ?Detach@COleStreamFile@@QAEPAUIStream@@XZ 004748a7 f   nafxcw:olestrm.obj
 0001:000738af       ?Duplicate@COleStreamFile@@UBEPAVCFile@@XZ 004748af f   nafxcw:olestrm.obj
 0001:00073919       ?Flush@COleStreamFile@@UAEXXZ 00474919 f   nafxcw:olestrm.obj
 0001:0007392f       ?GetLength@COleStreamFile@@UBE_KXZ 0047492f f   nafxcw:olestrm.obj
 0001:0007396c       ?GetPosition@COleStreamFile@@UBE_KXZ 0047496c f   nafxcw:olestrm.obj
 0001:00073998       ?GetRuntimeClass@COleStreamFile@@UBEPAUCRuntimeClass@@XZ 00474998 f   nafxcw:olestrm.obj
 0001:0007399e       ?GetStorageName@COleStreamFile@@UBE?BV?$CStringT@DV?$StrTraitMFC@DV?$ChTraitsCRT@D@ATL@@@@@ATL@@XZ 0047499e f   nafxcw:olestrm.obj
 0001:000739c1       ?LockRange@COleStreamFile@@UAEX_K0@Z 004749c1 f   nafxcw:olestrm.obj
 0001:000739e9       ?Read@COleStreamFile@@UAEIPAXI@Z 004749e9 f   nafxcw:olestrm.obj
 0001:00073a12       ?Seek@COleStreamFile@@UAE_K_JI@Z 00474a12 f   nafxcw:olestrm.obj
 0001:00073a43       ?SetLength@COleStreamFile@@UAEX_K@Z 00474a43 f   nafxcw:olestrm.obj
 0001:00073a63       ?UnlockRange@COleStreamFile@@UAEX_K0@Z 00474a63 f   nafxcw:olestrm.obj
 0001:00073a8b       ?Write@COleStreamFile@@UAEXPBXI@Z 00474a8b f   nafxcw:olestrm.obj
 0001:00073ac4       ?_AfxFillOleFileException@@YGXPAVCFileException@@J@Z 00474ac4 f   nafxcw:olestrm.obj
 0001:00073b2f       ?_AfxReadFromStream@@YGJPAUIStream@@PAXIAAK@Z 00474b2f f   nafxcw:olestrm.obj
 0001:00073b69       ?_AfxThrowOleFileException@@YGXJ@Z 00474b69 f   nafxcw:olestrm.obj
 0001:00073bac       ??0CSharedFile@@QAE@II@Z   00474bac f   nafxcw:fileshrd.obj
 0001:00073bd8       ??1CSharedFile@@UAE@XZ     00474bd8 f   nafxcw:fileshrd.obj
 0001:00073c0f       ??_ECSharedFile@@UAEPAXI@Z 00474c0f f i nafxcw:fileshrd.obj
 0001:00073c0f       ??_GCSharedFile@@UAEPAXI@Z 00474c0f f i nafxcw:fileshrd.obj
 0001:00073c2e       ?Alloc@CSharedFile@@MAEPAEK@Z 00474c2e f   nafxcw:fileshrd.obj
 0001:00073c53       ?Detach@CSharedFile@@QAEPAXXZ 00474c53 f   nafxcw:fileshrd.obj
 0001:00073c71       ?Free@CSharedFile@@MAEXPAE@Z 00474c71 f   nafxcw:fileshrd.obj
 0001:00073c8a       ?GetRuntimeClass@CSharedFile@@UBEPAUCRuntimeClass@@XZ 00474c8a f   nafxcw:fileshrd.obj
 0001:00073c90       ?Realloc@CSharedFile@@MAEPAEPAEK@Z 00474c90 f   nafxcw:fileshrd.obj
 0001:00073ccb       ?SetHandle@CSharedFile@@QAEXPAXH@Z 00474ccb f   nafxcw:fileshrd.obj
 0001:00073d05       ??0_AFX_OLE_STATE@@QAE@XZ  00474d05 f   nafxcw:oledata.obj
 0001:00073d0e       ??_E_AFX_OLE_STATE@@UAEPAXI@Z 00474d0e f i nafxcw:oledata.obj
 0001:00073d0e       ??_G_AFX_OLE_STATE@@UAEPAXI@Z 00474d0e f i nafxcw:oledata.obj
 0001:00073d2d       ??0COleBusyDialog@@QAE@PAUHTASK__@@HKPAVCWnd@@@Z 00474d2d f   nafxcw:oledlgs2.obj
 0001:00073d8e       ??0COleDialog@@QAE@PAVCWnd@@@Z 00474d8e f   nafxcw:oledlgs2.obj
 0001:00073db2       ??1CCommonDialog@@UAE@XZ   00474db2 f   nafxcw:dlgfile.obj
 0001:00073db2       ??1CColorDialog@@UAE@XZ    00474db2 f   nafxcw:afxcolorbar.obj
 0001:00073db2       ??1CPrintDialog@@UAE@XZ    00474db2 f   nafxcw:afxtoolbarfontcombobox.obj
 0001:00073db2       ??1COleBusyDialog@@UAE@XZ  00474db2 f   nafxcw:oledlgs2.obj
 0001:00073dbd       ??_ECPrintDialog@@UAEPAXI@Z 00474dbd f i nafxcw:dlgprnt.obj
 0001:00073dbd       ??_GCColorDialog@@UAEPAXI@Z 00474dbd f i nafxcw:dlgclr.obj
 0001:00073dbd       ??_GCCommonDialog@@UAEPAXI@Z 00474dbd f i nafxcw:dlgfile.obj
 0001:00073dbd       ??_GCPrintDialog@@UAEPAXI@Z 00474dbd f i nafxcw:dlgprnt.obj
 0001:00073dbd       ??_GCOleBusyDialog@@UAEPAXI@Z 00474dbd f i nafxcw:oledlgs2.obj
 0001:00073dbd       ??_ECCommonDialog@@UAEPAXI@Z 00474dbd f i nafxcw:dlgfile.obj
 0001:00073dbd       ??_ECColorDialog@@UAEPAXI@Z 00474dbd f i nafxcw:dlgclr.obj
 0001:00073dbd       ??_ECOleBusyDialog@@UAEPAXI@Z 00474dbd f i nafxcw:oledlgs2.obj
 0001:00073de2       ?AfxOleHookProc@@YGIPAUHWND__@@IIJ@Z 00474de2 f   nafxcw:oledlgs2.obj
 0001:00073e2d       ?DoModal@COleBusyDialog@@UAEHXZ 00474e2d f   nafxcw:oledlgs2.obj
 0001:00073ec7       ?GetRuntimeClass@COleBusyDialog@@UBEPAUCRuntimeClass@@XZ 00474ec7 f   nafxcw:oledlgs2.obj
 0001:00073ecd       ?MapResult@COleDialog@@QAEHI@Z 00474ecd f   nafxcw:oledlgs2.obj
 0001:00073ef1       ?FindDefaultAccelerator@CKeyboardManager@@SGHIAAV?$CStringT@DV?$StrTraitMFC@DV?$ChTraitsCRT@D@ATL@@@@@ATL@@PAVCFrameWnd@@H@Z 00474ef1 f   nafxcw:afxkeyboardmanager.obj
 0001:0007403d       ?IsKeyHandled@CKeyboardManager@@SGHGEPAVCFrameWnd@@H@Z 0047503d f   nafxcw:afxkeyboardmanager.obj
 0001:000740d1       ?IsKeyPrintable@CKeyboardManager@@SGHI@Z 004750d1 f   nafxcw:afxkeyboardmanager.obj
 0001:0007414f       ?ResetAll@CKeyboardManager@@QAEXXZ 0047514f f   nafxcw:afxkeyboardmanager.obj
 0001:00074284       ?SetAccelTable@CKeyboardManager@@KGXAAPAUtagACCEL@@AAPAUHACCEL__@@AAHQAU3@@Z 00475284 f   nafxcw:afxkeyboardmanager.obj
 0001:000742fc       ?TranslateCharToUpper@CKeyboardManager@@SGII@Z 004752fc f   nafxcw:afxkeyboardmanager.obj
 0001:000743d5       ?UpdateAccelTable@CKeyboardManager@@QAEHPAVCMultiDocTemplate@@PAUHACCEL__@@PAVCFrameWnd@@@Z 004753d5 f   nafxcw:afxkeyboardmanager.obj
 0001:000744b4       ?UpdateAccelTable@CKeyboardManager@@QAEHPAVCMultiDocTemplate@@PAUtagACCEL@@HPAVCFrameWnd@@@Z 004754b4 f   nafxcw:afxkeyboardmanager.obj
 0001:00074501       ??0?$CMap@PAUHMENU__@@AAPAU1@PAXAAPAX@@QAE@H@Z 00475501 f i nafxcw:afxmenuhash.obj
 0001:0007452b       ??0CMenuHash@@QAE@XZ       0047552b f   nafxcw:afxmenuhash.obj
 0001:00074546       ??1CMenuHash@@UAE@XZ       00475546 f   nafxcw:afxmenuhash.obj
 0001:0007455a       ??A?$CMap@PAUHMENU__@@AAPAU1@PAXAAPAX@@QAEAAPAXAAPAUHMENU__@@@Z 0047555a f i nafxcw:afxmenuhash.obj
 0001:0007455a       ??A?$CMap@IAAIPAVCMFCToolBarButton@@AAPAV1@@@QAEAAPAVCMFCToolBarButton@@AAI@Z 0047555a f i nafxcw:afxtoolbar.obj
 0001:000745c3       ??_E?$CMap@PAUHMENU__@@AAPAU1@PAXAAPAX@@UAEPAXI@Z 004755c3 f i nafxcw:afxmenuhash.obj
 0001:000745c3       ??_G?$CMap@PAUHMENU__@@AAPAU1@PAXAAPAX@@UAEPAXI@Z 004755c3 f i nafxcw:afxmenuhash.obj
 0001:000745e8       ??_ECMenuHash@@UAEPAXI@Z   004755e8 f i nafxcw:afxmenuhash.obj
 0001:000745e8       ??_GCMenuHash@@UAEPAXI@Z   004755e8 f i nafxcw:afxmenuhash.obj
 0001:00074607       ?LoadMenuBar@CMenuHash@@QAEHPAUHMENU__@@PAVCMFCToolBar@@@Z 00475607 f   nafxcw:afxmenuhash.obj
 0001:000746fb       ?RemoveKey@?$CMap@PAUHMENU__@@AAPAU1@PAXAAPAX@@QAEHAAPAUHMENU__@@@Z 004756fb f i nafxcw:afxmenuhash.obj
 0001:00074768       ?RemoveMenu@CMenuHash@@QAEHPAUHMENU__@@@Z 00475768 f   nafxcw:afxmenuhash.obj
 0001:000747a9       ?SaveMenuBar@CMenuHash@@QAEHPAUHMENU__@@PAVCMFCToolBar@@@Z 004757a9 f   nafxcw:afxmenuhash.obj
 0001:0007499a       ??0CCommandManager@@IAE@XZ 0047599a f   nafxcw:afxcommandmanager.obj
 0001:000749d9       ??1CCommandManager@@UAE@XZ 004759d9 f   nafxcw:afxcommandmanager.obj
 0001:00074a48       ??_ECCommandManager@@UAEPAXI@Z 00475a48 f i nafxcw:afxcommandmanager.obj
 0001:00074a48       ??_GCCommandManager@@UAEPAXI@Z 00475a48 f i nafxcw:afxcommandmanager.obj
 0001:00074a67       ?ClearAllCmdImages@CCommandManager@@QAEXXZ 00475a67 f   nafxcw:afxcommandmanager.obj
 0001:00074a8b       ?ClearCmdImage@CCommandManager@@QAEXI@Z 00475a8b f   nafxcw:afxcommandmanager.obj
 0001:00074a97       ?EnableMenuItemImage@CCommandManager@@QAEXIHH@Z 00475a97 f   nafxcw:afxcommandmanager.obj
 0001:00074afa       ?FreeAssoc@?$CMap@IIHH@@IAEXPAVCAssoc@1@@Z 00475afa f i nafxcw:afxcommandmanager.obj
 0001:00074afa       ?FreeAssoc@?$CMap@PAUHMENU__@@AAPAU1@PAXAAPAX@@IAEXPAVCAssoc@1@@Z 00475afa f i nafxcw:afxmenuhash.obj
 0001:00074afa       ?FreeAssoc@?$CMap@IIPAUHWND__@@PAU1@@@IAEXPAVCAssoc@1@@Z 00475afa f i nafxcw:afxpaneframewnd.obj
 0001:00074afa       ?FreeAssoc@?$CMap@HHII@@IAEXPAVCAssoc@1@@Z 00475afa f i nafxcw:afxmousemanager.obj
 0001:00074afa       ?FreeAssoc@?$CMap@PAVCWnd@@PAV1@PAVCImageList@@PAV2@@@IAEXPAVCAssoc@1@@Z 00475afa f i nafxcw:afxmdiclientareawnd.obj
 0001:00074afa       ?FreeAssoc@?$CMap@PAVCWnd@@PAV1@PAVCHwndRenderTarget@@PAV2@@@IAEXPAVCAssoc@1@@Z 00475afa f i nafxcw:wincore.obj
 0001:00074b17       ?GetCmdImage@CCommandManager@@QBEHIH@Z 00475b17 f   nafxcw:afxcommandmanager.obj
 0001:00074b4f       ?GetCmdMgr@@YAPAVCCommandManager@@XZ 00475b4f f   nafxcw:afxcommandmanager.obj
 0001:00074b55       ?SetCmdImage@CCommandManager@@QAEXIHH@Z 00475b55 f   nafxcw:afxcommandmanager.obj
 0001:00074b9f       ?CreateObject@CMFCVisualManagerOffice2007@@SGPAVCObject@@XZ 00475b9f f   nafxcw:afxvisualmanageroffice2007.obj
 0001:00074bcf       ??$SerializeElements@VCSize@@@@YGXAAVCArchive@@PAVCSize@@H@Z 00475bcf f i nafxcw:afxvisualmanageroffice2007.obj
 0001:00074bcf       ??$SerializeElements@UtagPOINT@@@@YGXAAVCArchive@@PAUtagPOINT@@H@Z 00475bcf f i nafxcw:afxvisualmanager.obj
 0001:00074c70       ??0?$CArray@PAVCMFCVisualManagerBitmapCacheItem@CMFCVisualManagerBitmapCache@@PAV12@@@QAE@XZ 00475c70 f i nafxcw:afxvisualmanageroffice2007.obj
 0001:00074c87       ??0?$CArray@VCSize@@V1@@@QAE@XZ 00475c87 f i nafxcw:afxvisualmanageroffice2007.obj
 0001:00074c9e       ??0?$CMap@PAUHWND__@@PAU1@HH@@QAE@H@Z 00475c9e f i nafxcw:afxvisualmanageroffice2007.obj
 0001:00074cc8       ??0CMFCRibbonContextCategory@CMFCVisualManagerOffice2007@@QAE@XZ 00475cc8 f i nafxcw:afxvisualmanageroffice2007.obj
 0001:00074d29       ??0CMFCVisualManagerBitmapCache@@QAE@XZ 00475d29 f   nafxcw:afxvisualmanageroffice2007.obj
 0001:00074d46       ??0CMFCVisualManagerBitmapCacheItem@CMFCVisualManagerBitmapCache@@QAE@XZ 00475d46 f   nafxcw:afxvisualmanageroffice2007.obj
 0001:00074d62       ??0CMFCVisualManagerOffice2007@@IAE@XZ 00475d62 f   nafxcw:afxvisualmanageroffice2007.obj
 0001:0007551b       ??1?$CArray@PAVCMFCVisualManagerBitmapCacheItem@CMFCVisualManagerBitmapCache@@PAV12@@@UAE@XZ 0047651b f i nafxcw:afxvisualmanageroffice2007.obj
 0001:00075531       ??1?$CArray@VCSize@@V1@@@UAE@XZ 00476531 f i nafxcw:afxvisualmanageroffice2007.obj
 0001:00075547       ??1?$CMap@PAUHWND__@@PAU1@HH@@UAE@XZ 00476547 f i nafxcw:afxvisualmanageroffice2007.obj
 0001:00075552       ??1CMFCRibbonContextCategory@CMFCVisualManagerOffice2007@@QAE@XZ 00476552 f i nafxcw:afxvisualmanageroffice2007.obj
 0001:000755c2       ??1CMFCVisualManagerBitmapCache@@UAE@XZ 004765c2 f   nafxcw:afxvisualmanageroffice2007.obj
 0001:000755fb       ??1CMFCVisualManagerBitmapCacheItem@CMFCVisualManagerBitmapCache@@UAE@XZ 004765fb f   nafxcw:afxvisualmanageroffice2007.obj
 0001:00075609       ??1CMFCVisualManagerOffice2007@@MAE@XZ 00476609 f   nafxcw:afxvisualmanageroffice2007.obj
 0001:00075d20       ??_E?$CArray@PAVCMFCVisualManagerBitmapCacheItem@CMFCVisualManagerBitmapCache@@PAV12@@@UAEPAXI@Z 00476d20 f i nafxcw:afxvisualmanageroffice2007.obj
 0001:00075d20       ??_G?$CArray@PAVCMFCVisualManagerBitmapCacheItem@CMFCVisualManagerBitmapCache@@PAV12@@@UAEPAXI@Z 00476d20 f i nafxcw:afxvisualmanageroffice2007.obj
 0001:00075d3f       ??_E?$CArray@VCSize@@V1@@@UAEPAXI@Z 00476d3f f i nafxcw:afxvisualmanageroffice2007.obj
 0001:00075d3f       ??_G?$CArray@VCSize@@V1@@@UAEPAXI@Z 00476d3f f i nafxcw:afxvisualmanageroffice2007.obj
 0001:00075d5e       ??_E?$CMap@PAUHWND__@@PAU1@HH@@UAEPAXI@Z 00476d5e f i nafxcw:afxvisualmanageroffice2007.obj
 0001:00075d5e       ??_G?$CMap@PAUHWND__@@PAU1@HH@@UAEPAXI@Z 00476d5e f i nafxcw:afxvisualmanageroffice2007.obj
 0001:00075d83       ??_ECMFCVisualManagerBitmapCache@@UAEPAXI@Z 00476d83 f i nafxcw:afxvisualmanageroffice2007.obj
 0001:00075d83       ??_GCMFCVisualManagerBitmapCache@@UAEPAXI@Z 00476d83 f i nafxcw:afxvisualmanageroffice2007.obj
 0001:00075da2       ??_ECMFCVisualManagerBitmapCacheItem@CMFCVisualManagerBitmapCache@@UAEPAXI@Z 00476da2 f i nafxcw:afxvisualmanageroffice2007.obj
 0001:00075da2       ??_GCMFCVisualManagerBitmapCacheItem@CMFCVisualManagerBitmapCache@@UAEPAXI@Z 00476da2 f i nafxcw:afxvisualmanageroffice2007.obj
 0001:00075dc1       ??_ECMFCVisualManagerOffice2007@@MAEPAXI@Z 00476dc1 f i nafxcw:afxvisualmanageroffice2007.obj
 0001:00075dc1       ??_GCMFCVisualManagerOffice2007@@MAEPAXI@Z 00476dc1 f i nafxcw:afxvisualmanageroffice2007.obj
 0001:00075de0       ?AdjustTabTextRect@CMFCVisualManagerOffice2007@@UAEXAAVCRect@@@Z 00476de0 f i nafxcw:afxvisualmanageroffice2007.obj
 0001:00075df4       ?AlwaysHighlight3DTabs@CMFCVisualManagerOffice2007@@UBEHXZ 00476df4 f i nafxcw:afxvisualmanageroffice2007.obj
 0001:00075e00       ?Cache@CMFCVisualManagerBitmapCache@@QAEHABVCSize@@AAVCMFCControlRenderer@@@Z 00476e00 f   nafxcw:afxvisualmanageroffice2007.obj
 0001:00075e7d       ?Cache@CMFCVisualManagerBitmapCacheItem@CMFCVisualManagerBitmapCache@@QAEXABVCSize@@AAVCMFCControlRenderer@@@Z 00476e7d f   nafxcw:afxvisualmanageroffice2007.obj
 0001:00076012       ?CacheY@CMFCVisualManagerBitmapCache@@QAEHHAAVCMFCControlRenderer@@@Z 00477012 f   nafxcw:afxvisualmanageroffice2007.obj
 0001:0007603f       ?CanDrawImage@CMFCVisualManagerOffice2007@@IBEHXZ 0047703f f i nafxcw:afxvisualmanageroffice2007.obj
 0001:00076071       ?CleanStyle@CMFCVisualManagerOffice2007@@SGXXZ 00477071 f   nafxcw:afxvisualmanageroffice2007.obj
 0001:000760a3       ?CleanUp@CMFCRibbonContextCategory@CMFCVisualManagerOffice2007@@QAEXXZ 004770a3 f i nafxcw:afxvisualmanageroffice2007.obj
 0001:000760e3       ?CleanUp@CMFCVisualManagerOffice2007@@MAEXXZ 004770e3 f   nafxcw:afxvisualmanageroffice2007.obj
 0001:0007677f       ?Clear@CMFCVisualManagerBitmapCache@@QAEXXZ 0047777f f   nafxcw:afxvisualmanageroffice2007.obj
 0001:000767d0       ?Draw@CMFCVisualManagerBitmapCacheItem@CMFCVisualManagerBitmapCache@@QAEXPAVCDC@@VCRect@@HE@Z 004777d0 f   nafxcw:afxvisualmanageroffice2007.obj
 0001:00076856       ?DrawComboBorderWinXP@CMFCVisualManagerOffice2003@@UAEHPAVCDC@@VCRect@@HHH@Z 00477856 f i nafxcw:afxvisualmanageroffice2007.obj
 0001:0007687e       ?DrawComboDropButtonWinXP@CMFCVisualManagerOffice2003@@UAEHPAVCDC@@VCRect@@HHH@Z 0047787e f i nafxcw:afxvisualmanageroffice2007.obj
 0001:000768a6       ?DrawNcBtn@CMFCVisualManagerOffice2007@@IAEXPAVCDC@@ABVCRect@@IW4AFX_BUTTON_STATE@CMFCVisualManager@@HHH@Z 004778a6 f   nafxcw:afxvisualmanageroffice2007.obj
 0001:00076a56       ?DrawNcCaption@CMFCVisualManagerOffice2007@@IAEXPAVCDC@@VCRect@@KKABV?$CStringT@DV?$StrTraitMFC@DV?$ChTraitsCRT@D@ATL@@@@@ATL@@2PAUHICON__@@HHHABVCObList@@@Z 00477a56 f   nafxcw:afxvisualmanageroffice2007.obj
 0001:00076ef0       ?DrawNcText@CMFCVisualManagerOffice2007@@IAEXPAVCDC@@AAVCRect@@ABV?$CStringT@DV?$StrTraitMFC@DV?$ChTraitsCRT@D@ATL@@@@@ATL@@2HHHHHHK@Z 00477ef0 f   nafxcw:afxvisualmanageroffice2007.obj
 0001:000771de       ?DrawPushButtonWinXP@CMFCVisualManagerOffice2003@@UAEHPAVCDC@@VCRect@@PAVCMFCButton@@I@Z 004781de f i nafxcw:afxvisualmanageroffice2007.obj
 0001:00077203       ?DrawSeparator@CMFCVisualManagerOffice2007@@IAEXPAVCDC@@ABVCRect@@AAVCPen@@2H@Z 00478203 f   nafxcw:afxvisualmanageroffice2007.obj
 0001:00077353       ?DrawSeparator@CMFCVisualManagerOffice2007@@IAEXPAVCDC@@ABVCRect@@H@Z 00478353 f   nafxcw:afxvisualmanageroffice2007.obj
 0001:00077376       ?DrawY@CMFCVisualManagerBitmapCacheItem@CMFCVisualManagerBitmapCache@@QAEXPAVCDC@@VCRect@@VCSize@@HE@Z 00478376 f   nafxcw:afxvisualmanageroffice2007.obj
 0001:000774c5       ?FindIndex@CMFCVisualManagerBitmapCache@@QBEHABVCSize@@@Z 004784c5 f   nafxcw:afxvisualmanageroffice2007.obj
 0001:00077509       ?Get@CMFCVisualManagerBitmapCache@@QAEPAVCMFCVisualManagerBitmapCacheItem@1@H@Z 00478509 f   nafxcw:afxvisualmanageroffice2007.obj
 0001:0007752b       ?GetAt@?$CArray@VCSize@@V1@@@QBEABVCSize@@H@Z 0047852b f i nafxcw:afxvisualmanageroffice2007.obj
 0001:0007754a       ?GetCaptionBarTextColor@CMFCVisualManagerOffice2007@@UAEKPAVCMFCCaptionBar@@@Z 0047854a f   nafxcw:afxvisualmanageroffice2007.obj
 0001:00077570       ?GetHighlightMenuItemColor@CMFCVisualManagerOffice2003@@UBEKXZ 00478570 f i nafxcw:afxvisualmanageroffice2007.obj
 0001:00077577       ?GetHighlightedMenuItemTextColor@CMFCVisualManagerOffice2007@@UAEKPAVCMFCToolBarMenuButton@@@Z 00478577 f   nafxcw:afxvisualmanageroffice2007.obj
 0001:0007759d       ?GetImageCount@CMFCControlRenderer@@QBEHXZ 0047859d f i nafxcw:afxvisualmanageroffice2007.obj
 0001:000775e0       ?GetMenuImageMargin@CMFCVisualManagerOfficeXP@@MBEHXZ 004785e0 f i nafxcw:afxvisualmanageroffice2007.obj
 0001:000775e4       ?GetMenuItemTextColor@CMFCVisualManagerOffice2007@@UAEKPAVCMFCToolBarMenuButton@@HH@Z 004785e4 f   nafxcw:afxvisualmanageroffice2007.obj
 0001:0007761e       ?GetNcBtnSize@CMFCVisualManagerOffice2007@@UBE?AVCSize@@H@Z 0047861e f   nafxcw:afxvisualmanageroffice2007.obj
 0001:00077647       ?GetRibbonBar@CMFCVisualManagerOffice2007@@QBEPAVCMFCRibbonBar@@PAVCWnd@@@Z 00478647 f   nafxcw:afxvisualmanageroffice2007.obj
 0001:0007769f       ?GetRibbonEditBackgroundColor@CMFCVisualManagerOffice2007@@UAEKPAVCMFCRibbonRichEditCtrl@@HHH@Z 0047869f f   nafxcw:afxvisualmanageroffice2007.obj
 0001:000776e8       ?GetRibbonHyperlinkTextColor@CMFCVisualManagerOffice2007@@UAEKPAVCMFCRibbonLinkCtrl@@@Z 004786e8 f   nafxcw:afxvisualmanageroffice2007.obj
 0001:00077792       ?GetRibbonPopupBorderSize@CMFCVisualManagerOffice2007@@UBEHPBVCMFCRibbonPanelMenu@@@Z 00478792 f   nafxcw:afxvisualmanageroffice2007.obj
 0001:0007783f       ?GetRibbonQuickAccessToolBarChevronOffset@CMFCVisualManagerOffice2007@@UAEHXZ 0047883f f i nafxcw:afxvisualmanageroffice2007.obj
 0001:00077850       ?GetRibbonQuickAccessToolBarRightMargin@CMFCVisualManagerOffice2007@@UAEHXZ 00478850 f   nafxcw:afxvisualmanageroffice2007.obj
 0001:00077871       ?GetRibbonQuickAccessToolBarTextColor@CMFCVisualManagerOffice2007@@UAEKH@Z 00478871 f i nafxcw:afxvisualmanageroffice2007.obj
 0001:0007788c       ?GetRibbonStatusBarTextColor@CMFCVisualManagerOffice2007@@UAEKPAVCMFCRibbonStatusBar@@@Z 0047888c f   nafxcw:afxvisualmanageroffice2007.obj
 0001:000778b2       ?GetRuntimeClass@CMFCVisualManagerOffice2007@@UBEPAUCRuntimeClass@@XZ 004788b2 f   nafxcw:afxvisualmanageroffice2007.obj
 0001:000778b8       ?GetShowAllMenuItemsHeight@CMFCVisualManagerOffice2007@@UAEHPAVCDC@@ABVCSize@@@Z 004788b8 f   nafxcw:afxvisualmanageroffice2007.obj
 0001:000778f3       ?GetSmartDockingTheme@CMFCVisualManagerOffice2007@@UAE?AW4AFX_SMARTDOCK_THEME@@XZ 004788f3 f   nafxcw:afxvisualmanageroffice2007.obj
 0001:00077919       ?GetStatusBarPaneTextColor@CMFCVisualManagerOffice2007@@UAEKPAVCMFCStatusBar@@PAVCMFCStatusBarPaneInfo@@@Z 00478919 f   nafxcw:afxvisualmanageroffice2007.obj
 0001:00077968       ?GetStyle@CMFCVisualManagerOffice2007@@SG?AW4Style@1@XZ 00478968 f   nafxcw:afxvisualmanageroffice2007.obj
 0001:0007796e       ?GetStyleResourceID@CMFCVisualManagerOffice2007@@KG?AV?$CStringT@DV?$StrTraitMFC@DV?$ChTraitsCRT@D@ATL@@@@@ATL@@W4Style@1@@Z 0047896e f   nafxcw:afxvisualmanageroffice2007.obj
 0001:00077a1c       ?GetTabFrameColors@CMFCVisualManagerOffice2007@@UAEXPBVCMFCBaseTabCtrl@@AAK11111AAPAVCBrush@@2@Z 00478a1c f   nafxcw:afxvisualmanageroffice2007.obj
 0001:00077ab1       ?GetTabHorzMargin@CMFCVisualManagerOffice2007@@UAEHPBVCMFCBaseTabCtrl@@@Z 00478ab1 f   nafxcw:afxvisualmanageroffice2007.obj
 0001:00077b35       ?GetTabTextColor@CMFCVisualManagerOffice2007@@UAEKPBVCMFCBaseTabCtrl@@HH@Z 00478b35 f   nafxcw:afxvisualmanageroffice2007.obj
 0001:00077b90       ?GetTitle@CFrameWnd@@QBE?AV?$CStringT@DV?$StrTraitMFC@DV?$ChTraitsCRT@D@ATL@@@@@ATL@@XZ 00478b90 f i nafxcw:afxvisualmanageroffice2007.obj
 0001:00077bb6       ?GetToolTipInfo@CMFCVisualManagerOffice2007@@UAEHAAVCMFCToolTipInfo@@I@Z 00478bb6 f   nafxcw:afxvisualmanageroffice2007.obj
 0001:00077bf3       ?GetToolbarButtonTextColor@CMFCVisualManagerOffice2007@@UAEKPAVCMFCToolBarButton@@W4AFX_BUTTON_STATE@CMFCVisualManager@@@Z 00478bf3 f   nafxcw:afxvisualmanageroffice2007.obj
 0001:00077cc4       ?GetToolbarDisabledColor@CMFCVisualManagerOffice2003@@UBEKXZ 00478cc4 f i nafxcw:afxvisualmanageroffice2007.obj
 0001:00077ccb       ?GetToolbarDisabledTextColor@CMFCVisualManagerOffice2007@@UAEKXZ 00478ccb f i nafxcw:afxvisualmanageroffice2007.obj
 0001:00077ce7       ?GetCount@CMFCToolBarComboBoxButton@@QBEHXZ 00478ce7 f i nafxcw:afxtoolbarcomboboxbutton.obj
 0001:00077ce7       ?GetToolbarHighlightColor@CMFCVisualManagerOfficeXP@@MAEKXZ 00478ce7 f i nafxcw:afxvisualmanageroffice2007.obj
 0001:00077ce7       ?IsHighlighted@CMFCRibbonBaseElement@@UBEHXZ 00478ce7 f i nafxcw:afxbaseribbonelement.obj
 0001:00077ce7       ?GetTrackingID@CFrameWnd@@UAEIXZ 00478ce7 f i nafxcw:winfrm.obj
 0001:00077cee       ?IsHighlightWholeMenuItem@CMFCVisualManagerOffice2007@@UAEHXZ 00478cee f   nafxcw:afxvisualmanageroffice2007.obj
 0001:00077cf7       ?IsLayeredRibbonKeyTip@CMFCVisualManagerOffice2007@@UBEHXZ 00478cf7 f i nafxcw:afxvisualmanageroffice2007.obj
 0001:00077cfc       ?IsMainPanel@CMFCRibbonPanelMenuBar@@QBEHXZ 00478cfc f i nafxcw:afxvisualmanageroffice2007.obj
 0001:00077d19       ?IsOwnerDrawCaption@CMFCVisualManagerOffice2007@@UAEHXZ 00478d19 f i nafxcw:afxvisualmanageroffice2007.obj
 0001:00077d37       ?IsOwnerDrawMenuCheck@CMFCVisualManagerOffice2007@@UAEHXZ 00478d37 f   nafxcw:afxvisualmanageroffice2007.obj
 0001:00077d3f       ?IsQuickAccessToolbarOnTop@CMFCRibbonBar@@QBEHXZ 00478d3f f i nafxcw:afxvisualmanageroffice2007.obj
 0001:00077d53       ?IsWindowActive@CMFCVisualManagerOffice2007@@IBEHPAVCWnd@@@Z 00478d53 f   nafxcw:afxvisualmanageroffice2007.obj
 0001:00077d8a       ?IsWindowsThemingSupported@CMFCVisualManagerOffice2003@@UBEHXZ 00478d8a f i nafxcw:afxvisualmanageroffice2007.obj
 0001:00077d93       ?MakeResourceID@CMFCVisualManagerOffice2007@@KG?AV?$CStringT@DV?$StrTraitMFC@DV?$ChTraitsCRT@D@ATL@@@@@ATL@@PBD@Z 00478d93 f   nafxcw:afxvisualmanageroffice2007.obj
 0001:00077dfa       ?OnDrawBarGripper@CMFCVisualManagerOffice2007@@UAEXPAVCDC@@VCRect@@HPAVCBasePane@@@Z 00478dfa f   nafxcw:afxvisualmanageroffice2007.obj
 0001:00078063       ?OnDrawButtonBorder@CMFCVisualManagerOffice2007@@UAEXPAVCDC@@PAVCMFCToolBarButton@@VCRect@@W4AFX_BUTTON_STATE@CMFCVisualManager@@@Z 00479063 f   nafxcw:afxvisualmanageroffice2007.obj
 0001:000781ab       ?OnDrawButtonSeparator@CMFCVisualManagerOffice2007@@UAEXPAVCDC@@PAVCMFCToolBarButton@@VCRect@@W4AFX_BUTTON_STATE@CMFCVisualManager@@H@Z 004791ab f   nafxcw:afxvisualmanageroffice2007.obj
 0001:00078258       ?OnDrawCaptionBarInfoArea@CMFCVisualManagerOffice2007@@UAEXPAVCDC@@PAVCMFCCaptionBar@@VCRect@@@Z 00479258 f   nafxcw:afxvisualmanageroffice2007.obj
 0001:000782f9       ?OnDrawCheckBoxEx@CMFCVisualManagerOffice2007@@UAEXPAVCDC@@VCRect@@HHHH@Z 004792f9 f   nafxcw:afxvisualmanageroffice2007.obj
 0001:000783bf       ?OnDrawComboBorder@CMFCVisualManagerOffice2007@@UAEXPAVCDC@@VCRect@@HHHPAVCMFCToolBarComboBoxButton@@@Z 004793bf f   nafxcw:afxvisualmanageroffice2007.obj
 0001:0007848d       ?OnDrawComboDropButton@CMFCVisualManagerOffice2007@@UAEXPAVCDC@@VCRect@@HHHPAVCMFCToolBarComboBoxButton@@@Z 0047948d f   nafxcw:afxvisualmanageroffice2007.obj
 0001:00078773       ?OnDrawDefaultRibbonImage@CMFCVisualManagerOffice2007@@UAEXPAVCDC@@VCRect@@HHH@Z 00479773 f   nafxcw:afxvisualmanageroffice2007.obj
 0001:000787fd       ?OnDrawEditBorder@CMFCVisualManagerOffice2007@@UAEXPAVCDC@@VCRect@@HHPAVCMFCToolBarEditBoxButton@@@Z 004797fd f   nafxcw:afxvisualmanageroffice2007.obj
 0001:000788b2       ?OnDrawFloatingToolbarBorder@CMFCVisualManagerOffice2007@@UAEXPAVCDC@@PAVCMFCBaseToolBar@@VCRect@@2@Z 004798b2 f   nafxcw:afxvisualmanageroffice2007.obj
 0001:00078a3c       ?OnDrawHeaderCtrlBorder@CMFCVisualManagerOffice2007@@UAEXPAVCMFCHeaderCtrl@@PAVCDC@@AAVCRect@@HH@Z 00479a3c f   nafxcw:afxvisualmanageroffice2007.obj
 0001:00078bb4       ?OnDrawMenuBorder@CMFCVisualManagerOffice2007@@UAEXPAVCDC@@PAVCMFCPopupMenu@@VCRect@@@Z 00479bb4 f   nafxcw:afxvisualmanageroffice2007.obj
 0001:00078d35       ?OnDrawMenuCheck@CMFCVisualManagerOffice2007@@UAEXPAVCDC@@PAVCMFCToolBarMenuButton@@VCRect@@HH@Z 00479d35 f   nafxcw:afxvisualmanageroffice2007.obj
 0001:00078e33       ?OnDrawMenuItemButton@CMFCVisualManagerOffice2007@@UAEXPAVCDC@@PAVCMFCToolBarMenuButton@@VCRect@@HH@Z 00479e33 f   nafxcw:afxvisualmanageroffice2007.obj
 0001:00078f30       ?OnDrawMenuLabel@CMFCVisualManagerOffice2007@@UAEKPAVCDC@@VCRect@@@Z 00479f30 f   nafxcw:afxvisualmanageroffice2007.obj
 0001:00078fa9       ?OnDrawMenuResizeBar@CMFCVisualManagerOffice2007@@UAEXPAVCDC@@VCRect@@H@Z 00479fa9 f   nafxcw:afxvisualmanageroffice2007.obj
 0001:000790a2       ?OnDrawMenuScrollButton@CMFCVisualManagerOffice2007@@UAEXPAVCDC@@VCRect@@HHHH@Z 0047a0a2 f   nafxcw:afxvisualmanageroffice2007.obj
 0001:0007914f       ?OnDrawMenuSystemButton@CMFCVisualManagerOffice2007@@UAEXPAVCDC@@VCRect@@IIH@Z 0047a14f f   nafxcw:afxvisualmanageroffice2007.obj
 0001:00079293       ?OnDrawMiniFrameBorder@CMFCVisualManagerOffice2007@@UAEXPAVCDC@@PAVCPaneFrameWnd@@VCRect@@2@Z 0047a293 f   nafxcw:afxvisualmanageroffice2007.obj
 0001:00079432       ?OnDrawOutlookBarSplitter@CMFCVisualManagerOffice2007@@UAEXPAVCDC@@VCRect@@@Z 0047a432 f   nafxcw:afxvisualmanageroffice2007.obj
 0001:00079567       ?OnDrawOutlookPageButtonBorder@CMFCVisualManagerOffice2007@@UAEXPAVCDC@@AAVCRect@@HH@Z 0047a567 f   nafxcw:afxvisualmanageroffice2007.obj
 0001:000795a9       ?OnDrawPaneCaption@CMFCVisualManagerOffice2007@@UAEKPAVCDC@@PAVCDockablePane@@HVCRect@@2@Z 0047a5a9 f   nafxcw:afxvisualmanageroffice2007.obj
 0001:0007970d       ?OnDrawPopupWindowCaption@CMFCVisualManagerOffice2007@@UAEKPAVCDC@@VCRect@@PAVCMFCDesktopAlertWnd@@@Z 0047a70d f   nafxcw:afxvisualmanageroffice2007.obj
 0001:00079748       ?OnDrawPropertySheetListItem@CMFCVisualManagerOffice2007@@UAEKPAVCDC@@PAVCMFCPropertySheet@@VCRect@@HH@Z 0047a748 f   nafxcw:afxvisualmanageroffice2007.obj
 0001:000797e3       ?OnDrawRibbonApplicationButton@CMFCVisualManagerOffice2007@@UAEXPAVCDC@@PAVCMFCRibbonButton@@@Z 0047a7e3 f   nafxcw:afxvisualmanageroffice2007.obj
 0001:00079902       ?OnDrawRibbonButtonBorder@CMFCVisualManagerOffice2007@@UAEXPAVCDC@@PAVCMFCRibbonButton@@@Z 0047a902 f   nafxcw:afxvisualmanageroffice2007.obj
 0001:00079a1d       ?OnDrawRibbonButtonsGroup@CMFCVisualManagerOffice2007@@UAEKPAVCDC@@PAVCMFCRibbonButtonsGroup@@VCRect@@@Z 0047aa1d f   nafxcw:afxvisualmanageroffice2007.obj
 0001:00079aac       ?OnDrawRibbonCaption@CMFCVisualManagerOffice2007@@UAEXPAVCDC@@PAVCMFCRibbonBar@@VCRect@@2@Z 0047aaac f   nafxcw:afxvisualmanageroffice2007.obj
 0001:0007a11f       ?OnDrawRibbonCaptionButton@CMFCVisualManagerOffice2007@@UAEXPAVCDC@@PAVCMFCRibbonCaptionButton@@@Z 0047b11f f   nafxcw:afxvisualmanageroffice2007.obj
 0001:0007a203       ?OnDrawRibbonCategory@CMFCVisualManagerOffice2007@@UAEXPAVCDC@@PAVCMFCRibbonCategory@@VCRect@@@Z 0047b203 f   nafxcw:afxvisualmanageroffice2007.obj
 0001:0007a3cf       ?OnDrawRibbonCategoryCaption@CMFCVisualManagerOffice2007@@UAEKPAVCDC@@PAVCMFCRibbonContextCaption@@@Z 0047b3cf f   nafxcw:afxvisualmanageroffice2007.obj
 0001:0007a4a6       ?OnDrawRibbonCategoryScroll@CMFCVisualManagerOffice2007@@UAEXPAVCDC@@PAVCRibbonCategoryScroll@@@Z 0047b4a6 f   nafxcw:afxvisualmanageroffice2007.obj
 0001:0007a5a7       ?OnDrawRibbonCategoryTab@CMFCVisualManagerOffice2007@@UAEKPAVCDC@@PAVCMFCRibbonTab@@H@Z 0047b5a7 f   nafxcw:afxvisualmanageroffice2007.obj
 0001:0007a7bf       ?OnDrawRibbonCheckBoxOnList@CMFCVisualManagerOffice2007@@UAEXPAVCDC@@PAVCMFCRibbonCheckBox@@VCRect@@HH@Z 0047b7bf f   nafxcw:afxvisualmanageroffice2007.obj
 0001:0007a8a7       ?OnDrawRibbonDefaultPaneButton@CMFCVisualManagerOffice2007@@UAEXPAVCDC@@PAVCMFCRibbonButton@@@Z 0047b8a7 f   nafxcw:afxvisualmanageroffice2007.obj
 0001:0007aa4a       ?OnDrawRibbonDefaultPaneButtonIndicator@CMFCVisualManagerOffice2007@@UAEXPAVCDC@@PAVCMFCRibbonButton@@VCRect@@HH@Z 0047ba4a f   nafxcw:afxvisualmanageroffice2007.obj
 0001:0007ab2f       ?OnDrawRibbonGalleryBorder@CMFCVisualManagerOffice2007@@UAEXPAVCDC@@PAVCMFCRibbonGallery@@VCRect@@@Z 0047bb2f f   nafxcw:afxvisualmanageroffice2007.obj
 0001:0007ab92       ?OnDrawRibbonGalleryButton@CMFCVisualManagerOffice2007@@UAEXPAVCDC@@PAVCMFCRibbonGalleryIcon@@@Z 0047bb92 f   nafxcw:afxvisualmanageroffice2007.obj
 0001:0007ac60       ?OnDrawRibbonKeyTip@CMFCVisualManagerOffice2007@@UAEXPAVCDC@@PAVCMFCRibbonBaseElement@@VCRect@@V?$CStringT@DV?$StrTraitMFC@DV?$ChTraitsCRT@D@ATL@@@@@ATL@@@Z 0047bc60 f   nafxcw:afxvisualmanageroffice2007.obj
 0001:0007ad48       ?OnDrawRibbonLaunchButton@CMFCVisualManagerOffice2007@@UAEXPAVCDC@@PAVCMFCRibbonLaunchButton@@PAVCMFCRibbonPanel@@@Z 0047bd48 f   nafxcw:afxvisualmanageroffice2007.obj
 0001:0007ae87       ?OnDrawRibbonMainPanelButtonBorder@CMFCVisualManagerOffice2007@@UAEXPAVCDC@@PAVCMFCRibbonButton@@@Z 0047be87 f   nafxcw:afxvisualmanageroffice2007.obj
 0001:0007aea8       ?OnDrawRibbonMainPanelFrame@CMFCVisualManagerOffice2007@@UAEXPAVCDC@@PAVCMFCRibbonMainPanel@@VCRect@@@Z 0047bea8 f   nafxcw:afxvisualmanageroffice2007.obj
 0001:0007af09       ?OnDrawRibbonMenuCheckFrame@CMFCVisualManagerOffice2007@@UAEXPAVCDC@@PAVCMFCRibbonButton@@VCRect@@@Z 0047bf09 f   nafxcw:afxvisualmanageroffice2007.obj
 0001:0007af5a       ?OnDrawRibbonPanel@CMFCVisualManagerOffice2007@@UAEKPAVCDC@@PAVCMFCRibbonPanel@@VCRect@@2@Z 0047bf5a f   nafxcw:afxvisualmanageroffice2007.obj
 0001:0007b257       ?OnDrawRibbonPanelCaption@CMFCVisualManagerOffice2007@@UAEXPAVCDC@@PAVCMFCRibbonPanel@@VCRect@@@Z 0047c257 f   nafxcw:afxvisualmanageroffice2007.obj
 0001:0007b38e       ?OnDrawRibbonProgressBar@CMFCVisualManagerOffice2007@@UAEXPAVCDC@@PAVCMFCRibbonProgressBar@@VCRect@@2H@Z 0047c38e f   nafxcw:afxvisualmanageroffice2007.obj
 0001:0007b599       ?OnDrawRibbonRecentFilesFrame@CMFCVisualManagerOffice2007@@UAEXPAVCDC@@PAVCMFCRibbonMainPanel@@VCRect@@@Z 0047c599 f   nafxcw:afxvisualmanageroffice2007.obj
 0001:0007b61f       ?OnDrawRibbonSliderChannel@CMFCVisualManagerOffice2007@@UAEXPAVCDC@@PAVCMFCRibbonSlider@@VCRect@@@Z 0047c61f f   nafxcw:afxvisualmanageroffice2007.obj
 0001:0007b6b1       ?OnDrawRibbonSliderThumb@CMFCVisualManagerOffice2007@@UAEXPAVCDC@@PAVCMFCRibbonSlider@@VCRect@@HHH@Z 0047c6b1 f   nafxcw:afxvisualmanageroffice2007.obj
 0001:0007b725       ?OnDrawRibbonSliderZoomButton@CMFCVisualManagerOffice2007@@UAEXPAVCDC@@PAVCMFCRibbonSlider@@VCRect@@HHHH@Z 0047c725 f   nafxcw:afxvisualmanageroffice2007.obj
 0001:0007b7b1       ?OnDrawRibbonStatusBarPane@CMFCVisualManagerOffice2007@@UAEKPAVCDC@@PAVCMFCRibbonStatusBar@@PAVCMFCRibbonStatusBarPane@@@Z 0047c7b1 f   nafxcw:afxvisualmanageroffice2007.obj
 0001:0007b8dd       ?OnDrawRibbonTabsFrame@CMFCVisualManagerOffice2007@@UAEKPAVCDC@@PAVCMFCRibbonBar@@VCRect@@@Z 0047c8dd f   nafxcw:afxvisualmanageroffice2007.obj
 0001:0007b916       ?OnDrawScrollButtons@CMFCVisualManagerOffice2007@@UAEXPAVCDC@@ABVCRect@@HHH@Z 0047c916 f   nafxcw:afxvisualmanageroffice2007.obj
 0001:0007b99b       ?OnDrawSeparator@CMFCVisualManagerOffice2007@@UAEXPAVCDC@@PAVCBasePane@@VCRect@@H@Z 0047c99b f   nafxcw:afxvisualmanageroffice2007.obj
 0001:0007bc68       ?OnDrawShowAllMenuItems@CMFCVisualManagerOffice2007@@UAEXPAVCDC@@VCRect@@W4AFX_BUTTON_STATE@CMFCVisualManager@@@Z 0047cc68 f   nafxcw:afxvisualmanageroffice2007.obj
 0001:0007bcd1       ?OnDrawStatusBarPaneBorder@CMFCVisualManagerOffice2007@@UAEXPAVCDC@@PAVCMFCStatusBar@@VCRect@@II@Z 0047ccd1 f   nafxcw:afxvisualmanageroffice2007.obj
 0001:0007bd78       ?OnDrawStatusBarSizeBox@CMFCVisualManagerOffice2007@@UAEXPAVCDC@@PAVCMFCStatusBar@@VCRect@@@Z 0047cd78 f   nafxcw:afxvisualmanageroffice2007.obj
 0001:0007bdf6       ?OnDrawTab@CMFCVisualManagerOffice2007@@UAEXPAVCDC@@VCRect@@HHPBVCMFCBaseTabCtrl@@@Z 0047cdf6 f   nafxcw:afxvisualmanageroffice2007.obj
 0001:0007c144       ?OnDrawTabsButtonBorder@CMFCVisualManagerOffice2007@@UAEXPAVCDC@@AAVCRect@@PAVCMFCButton@@IPAVCMFCBaseTabCtrl@@@Z 0047d144 f   nafxcw:afxvisualmanageroffice2007.obj
 0001:0007c16e       ?OnDrawTask@CMFCVisualManagerOffice2007@@UAEXPAVCDC@@PAVCMFCTasksPaneTask@@PAVCImageList@@HH@Z 0047d16e f   nafxcw:afxvisualmanageroffice2007.obj
 0001:0007c1b1       ?OnDrawTasksGroupCaption@CMFCVisualManagerOffice2007@@UAEXPAVCDC@@PAVCMFCTasksPaneTaskGroup@@HHH@Z 0047d1b1 f   nafxcw:afxvisualmanageroffice2007.obj
 0001:0007c600       ?OnDrawTearOffCaption@CMFCVisualManagerOffice2007@@UAEXPAVCDC@@VCRect@@H@Z 0047d600 f   nafxcw:afxvisualmanageroffice2007.obj
 0001:0007c6d3       ?OnEraseMDIClientArea@CMFCVisualManagerOffice2007@@UAEHPAVCDC@@VCRect@@@Z 0047d6d3 f   nafxcw:afxvisualmanageroffice2007.obj
 0001:0007c734       ?OnEraseTabsArea@CMFCVisualManagerOffice2007@@UAEXPAVCDC@@VCRect@@PBVCMFCBaseTabCtrl@@@Z 0047d734 f   nafxcw:afxvisualmanageroffice2007.obj
 0001:0007c860       ?OnEraseTabsButton@CMFCVisualManagerOffice2007@@UAEXPAVCDC@@VCRect@@PAVCMFCButton@@PAVCMFCBaseTabCtrl@@@Z 0047d860 f   nafxcw:afxvisualmanageroffice2007.obj
 0001:0007ca41       ?OnEraseTabsFrame@CMFCVisualManagerOffice2007@@UAEHPAVCDC@@VCRect@@PBVCMFCBaseTabCtrl@@@Z 0047da41 f   nafxcw:afxvisualmanageroffice2007.obj
 0001:0007cb91       ?OnFillBarBackground@CMFCVisualManagerOffice2007@@UAEXPAVCDC@@PAVCBasePane@@VCRect@@2H@Z 0047db91 f   nafxcw:afxvisualmanageroffice2007.obj
 0001:0007cfcd       ?OnFillButtonInterior@CMFCVisualManagerOffice2007@@UAEXPAVCDC@@PAVCMFCToolBarButton@@VCRect@@W4AFX_BUTTON_STATE@CMFCVisualManager@@@Z 0047dfcd f   nafxcw:afxvisualmanageroffice2007.obj
 0001:0007d23b       ?OnFillCaptionBarButton@CMFCVisualManagerOffice2007@@UAEKPAVCDC@@PAVCMFCCaptionBar@@VCRect@@HHHHH@Z 0047e23b f   nafxcw:afxvisualmanageroffice2007.obj
 0001:0007d29b       ?OnFillHighlightedArea@CMFCVisualManagerOffice2007@@UAEXPAVCDC@@VCRect@@PAVCBrush@@PAVCMFCToolBarButton@@@Z 0047e29b f   nafxcw:afxvisualmanageroffice2007.obj
 0001:0007d3af       ?OnFillMiniFrameCaption@CMFCVisualManagerOffice2007@@UAEKPAVCDC@@VCRect@@PAVCPaneFrameWnd@@H@Z 0047e3af f   nafxcw:afxvisualmanageroffice2007.obj
 0001:0007d44d       ?OnFillOutlookBarCaption@CMFCVisualManagerOffice2007@@UAEXPAVCDC@@VCRect@@AAK@Z 0047e44d f   nafxcw:afxvisualmanageroffice2007.obj
 0001:0007d489       ?OnFillOutlookPageButton@CMFCVisualManagerOffice2007@@UAEXPAVCDC@@ABVCRect@@HHAAK@Z 0047e489 f   nafxcw:afxvisualmanageroffice2007.obj
 0001:0007d5cb       ?OnFillPopupWindowBackground@CMFCVisualManagerOffice2007@@UAEXPAVCDC@@VCRect@@@Z 0047e5cb f   nafxcw:afxvisualmanageroffice2007.obj
 0001:0007d642       ?OnFillRibbonButton@CMFCVisualManagerOffice2007@@UAEKPAVCDC@@PAVCMFCRibbonButton@@@Z 0047e642 f   nafxcw:afxvisualmanageroffice2007.obj
 0001:0007e17b       ?OnFillRibbonEdit@CMFCVisualManagerOffice2007@@UAEXPAVCDC@@PAVCMFCRibbonRichEditCtrl@@VCRect@@HHHAAK33@Z 0047f17b f   nafxcw:afxvisualmanageroffice2007.obj
 0001:0007e254       ?OnFillRibbonMainPanelButton@CMFCVisualManagerOffice2007@@UAEKPAVCDC@@PAVCMFCRibbonButton@@@Z 0047f254 f   nafxcw:afxvisualmanageroffice2007.obj
 0001:0007e2dd       ?OnFillRibbonMenuFrame@CMFCVisualManagerOffice2007@@UAEXPAVCDC@@PAVCMFCRibbonMainPanel@@VCRect@@@Z 0047f2dd f   nafxcw:afxvisualmanageroffice2007.obj
 0001:0007e33b       ?OnFillRibbonQuickAccessToolBarPopup@CMFCVisualManagerOffice2007@@UAEXPAVCDC@@PAVCMFCRibbonPanelMenuBar@@VCRect@@@Z 0047f33b f   nafxcw:afxvisualmanageroffice2007.obj
 0001:0007e3df       ?OnFillTab@CMFCVisualManagerOffice2007@@UAEXPAVCDC@@VCRect@@PAVCBrush@@HHPBVCMFCBaseTabCtrl@@@Z 0047f3df f   nafxcw:afxvisualmanageroffice2007.obj
 0001:0007e4fe       ?OnHighlightMenuItem@CMFCVisualManagerOffice2007@@UAEXPAVCDC@@PAVCMFCToolBarMenuButton@@VCRect@@AAK@Z 0047f4fe f   nafxcw:afxvisualmanageroffice2007.obj
 0001:0007e566       ?OnHighlightRarelyUsedMenuItems@CMFCVisualManagerOffice2007@@UAEXPAVCDC@@VCRect@@@Z 0047f566 f   nafxcw:afxvisualmanageroffice2007.obj
 0001:0007e5e3       ?OnNcActivate@CMFCVisualManagerOffice2007@@UAEHPAVCWnd@@H@Z 0047f5e3 f   nafxcw:afxvisualmanageroffice2007.obj
 0001:0007e6c5       ?OnNcPaint@CMFCVisualManagerOffice2007@@UAEHPAVCWnd@@ABVCObList@@VCRect@@@Z 0047f6c5 f   nafxcw:afxvisualmanageroffice2007.obj
 0001:0007ee8c       ?OnSetWindowRegion@CMFCVisualManagerOffice2007@@UAEHPAVCWnd@@VCSize@@@Z 0047fe8c f   nafxcw:afxvisualmanageroffice2007.obj
 0001:0007eff1       ?OnUpdateSystemColors@CMFCVisualManagerOffice2007@@UAEXXZ 0047fff1 f   nafxcw:afxvisualmanageroffice2007.obj
 0001:00086385       ?Serialize@?$CArray@VCSize@@V1@@@UAEXAAVCArchive@@@Z 00487385 f i nafxcw:afxvisualmanageroffice2007.obj
 0001:000863c5       ?SetAtGrow@?$CArray@VCSize@@V1@@@QAEXHVCSize@@@Z 004873c5 f i nafxcw:afxvisualmanageroffice2007.obj
 0001:000863ff       ?SetResourceHandle@CMFCVisualManagerOffice2007@@SGXPAUHINSTANCE__@@@Z 004873ff f   nafxcw:afxvisualmanageroffice2007.obj
 0001:0008643e       ?SetSize@?$CArray@VCSize@@V1@@@QAEXHH@Z 0048743e f i nafxcw:afxvisualmanageroffice2007.obj
 0001:000865f3       ?SetStyle@CMFCVisualManagerOffice2007@@SGHW4Style@1@PBD@Z 004875f3 f   nafxcw:afxvisualmanageroffice2007.obj
 0001:00086669       ?CreateObject@CPaneFrameWnd@@SGPAVCObject@@XZ 00487669 f   nafxcw:afxpaneframewnd.obj
 0001:00086699       ??0CPaneFrameWnd@@QAE@XZ   00487699 f   nafxcw:afxpaneframewnd.obj
 0001:000867d9       ??1CPaneFrameWnd@@UAE@XZ   004877d9 f   nafxcw:afxpaneframewnd.obj
 0001:0008682b       ??5@YGAAVCArchive@@AAV0@AAPAVCPaneFrameWnd@@@Z 0048782b f   nafxcw:afxpaneframewnd.obj
 0001:00086847       ??_E?$CMap@IIPAUHWND__@@PAU1@@@UAEPAXI@Z 00487847 f i nafxcw:afxpaneframewnd.obj
 0001:00086847       ??_G?$CMap@IIPAUHWND__@@PAU1@@@UAEPAXI@Z 00487847 f i nafxcw:afxpaneframewnd.obj
 0001:0008686c       ??_GCPaneFrameWnd@@UAEPAXI@Z 0048786c f i nafxcw:afxpaneframewnd.obj
 0001:0008686c       ??_ECPaneFrameWnd@@UAEPAXI@Z 0048786c f i nafxcw:afxpaneframewnd.obj
 0001:0008688b       ?AddButton@CPaneFrameWnd@@MAEXI@Z 0048788b f   nafxcw:afxpaneframewnd.obj
 0001:0008692d       ?AddPane@CPaneFrameWnd@@UAEXPAVCBasePane@@@Z 0048792d f   nafxcw:afxpaneframewnd.obj
 0001:00086a53       ?AddRemovePaneFromGlobalList@CPaneFrameWnd@@SGHPAVCBasePane@@H@Z 00487a53 f   nafxcw:afxpaneframewnd.obj
 0001:00086b19       ?AdjustLayout@CPaneFrameWnd@@UAEXXZ 00487b19 f   nafxcw:afxpaneframewnd.obj
 0001:00086b4f       ?AreMDITabs@CMDIFrameWndEx@@QBEHPAH@Z 00487b4f f i nafxcw:afxpaneframewnd.obj
 0001:00086b92       ?ArrangeCaptionButtons@CPaneFrameWnd@@IAEXXZ 00487b92 f   nafxcw:afxpaneframewnd.obj
 0001:00086c83       ?CalcBorderSize@CPaneFrameWnd@@UBEXAAVCRect@@@Z 00487c83 f   nafxcw:afxpaneframewnd.obj
 0001:00086cd1       ?CalcExpectedDockedRect@CPaneFrameWnd@@UAEXPAVCWnd@@VCPoint@@AAVCRect@@AAHPAPAVCDockablePane@@@Z 00487cd1 f i nafxcw:afxpaneframewnd.obj
 0001:00086ce7       ?CalcMinSize@CPaneFrameWnd@@MAEXAAVCSize@@PAUtagMINMAXINFO@@@Z 00487ce7 f   nafxcw:afxpaneframewnd.obj
 0001:00086d89       ?CanBeAttached@CPaneFrameWnd@@UBEHXZ 00487d89 f i nafxcw:afxpaneframewnd.obj
 0001:00086daf       ?CanBeDockedToPane@CPaneFrameWnd@@UBEHPBVCDockablePane@@@Z 00487daf f   nafxcw:afxpaneframewnd.obj
 0001:00086dda       ?CloseMiniFrame@CPaneFrameWnd@@MAEXXZ 00487dda f   nafxcw:afxpaneframewnd.obj
 0001:00086e11       ?ConvertToTabbedDocument@CPaneFrameWnd@@UAEXXZ 00487e11 f   nafxcw:afxpaneframewnd.obj
 0001:00086e4e       ?Create@CPaneFrameWnd@@UAEHPBDKABUtagRECT@@PAVCWnd@@PAUCCreateContext@@@Z 00487e4e f   nafxcw:afxpaneframewnd.obj
 0001:00086e6b       ?CreateEx@CPaneFrameWnd@@UAEHKPBDKABUtagRECT@@PAVCWnd@@PAUCCreateContext@@@Z 00487e6b f   nafxcw:afxpaneframewnd.obj
 0001:00086f48       ?DockPane@CPaneFrameWnd@@UAEPAVCDockablePane@@AAH@Z 00487f48 f   nafxcw:afxpaneframewnd.obj
 0001:000871af       ?DockPaneStandard@CPaneFrameWnd@@MAEPAVCDockablePane@@AAH@Z 004881af f   nafxcw:afxpaneframewnd.obj
 0001:00087226       ?EnterDragMode@CPaneFrameWnd@@MAEXPAUHWND__@@@Z 00488226 f   nafxcw:afxpaneframewnd.obj
 0001:000872dd       ?FindButton@CPaneFrameWnd@@IBEPAVCMFCCaptionButton@@I@Z 004882dd f   nafxcw:afxpaneframewnd.obj
 0001:00087323       ?FindButton@CPaneFrameWnd@@IBEPAVCMFCCaptionButton@@VCPoint@@@Z 00488323 f   nafxcw:afxpaneframewnd.obj
 0001:000873d8       ?FindFloatingPaneByID@CPaneFrameWnd@@SGPAVCBasePane@@I@Z 004883d8 f   nafxcw:afxpaneframewnd.obj
 0001:00087410       ?GetCaptionButtonTotalWidth@CPaneFrameWnd@@IBEHXZ 00488410 f   nafxcw:afxpaneframewnd.obj
 0001:0008746d       ?GetCaptionHeight@CPaneFrameWnd@@UBEHXZ 0048846d f i nafxcw:afxpaneframewnd.obj
 0001:00087474       ?GetCaptionRect@CPaneFrameWnd@@UBEXAAVCRect@@@Z 00488474 f   nafxcw:afxpaneframewnd.obj
 0001:00087531       ?GetCaptionText@CPaneFrameWnd@@UAE?AV?$CStringT@DV?$StrTraitMFC@DV?$ChTraitsCRT@D@ATL@@@@@ATL@@XZ 00488531 f   nafxcw:afxpaneframewnd.obj
 0001:000875b4       ?GetDockingMode@CPaneFrameWnd@@UBE?AW4AFX_DOCK_TYPE@@XZ 004885b4 f   nafxcw:afxpaneframewnd.obj
 0001:000875dd       ?GetFirstVisiblePane@CPaneFrameWnd@@UBEPAVCWnd@@XZ 004885dd f   nafxcw:afxpaneframewnd.obj
 0001:000875fc       ?GetPane@CPaneFrameWnd@@UBEPAVCWnd@@XZ 004885fc f   nafxcw:afxpaneframewnd.obj
 0001:00087608       ?GetPaneCount@CPaneFrameWnd@@UBEHXZ 00488608 f i nafxcw:afxpaneframewnd.obj
 0001:0008761a       ?GetPaneList@CPaneFrameWnd@@KGXAAVCObList@@PAUCRuntimeClass@@H@Z 0048861a f   nafxcw:afxpaneframewnd.obj
 0001:000876c4       ?GetRuntimeClass@CPaneFrameWnd@@UBEPAUCRuntimeClass@@XZ 004886c4 f   nafxcw:afxpaneframewnd.obj
 0001:000876ca       ?GetSize@CMFCCaptionButton@@SG?AVCSize@@XZ 004886ca f i nafxcw:afxpaneframewnd.obj
 0001:00087728       ?GetSmartDockingManager@CDockingManager@@QAEPAVCSmartDockingManager@@XZ 00488728 f i nafxcw:afxpaneframewnd.obj
 0001:000877aa       ?GetThisMessageMap@CPaneFrameWnd@@KGPBUAFX_MSGMAP@@XZ 004887aa f   nafxcw:afxpaneframewnd.obj
 0001:000877aa       ?GetMessageMap@CPaneFrameWnd@@MBEPBUAFX_MSGMAP@@XZ 004887aa f   nafxcw:afxpaneframewnd.obj
 0001:000877b0       ?GetVisiblePaneCount@CPaneFrameWnd@@UBEHXZ 004887b0 f i nafxcw:afxpaneframewnd.obj
 0001:000877e1       ?HitTest@CPaneFrameWnd@@UAEJVCPoint@@H@Z 004887e1 f   nafxcw:afxpaneframewnd.obj
 0001:00087c54       ?IsCustModeAndNotFloatingToolbar@CPaneFrameWnd@@IBEHXZ 00488c54 f   nafxcw:afxpaneframewnd.obj
 0001:00087c81       ?IsRollDown@CPaneFrameWnd@@UBEHXZ 00488c81 f   nafxcw:afxpaneframewnd.obj
 0001:00087d0d       ?IsRollUp@CPaneFrameWnd@@UBEHXZ 00488d0d f   nafxcw:afxpaneframewnd.obj
 0001:00087d7b       ?KillDockingTimer@CPaneFrameWnd@@QAEXXZ 00488d7b f   nafxcw:afxpaneframewnd.obj
 0001:00087d9b       ?KillRollupTimer@CPaneFrameWnd@@IAEXXZ 00488d9b f   nafxcw:afxpaneframewnd.obj
 0001:00087dcf       ?LoadState@CPaneFrameWnd@@UAEHPBDI@Z 00488dcf f   nafxcw:afxpaneframewnd.obj
 0001:00087e09       ?MoveDragFrame@CPaneFrameWnd@@IAEXXZ 00488e09 f   nafxcw:afxpaneframewnd.obj
 0001:00087e17       ?MoveMiniFrame@CPaneFrameWnd@@IAEHXZ 00488e17 f   nafxcw:afxpaneframewnd.obj
 0001:00087ece       ?MoveWindow@CWnd@@QAEXPBUtagRECT@@H@Z 00488ece f i nafxcw:afxpaneframewnd.obj
 0001:00087ef2       ?OnBeforeDock@CPaneFrameWnd@@UAEHXZ 00488ef2 f   nafxcw:afxpaneframewnd.obj
 0001:00087fb5       ?OnCancelMode@CPaneFrameWnd@@IAEXXZ 00488fb5 f   nafxcw:afxpaneframewnd.obj
 0001:000880f6       ?OnCapture@CPaneFrameWnd@@MAEXH@Z 004890f6 f   nafxcw:afxpaneframewnd.obj
 0001:00088188       ?OnChar@CPaneFrameWnd@@IAEXIII@Z 00489188 f   nafxcw:afxpaneframewnd.obj
 0001:0008821e       ?OnCheckEmptyState@CPaneFrameWnd@@IAEJIJ@Z 0048921e f   nafxcw:afxpaneframewnd.obj
 0001:0008824a       ?OnCheckRollState@CPaneFrameWnd@@MAEXXZ 0048924a f   nafxcw:afxpaneframewnd.obj
 0001:0008836c       ?OnClose@CPaneFrameWnd@@IAEXXZ 0048936c f   nafxcw:afxpaneframewnd.obj
 0001:00088374       ?OnCloseMiniFrame@CPaneFrameWnd@@MAEHXZ 00489374 f   nafxcw:afxpaneframewnd.obj
 0001:00088402       ?OnContextMenu@CPaneFrameWnd@@IAEXPAVCWnd@@VCPoint@@@Z 00489402 f   nafxcw:afxpaneframewnd.obj
 0001:00088526       ?OnCreate@CPaneFrameWnd@@IAEHPAUtagCREATESTRUCTA@@@Z 00489526 f   nafxcw:afxpaneframewnd.obj
 0001:00088562       ?OnDestroy@CPaneFrameWnd@@IAEXXZ 00489562 f   nafxcw:afxpaneframewnd.obj
 0001:00088607       ?OnDockToRecentPos@CPaneFrameWnd@@UAEXXZ 00489607 f   nafxcw:afxpaneframewnd.obj
 0001:00088681       ?OnDrawBorder@CPaneFrameWnd@@MAEXPAVCDC@@@Z 00489681 f   nafxcw:afxpaneframewnd.obj
 0001:000887de       ?OnDrawCaptionButtons@CPaneFrameWnd@@MAEXPAVCDC@@@Z 004897de f   nafxcw:afxpaneframewnd.obj
 0001:00088883       ?OnExitSizeMove@CPaneFrameWnd@@IAEXXZ 00489883 f   nafxcw:afxpaneframewnd.obj
 0001:000888b0       ?OnGetMinMaxInfo@CPaneFrameWnd@@IAEXPAUtagMINMAXINFO@@@Z 004898b0 f   nafxcw:afxpaneframewnd.obj
 0001:00088909       ?OnIdleUpdateCmdUI@CPaneFrameWnd@@IAEJIJ@Z 00489909 f   nafxcw:afxpaneframewnd.obj
 0001:0008897e       ?OnKillRollUpTimer@CPaneFrameWnd@@UAEXXZ 0048997e f   nafxcw:afxpaneframewnd.obj
 0001:000889b2       ?OnLButtonDblClk@CPaneFrameWnd@@IAEXIVCPoint@@@Z 004899b2 f   nafxcw:afxpaneframewnd.obj
 0001:000889fc       ?OnLButtonDown@CPaneFrameWnd@@IAEXIVCPoint@@@Z 004899fc f   nafxcw:afxpaneframewnd.obj
 0001:00088ac7       ?OnLButtonUp@CPaneFrameWnd@@IAEXIVCPoint@@@Z 00489ac7 f   nafxcw:afxpaneframewnd.obj
 0001:00088ccf       ?OnMouseActivate@CPaneFrameWnd@@IAEHPAVCWnd@@II@Z 00489ccf f   nafxcw:afxpaneframewnd.obj
 0001:00088d6c       ?OnMouseMove@CPaneFrameWnd@@IAEXIVCPoint@@@Z 00489d6c f   nafxcw:afxpaneframewnd.obj
 0001:000895b9       ?OnMovePane@CPaneFrameWnd@@UAEXPAVCPane@@VCPoint@@@Z 0048a5b9 f   nafxcw:afxpaneframewnd.obj
 0001:00089615       ?OnMoving@CPaneFrameWnd@@IAEXIPAUtagRECT@@@Z 0048a615 f   nafxcw:afxpaneframewnd.obj
 0001:00089628       ?OnNcActivate@CPaneFrameWnd@@IAEHH@Z 0048a628 f   nafxcw:afxpaneframewnd.obj
 0001:0008969c       ?OnNcCalcSize@CPaneFrameWnd@@IAEXHPAUtagNCCALCSIZE_PARAMS@@@Z 0048a69c f   nafxcw:afxpaneframewnd.obj
 0001:00089705       ?OnNcDestroy@CPaneFrameWnd@@IAEXXZ 0048a705 f   nafxcw:afxpaneframewnd.obj
 0001:00089723       ?OnNcHitTest@CPaneFrameWnd@@IAEJVCPoint@@@Z 0048a723 f   nafxcw:afxpaneframewnd.obj
 0001:0008973a       ?OnNcMouseMove@CPaneFrameWnd@@IAEXIVCPoint@@@Z 0048a73a f   nafxcw:afxpaneframewnd.obj
 0001:00089769       ?OnNcPaint@CPaneFrameWnd@@IAEXXZ 0048a769 f   nafxcw:afxpaneframewnd.obj
 0001:00089c7f       ?OnNeedTipText@CPaneFrameWnd@@IAEHIPAUtagNMHDR@@PAJ@Z 0048ac7f f   nafxcw:afxpaneframewnd.obj
 0001:00089da0       ?OnPaneRecalcLayout@CPaneFrameWnd@@UAEXXZ 0048ada0 f   nafxcw:afxpaneframewnd.obj
 0001:00089ea4       ?OnPressButtons@CPaneFrameWnd@@MAEXI@Z 0048aea4 f   nafxcw:afxpaneframewnd.obj
 0001:0008a279       ?OnSetCursor@CPaneFrameWnd@@IAEHPAVCWnd@@II@Z 0048b279 f   nafxcw:afxpaneframewnd.obj
 0001:0008a2f9       ?OnSetFocus@CPaneFrameWnd@@IAEXPAVCWnd@@@Z 0048b2f9 f   nafxcw:afxpaneframewnd.obj
 0001:0008a3ae       ?OnSetRollUpTimer@CPaneFrameWnd@@UAEXXZ 0048b3ae f   nafxcw:afxpaneframewnd.obj
 0001:0008a3e2       ?OnSettingChange@CPaneFrameWnd@@IAEXIPBD@Z 0048b3e2 f   nafxcw:afxpaneframewnd.obj
 0001:0008a402       ?OnSize@CPaneFrameWnd@@IAEXIHH@Z 0048b402 f   nafxcw:afxpaneframewnd.obj
 0001:0008a4a6       ?OnSizing@CPaneFrameWnd@@IAEXIPAUtagRECT@@@Z 0048b4a6 f   nafxcw:afxpaneframewnd.obj
 0001:0008a6ec       ?OnTimer@CPaneFrameWnd@@IAEXI@Z 0048b6ec f   nafxcw:afxpaneframewnd.obj
 0001:0008a73d       ?OnTrackCaptionButtons@CPaneFrameWnd@@MAEXVCPoint@@@Z 0048b73d f   nafxcw:afxpaneframewnd.obj
 0001:0008a83c       ?OnUpdateToolTips@CPaneFrameWnd@@IAEJIJ@Z 0048b83c f   nafxcw:afxpaneframewnd.obj
 0001:0008a86c       ?OnWindowPosChanging@CPaneFrameWnd@@IAEXPAUtagWINDOWPOS@@@Z 0048b86c f   nafxcw:afxpaneframewnd.obj
 0001:0008a940       ?PaneFromPoint@CPaneFrameWnd@@UAEPAVCBasePane@@VCPoint@@HH@Z 0048b940 f   nafxcw:afxpaneframewnd.obj
 0001:0008a9c7       ?PreCreateWindow@CPaneFrameWnd@@MAEHAAUtagCREATESTRUCTA@@@Z 0048b9c7 f   nafxcw:afxpaneframewnd.obj
 0001:0008a9de       ?PreTranslateMessage@CPaneFrameWnd@@UAEHPAUtagMSG@@@Z 0048b9de f   nafxcw:afxpaneframewnd.obj
 0001:0008aa7e       ?RecalcCaptionHeight@CPaneFrameWnd@@MAEXXZ 0048ba7e f   nafxcw:afxpaneframewnd.obj
 0001:0008aac2       ?RedrawAll@CPaneFrameWnd@@SGXXZ 0048bac2 f   nafxcw:afxpaneframewnd.obj
 0001:0008aaf4       ?RedrawCaptionButton@CPaneFrameWnd@@IAEXPAVCMFCCaptionButton@@@Z 0048baf4 f   nafxcw:afxpaneframewnd.obj
 0001:0008ab62       ?RemoveAllCaptionButtons@CPaneFrameWnd@@IAEXXZ 0048bb62 f   nafxcw:afxpaneframewnd.obj
 0001:0008ab9a       ?RemoveNonValidPanes@CPaneFrameWnd@@UAEXXZ 0048bb9a f   nafxcw:afxpaneframewnd.obj
 0001:0008ac05       ?RemovePane@CPaneFrameWnd@@UAEXPAVCBasePane@@HH@Z 0048bc05 f   nafxcw:afxpaneframewnd.obj
 0001:0008ac7c       ?ReplacePane@CPaneFrameWnd@@UAEXPAVCBasePane@@0@Z 0048bc7c f   nafxcw:afxpaneframewnd.obj
 0001:0008acd1       ?SaveRecentFloatingState@CPaneFrameWnd@@MAEXXZ 0048bcd1 f   nafxcw:afxpaneframewnd.obj
 0001:0008ad56       ?SaveState@CPaneFrameWnd@@UAEHPBDI@Z 0048bd56 f   nafxcw:afxpaneframewnd.obj
 0001:0008ad90       ?Serialize@CPaneFrameWnd@@UAEXAAVCArchive@@@Z 0048bd90 f   nafxcw:afxpaneframewnd.obj
 0001:0008af26       ?SetCaptionButtons@CPaneFrameWnd@@UAEXK@Z 0048bf26 f   nafxcw:afxpaneframewnd.obj
 0001:0008afce       ?SetCaptionButtonsToolTips@CPaneFrameWnd@@IAEXXZ 0048bfce f   nafxcw:afxpaneframewnd.obj
 0001:0008b0bc       ?SetDockState@CPaneFrameWnd@@UAEXPAVCDockingManager@@@Z 0048c0bc f   nafxcw:afxpaneframewnd.obj
 0001:0008b332       ?SetDockingTimer@CPaneFrameWnd@@QAEXI@Z 0048c332 f   nafxcw:afxpaneframewnd.obj
 0001:0008b364       ?SetPreDockState@CPaneFrameWnd@@UAEHW4AFX_PREDOCK_STATE@@PAVCBasePane@@W4AFX_DOCK_METHOD@@@Z 0048c364 f   nafxcw:afxpaneframewnd.obj
 0001:0008b46b       ?SetRollUpTimer@CPaneFrameWnd@@IAEXXZ 0048c46b f   nafxcw:afxpaneframewnd.obj
 0001:0008b4a9       ?SizeToContent@CPaneFrameWnd@@UAEXXZ 0048c4a9 f   nafxcw:afxpaneframewnd.obj
 0001:0008b55a       ?StartSDocking@CDockingManager@@QAEXPAVCWnd@@@Z 0048c55a f i nafxcw:afxpaneframewnd.obj
 0001:0008b594       ?StartTearOff@CPaneFrameWnd@@QAEHPAVCMFCPopupMenu@@@Z 0048c594 f   nafxcw:afxpaneframewnd.obj
 0001:0008b87c       ?StopCaptionButtonsTracking@CPaneFrameWnd@@MAEXXZ 0048c87c f   nafxcw:afxpaneframewnd.obj
 0001:0008b8e3       ?UpdateTooltips@CPaneFrameWnd@@IAEXXZ 0048c8e3 f   nafxcw:afxpaneframewnd.obj
 0001:0008b9f7       ??$SerializeElements@UAFX_AUTOHIDE_DOCKSITE_SAVE_INFO@@@@YGXAAVCArchive@@PAUAFX_AUTOHIDE_DOCKSITE_SAVE_INFO@@H@Z 0048c9f7 f i nafxcw:afxdockingmanager.obj
 0001:0008ba90       ??0?$CList@IAAI@@QAE@H@Z   0048ca90 f i nafxcw:afxdockingmanager.obj
 0001:0008bab6       ??0?$CList@PAUHWND__@@AAPAU1@@@QAE@H@Z 0048cab6 f i nafxcw:afxdockingmanager.obj
 0001:0008badc       ??0?$CList@UAFX_AUTOHIDE_DOCKSITE_SAVE_INFO@@AAU1@@@QAE@H@Z 0048cadc f i nafxcw:afxdockingmanager.obj
 0001:0008bb02       ??0?$CMap@IIPAVCPane@@PAV1@@@QAE@H@Z 0048cb02 f i nafxcw:afxdockingmanager.obj
 0001:0008bb2c       ??0AFX_AUTOHIDE_DOCKSITE_SAVE_INFO@@QAE@XZ 0048cb2c f i nafxcw:afxdockingmanager.obj
 0001:0008bb70       ??0CDockingManager@@QAE@XZ 0048cb70 f   nafxcw:afxdockingmanager.obj
 0001:0008bd37       ??0CSmartDockingInfo@@QAE@XZ 0048cd37 f   nafxcw:afxdockingmanager.obj
 0001:0008bd81       ??1?$CList@IAAI@@UAE@XZ    0048cd81 f i nafxcw:afxdockingmanager.obj
 0001:0008bd8c       ??1?$CList@PAUHWND__@@AAPAU1@@@UAE@XZ 0048cd8c f i nafxcw:afxdockingmanager.obj
 0001:0008bd97       ??1?$CList@UAFX_AUTOHIDE_DOCKSITE_SAVE_INFO@@AAU1@@@UAE@XZ 0048cd97 f i nafxcw:afxdockingmanager.obj
 0001:0008bda2       ??1?$CMap@IIPAVCPane@@PAV1@@@UAE@XZ 0048cda2 f i nafxcw:afxdockingmanager.obj
 0001:0008bdad       ??1AFX_AUTOHIDE_DOCKSITE_SAVE_INFO@@QAE@XZ 0048cdad f i nafxcw:afxdockingmanager.obj
 0001:0008bdbb       ??1CDockingManager@@UAE@XZ 0048cdbb f   nafxcw:afxdockingmanager.obj
 0001:0008bec4       ??_E?$CList@IAAI@@UAEPAXI@Z 0048cec4 f i nafxcw:afxdockingmanager.obj
 0001:0008bec4       ??_G?$CList@IAAI@@UAEPAXI@Z 0048cec4 f i nafxcw:afxdockingmanager.obj
 0001:0008bee9       ??_E?$CList@PAUHWND__@@AAPAU1@@@UAEPAXI@Z 0048cee9 f i nafxcw:afxdockingmanager.obj
 0001:0008bee9       ??_G?$CList@PAUHWND__@@AAPAU1@@@UAEPAXI@Z 0048cee9 f i nafxcw:afxdockingmanager.obj
 0001:0008bf0e       ??_G?$CList@UAFX_AUTOHIDE_DOCKSITE_SAVE_INFO@@AAU1@@@UAEPAXI@Z 0048cf0e f i nafxcw:afxdockingmanager.obj
 0001:0008bf0e       ??_E?$CList@UAFX_AUTOHIDE_DOCKSITE_SAVE_INFO@@AAU1@@@UAEPAXI@Z 0048cf0e f i nafxcw:afxdockingmanager.obj
 0001:0008bf33       ??_G?$CMap@IIPAVCPane@@PAV1@@@UAEPAXI@Z 0048cf33 f i nafxcw:afxdockingmanager.obj
 0001:0008bf33       ??_E?$CMap@IIPAVCPane@@PAV1@@@UAEPAXI@Z 0048cf33 f i nafxcw:afxdockingmanager.obj
 0001:0008bf58       ??_GAFX_AUTOHIDE_DOCKSITE_SAVE_INFO@@QAEPAXI@Z 0048cf58 f i nafxcw:afxdockingmanager.obj
 0001:0008bf80       ??_ECDockingManager@@UAEPAXI@Z 0048cf80 f i nafxcw:afxdockingmanager.obj
 0001:0008bf80       ??_GCDockingManager@@UAEPAXI@Z 0048cf80 f i nafxcw:afxdockingmanager.obj
 0001:0008bf9f       ?AddHiddenMDITabbedBar@CDockingManager@@QAEXPAVCDockablePane@@@Z 0048cf9f f   nafxcw:afxdockingmanager.obj
 0001:0008bfc7       ?AddMiniFrame@CDockingManager@@UAEHPAVCPaneFrameWnd@@@Z 0048cfc7 f   nafxcw:afxdockingmanager.obj
 0001:0008bff7       ?AddPane@CDockingManager@@QAEHPAVCBasePane@@HHH@Z 0048cff7 f   nafxcw:afxdockingmanager.obj
 0001:0008c0af       ?AddTail@?$CList@IAAI@@QAEXPAV1@@Z 0048d0af f i nafxcw:afxdockingmanager.obj
 0001:0008c0e1       ?AddTail@?$CList@PAUHWND__@@AAPAU1@@@QAEPAU__POSITION@@AAPAUHWND__@@@Z 0048d0e1 f i nafxcw:afxdockingmanager.obj
 0001:0008c0e1       ?AddTail@?$CList@IAAI@@QAEPAU__POSITION@@AAI@Z 0048d0e1 f i nafxcw:afxdockingmanager.obj
 0001:0008c10f       ?AddTail@?$CList@UAFX_AUTOHIDE_DOCKSITE_SAVE_INFO@@AAU1@@@QAEPAU__POSITION@@AAUAFX_AUTOHIDE_DOCKSITE_SAVE_INFO@@@Z 0048d10f f i nafxcw:afxdockingmanager.obj
 0001:0008c146       ?AdjustDockingLayout@CDockingManager@@UAEXPAX@Z 0048d146 f   nafxcw:afxdockingmanager.obj
 0001:0008c688       ?AdjustPaneFrames@CDockingManager@@UAEXXZ 0048d688 f   nafxcw:afxdockingmanager.obj
 0001:0008c70a       ?AdjustRectToClientArea@CDockingManager@@UAEHAAVCRect@@K@Z 0048d70a f   nafxcw:afxdockingmanager.obj
 0001:0008c7f8       ?AlignAutoHidePane@CDockingManager@@QAEXPAVCPaneDivider@@H@Z 0048d7f8 f   nafxcw:afxdockingmanager.obj
 0001:0008cac3       ?AlignByRect@CDockingManager@@IAEXABVCRect@@AAV2@KHH@Z 0048dac3 f   nafxcw:afxdockingmanager.obj
 0001:0008cc24       ?AutoHidePane@CDockingManager@@QAEPAVCMFCAutoHideBar@@PAVCDockablePane@@PAV2@@Z 0048dc24 f   nafxcw:afxdockingmanager.obj
 0001:0008cd6c       ?BringBarsToTop@CDockingManager@@QAEXKH@Z 0048dd6c f   nafxcw:afxdockingmanager.obj
 0001:0008cdef       ?BuildPanesMenu@CDockingManager@@QAEXAAVCMenu@@H@Z 0048ddef f   nafxcw:afxdockingmanager.obj
 0001:0008d3ef       ?CalcExpectedDockedRect@CDockingManager@@QAEXPAVCWnd@@VCPoint@@AAVCRect@@AAHPAPAVCDockablePane@@@Z 0048e3ef f   nafxcw:afxdockingmanager.obj
 0001:0008d6b8       ?CalcPaneOffset@CDockingManager@@IAEXPAVCAutoHideDockSite@@@Z 0048e6b8 f   nafxcw:afxdockingmanager.obj
 0001:0008d8b4       ?Copy@AFX_AUTOHIDE_DOCKSITE_SAVE_INFO@@QAEAAU1@AAU1@@Z 0048e8b4 f i nafxcw:afxdockingmanager.obj
 0001:0008d915       ?Create@CDockingManager@@QAEHPAVCFrameWnd@@@Z 0048e915 f   nafxcw:afxdockingmanager.obj
 0001:0008d928       ?DeterminePaneAndStatus@CDockingManager@@UAE?AW4AFX_CS_STATUS@@VCPoint@@HKPAPAVCBasePane@@PBV4@2@Z 0048e928 f   nafxcw:afxdockingmanager.obj
 0001:0008da92       ?DockPane@CDockingManager@@QAEXPAVCBasePane@@IPBUtagRECT@@@Z 0048ea92 f   nafxcw:afxdockingmanager.obj
 0001:0008dbea       ?Find@?$CList@PAUHWND__@@AAPAU1@@@QBEPAU__POSITION@@AAPAUHWND__@@PAU2@@Z 0048ebea f i nafxcw:afxdockingmanager.obj
 0001:0008dc1b       ?FindDockSite@CDockingManager@@UAEPAVCDockSite@@KH@Z 0048ec1b f   nafxcw:afxdockingmanager.obj
 0001:0008dc99       ?FindDockSiteByPane@CDockingManager@@UAEPAVCDockSite@@PAVCPane@@@Z 0048ec99 f   nafxcw:afxdockingmanager.obj
 0001:0008dcfa       ?FindPaneByID@CDockingManager@@UAEPAVCBasePane@@IH@Z 0048ecfa f   nafxcw:afxdockingmanager.obj
 0001:0008de8e       ?FixupVirtualRects@CDockingManager@@UAEXXZ 0048ee8e f   nafxcw:afxdockingmanager.obj
 0001:0008dedd       ?FrameFromPoint@CDockingManager@@UBEPAVCPaneFrameWnd@@VCPoint@@PAV2@H@Z 0048eedd f   nafxcw:afxdockingmanager.obj
 0001:0008df91       ?FreeNode@?$CList@PAVCPropertyPage@@PAV1@@@IAEXPAUCNode@1@@Z 0048ef91 f i nafxcw:afxtoolbarscustomizedialog.obj
 0001:0008df91       ?FreeNode@?$CList@PAVCMFCButton@@PAV1@@@IAEXPAUCNode@1@@Z 0048ef91 f i nafxcw:afxvslistbox.obj
 0001:0008df91       ?FreeNode@?$CList@II@@IAEXPAUCNode@1@@Z 0048ef91 f i nafxcw:afxcommandmanager.obj
 0001:0008df91       ?FreeNode@?$CList@PAUHWND__@@AAPAU1@@@IAEXPAUCNode@1@@Z 0048ef91 f i nafxcw:afxdockingmanager.obj
 0001:0008df91       ?FreeNode@?$CList@IAAI@@IAEXPAUCNode@1@@Z 0048ef91 f i nafxcw:afxdockingmanager.obj
 0001:0008df91       ?FreeNode@?$CList@PAVCMFCPropertyGridProperty@@PAV1@@@IAEXPAUCNode@1@@Z 0048ef91 f i nafxcw:afxpropertygridctrl.obj
 0001:0008df91       ?FreeNode@?$CList@PAVCFrameWnd@@PAV1@@@IAEXPAUCNode@1@@Z 0048ef91 f i nafxcw:afxframeimpl.obj
 0001:0008df91       ?FreeNode@?$CList@PAUHWND__@@PAU1@@@IAEXPAUCNode@1@@Z 0048ef91 f i nafxcw:afxtooltipmanager.obj
 0001:0008dfae       ?GetPaneList@CDockingManager@@QAEXAAVCObList@@HPAUCRuntimeClass@@H@Z 0048efae f   nafxcw:afxdockingmanager.obj
 0001:0008e14c       ?HideAutoHidePanes@CDockingManager@@QAEXPAVCDockablePane@@H@Z 0048f14c f   nafxcw:afxdockingmanager.obj
 0001:0008e1a9       ?HideForPrintPreview@CDockingManager@@IAEXABVCObList@@@Z 0048f1a9 f   nafxcw:afxdockingmanager.obj
 0001:0008e302       ?InsertPane@CDockingManager@@QAEHPAVCBasePane@@0H@Z 0048f302 f   nafxcw:afxdockingmanager.obj
 0001:0008e34d       ?IsOLEContainerMode@CDockingManager@@QBEHXZ 0048f34d f i nafxcw:afxdockingmanager.obj
 0001:0008e36c       ?IsPointNearDockSite@CDockingManager@@QBEHVCPoint@@AAKAAH@Z 0048f36c f   nafxcw:afxdockingmanager.obj
 0001:0008e43f       ?LoadState@CDockingManager@@UAEHPBDI@Z 0048f43f f   nafxcw:afxdockingmanager.obj
 0001:0008e7d0       ?LockUpdate@CDockingManager@@QAEXH@Z 0048f7d0 f   nafxcw:afxdockingmanager.obj
 0001:0008e8ca       ?NewNode@?$CList@UAFX_AUTOHIDE_DOCKSITE_SAVE_INFO@@AAU1@@@IAEPAUCNode@1@PAU21@0@Z 0048f8ca f i nafxcw:afxdockingmanager.obj
 0001:0008e938       ?OnActivateFrame@CDockingManager@@UAEXH@Z 0048f938 f   nafxcw:afxdockingmanager.obj
 0001:0008ea7e       ?OnClosePopupMenu@CDockingManager@@QAEXXZ 0048fa7e f   nafxcw:afxdockingmanager.obj
 0001:0008ea86       ?OnMoveMiniFrame@CDockingManager@@UAEHPAVCWnd@@@Z 0048fa86 f   nafxcw:afxdockingmanager.obj
 0001:0008ee18       ?OnPaneContextMenu@CDockingManager@@QAEXVCPoint@@@Z 0048fe18 f   nafxcw:afxdockingmanager.obj
 0001:0008eee5       ?PaneFromPoint@CDockingManager@@UBEPAVCBasePane@@VCPoint@@HAAKPAUCRuntimeClass@@PBV2@@Z 0048fee5 f   nafxcw:afxdockingmanager.obj
 0001:0008ef55       ?PaneFromPoint@CDockingManager@@UBEPAVCBasePane@@VCPoint@@H_NPAUCRuntimeClass@@HPBV2@@Z 0048ff55 f   nafxcw:afxdockingmanager.obj
 0001:0008f0ab       ?ProcessPaneContextMenuCommand@CDockingManager@@QAEHIHPAXPAUAFX_CMDHANDLERINFO@@@Z 004900ab f   nafxcw:afxdockingmanager.obj
 0001:0008f1a2       ?RecalcLayout@CDockingManager@@UAEXH@Z 004901a2 f   nafxcw:afxdockingmanager.obj
 0001:0008f285       ?RedrawAllMiniFrames@CDockingManager@@QAEXXZ 00490285 f   nafxcw:afxdockingmanager.obj
 0001:0008f2ee       ?RemoveAll@?$CList@UAFX_AUTOHIDE_DOCKSITE_SAVE_INFO@@AAU1@@@QAEXXZ 004902ee f i nafxcw:afxdockingmanager.obj
 0001:0008f324       ?RemoveHiddenMDITabbedBar@CDockingManager@@QAEXPAVCDockablePane@@@Z 00490324 f   nafxcw:afxdockingmanager.obj
 0001:0008f35a       ?RemoveMiniFrame@CDockingManager@@UAEHPAVCPaneFrameWnd@@@Z 0049035a f   nafxcw:afxdockingmanager.obj
 0001:0008f388       ?RemovePaneFromDockManager@CDockingManager@@QAEXPAVCBasePane@@HHH0@Z 00490388 f   nafxcw:afxdockingmanager.obj
 0001:0008f3f5       ?ResortMiniFramesForZOrder@CDockingManager@@QAEXXZ 004903f5 f   nafxcw:afxdockingmanager.obj
 0001:0008f4a8       ?SaveState@CDockingManager@@UAEHPBDI@Z 004904a8 f   nafxcw:afxdockingmanager.obj
 0001:0008f72e       ?SendMessageToMiniFrames@CDockingManager@@QAEHIIJ@Z 0049072e f   nafxcw:afxdockingmanager.obj
 0001:0008f781       ?Serialize@?$CList@PAUHWND__@@AAPAU1@@@UAEXAAVCArchive@@@Z 00490781 f i nafxcw:afxdockingmanager.obj
